
add/add.out:     file format elf64-littleriscv


Disassembly of section .text:

0000000000010000 <_ftext>:
   10000:	00002197          	auipc	gp,0x2
   10004:	d2018193          	addi	gp,gp,-736 # 11d20 <_gp>
   10008:	00001297          	auipc	t0,0x1
   1000c:	53028293          	addi	t0,t0,1328 # 11538 <_fbss>
   10010:	00001317          	auipc	t1,0x1
   10014:	58030313          	addi	t1,t1,1408 # 11590 <_end>
   10018:	0002b023          	sd	zero,0(t0)
   1001c:	00828293          	addi	t0,t0,8
   10020:	fe62ece3          	bltu	t0,t1,10018 <_ftext+0x18>
   10024:	00000517          	auipc	a0,0x0
   10028:	1d450513          	addi	a0,a0,468 # 101f8 <__libc_fini_array>
   1002c:	188000ef          	jal	101b4 <atexit>
   10030:	224000ef          	jal	10254 <__libc_init_array>
   10034:	00012503          	lw	a0,0(sp)
   10038:	00810593          	addi	a1,sp,8
   1003c:	00000613          	li	a2,0
   10040:	124000ef          	jal	10164 <main>
   10044:	1840006f          	j	101c8 <exit>

0000000000010048 <_fini>:
   10048:	00008067          	ret

000000000001004c <deregister_tm_clones>:
   1004c:	00011537          	lui	a0,0x11
   10050:	000117b7          	lui	a5,0x11
   10054:	51850713          	addi	a4,a0,1304 # 11518 <__TMC_END__>
   10058:	51f78793          	addi	a5,a5,1311 # 1151f <__TMC_END__+0x7>
   1005c:	40e787b3          	sub	a5,a5,a4
   10060:	00e00713          	li	a4,14
   10064:	00f77c63          	bleu	a5,a4,1007c <deregister_tm_clones+0x30>
   10068:	00000337          	lui	t1,0x0
   1006c:	00030313          	mv	t1,t1
   10070:	00030663          	beqz	t1,1007c <deregister_tm_clones+0x30>
   10074:	51850513          	addi	a0,a0,1304
   10078:	00030067          	jr	t1
   1007c:	00008067          	ret

0000000000010080 <register_tm_clones>:
   10080:	00011537          	lui	a0,0x11
   10084:	000117b7          	lui	a5,0x11
   10088:	51850593          	addi	a1,a0,1304 # 11518 <__TMC_END__>
   1008c:	51878793          	addi	a5,a5,1304 # 11518 <__TMC_END__>
   10090:	40b787b3          	sub	a5,a5,a1
   10094:	4037d793          	srai	a5,a5,0x3
   10098:	03f7d593          	srli	a1,a5,0x3f
   1009c:	00f585b3          	add	a1,a1,a5
   100a0:	4015d593          	srai	a1,a1,0x1
   100a4:	00058c63          	beqz	a1,100bc <register_tm_clones+0x3c>
   100a8:	00000337          	lui	t1,0x0
   100ac:	00030313          	mv	t1,t1
   100b0:	00030663          	beqz	t1,100bc <register_tm_clones+0x3c>
   100b4:	51850513          	addi	a0,a0,1304
   100b8:	00030067          	jr	t1
   100bc:	00008067          	ret

00000000000100c0 <__do_global_dtors_aux>:
   100c0:	ff010113          	addi	sp,sp,-16
   100c4:	00813023          	sd	s0,0(sp)
   100c8:	8201c783          	lbu	a5,-2016(gp) # 11540 <_bss_start>
   100cc:	00113423          	sd	ra,8(sp)
   100d0:	02079663          	bnez	a5,100fc <__do_global_dtors_aux+0x3c>
   100d4:	f79ff0ef          	jal	1004c <deregister_tm_clones>
   100d8:	000007b7          	lui	a5,0x0
   100dc:	00078793          	mv	a5,a5
   100e0:	00078a63          	beqz	a5,100f4 <__do_global_dtors_aux+0x34>
   100e4:	00011537          	lui	a0,0x11
   100e8:	99050513          	addi	a0,a0,-1648 # 10990 <__fini_array_end>
   100ec:	ffff0317          	auipc	t1,0xffff0
   100f0:	f14300e7          	jalr	t1,-236 # 0 <_ftext-0x10000>
   100f4:	00100793          	li	a5,1
   100f8:	82f18023          	sb	a5,-2016(gp) # 11540 <_bss_start>
   100fc:	00813083          	ld	ra,8(sp)
   10100:	00013403          	ld	s0,0(sp)
   10104:	01010113          	addi	sp,sp,16
   10108:	00008067          	ret

000000000001010c <frame_dummy>:
   1010c:	ff010113          	addi	sp,sp,-16
   10110:	000007b7          	lui	a5,0x0
   10114:	00113423          	sd	ra,8(sp)
   10118:	00078793          	mv	a5,a5
   1011c:	00078c63          	beqz	a5,10134 <frame_dummy+0x28>
   10120:	00011537          	lui	a0,0x11
   10124:	82818593          	addi	a1,gp,-2008 # 11548 <object.3092>
   10128:	99050513          	addi	a0,a0,-1648 # 10990 <__fini_array_end>
   1012c:	ffff0317          	auipc	t1,0xffff0
   10130:	ed4300e7          	jalr	t1,-300 # 0 <_ftext-0x10000>
   10134:	000117b7          	lui	a5,0x11
   10138:	dc078513          	addi	a0,a5,-576 # 10dc0 <__JCR_END__>
   1013c:	00053783          	ld	a5,0(a0)
   10140:	00079863          	bnez	a5,10150 <frame_dummy+0x44>
   10144:	00813083          	ld	ra,8(sp)
   10148:	01010113          	addi	sp,sp,16
   1014c:	f35ff06f          	j	10080 <register_tm_clones>
   10150:	000007b7          	lui	a5,0x0
   10154:	00078793          	mv	a5,a5
   10158:	fe0786e3          	beqz	a5,10144 <frame_dummy+0x38>
   1015c:	000780e7          	jalr	a5
   10160:	fe5ff06f          	j	10144 <frame_dummy+0x38>

0000000000010164 <main>:
   10164:	fe010113          	addi	sp,sp,-32
   10168:	00813c23          	sd	s0,24(sp)
   1016c:	02010413          	addi	s0,sp,32
   10170:	00500793          	li	a5,5
   10174:	fef42623          	sw	a5,-20(s0)
   10178:	00300793          	li	a5,3
   1017c:	fef42423          	sw	a5,-24(s0)
   10180:	fec42703          	lw	a4,-20(s0)
   10184:	fe842783          	lw	a5,-24(s0)
   10188:	00f7073b          	addw	a4,a4,a5
   1018c:	86e1a423          	sw	a4,-1944(gp) # 11588 <add>
   10190:	fec42703          	lw	a4,-20(s0)
   10194:	fe842783          	lw	a5,-24(s0)
   10198:	40f7073b          	subw	a4,a4,a5
   1019c:	86e1a623          	sw	a4,-1940(gp) # 1158c <sub>
   101a0:	00000793          	li	a5,0
   101a4:	00078513          	mv	a0,a5
   101a8:	01813403          	ld	s0,24(sp)
   101ac:	02010113          	addi	sp,sp,32
   101b0:	00008067          	ret

00000000000101b4 <atexit>:
   101b4:	00050593          	mv	a1,a0
   101b8:	00000693          	li	a3,0
   101bc:	00000613          	li	a2,0
   101c0:	00000513          	li	a0,0
   101c4:	1300006f          	j	102f4 <__register_exitproc>

00000000000101c8 <exit>:
   101c8:	ff010113          	addi	sp,sp,-16
   101cc:	00000593          	li	a1,0
   101d0:	00813023          	sd	s0,0(sp)
   101d4:	00113423          	sd	ra,8(sp)
   101d8:	00050413          	mv	s0,a0
   101dc:	22c000ef          	jal	10408 <__call_exitprocs>
   101e0:	8081b503          	ld	a0,-2040(gp) # 11528 <_global_impure_ptr>
   101e4:	05853783          	ld	a5,88(a0)
   101e8:	00078463          	beqz	a5,101f0 <exit+0x28>
   101ec:	000780e7          	jalr	a5
   101f0:	00040513          	mv	a0,s0
   101f4:	75c000ef          	jal	10950 <_exit>

00000000000101f8 <__libc_fini_array>:
   101f8:	fe010113          	addi	sp,sp,-32
   101fc:	00813823          	sd	s0,16(sp)
   10200:	00913423          	sd	s1,8(sp)
   10204:	00011437          	lui	s0,0x11
   10208:	000114b7          	lui	s1,0x11
   1020c:	98848493          	addi	s1,s1,-1656 # 10988 <__init_array_end>
   10210:	99040413          	addi	s0,s0,-1648 # 10990 <__fini_array_end>
   10214:	40940433          	sub	s0,s0,s1
   10218:	ff840793          	addi	a5,s0,-8
   1021c:	00113c23          	sd	ra,24(sp)
   10220:	40345413          	srai	s0,s0,0x3
   10224:	009784b3          	add	s1,a5,s1
   10228:	00040c63          	beqz	s0,10240 <__libc_fini_array+0x48>
   1022c:	0004b783          	ld	a5,0(s1)
   10230:	fff40413          	addi	s0,s0,-1
   10234:	ff848493          	addi	s1,s1,-8
   10238:	000780e7          	jalr	a5
   1023c:	fe0418e3          	bnez	s0,1022c <__libc_fini_array+0x34>
   10240:	01813083          	ld	ra,24(sp)
   10244:	01013403          	ld	s0,16(sp)
   10248:	00813483          	ld	s1,8(sp)
   1024c:	02010113          	addi	sp,sp,32
   10250:	df9ff06f          	j	10048 <_fini>

0000000000010254 <__libc_init_array>:
   10254:	fe010113          	addi	sp,sp,-32
   10258:	00813823          	sd	s0,16(sp)
   1025c:	000117b7          	lui	a5,0x11
   10260:	00011437          	lui	s0,0x11
   10264:	01213023          	sd	s2,0(sp)
   10268:	98078793          	addi	a5,a5,-1664 # 10980 <_etext>
   1026c:	98040913          	addi	s2,s0,-1664 # 10980 <_etext>
   10270:	41278933          	sub	s2,a5,s2
   10274:	00913423          	sd	s1,8(sp)
   10278:	00113c23          	sd	ra,24(sp)
   1027c:	40395913          	srai	s2,s2,0x3
   10280:	98040413          	addi	s0,s0,-1664
   10284:	00000493          	li	s1,0
   10288:	00090c63          	beqz	s2,102a0 <__libc_init_array+0x4c>
   1028c:	00043783          	ld	a5,0(s0)
   10290:	00148493          	addi	s1,s1,1
   10294:	00840413          	addi	s0,s0,8
   10298:	000780e7          	jalr	a5
   1029c:	fe9918e3          	bne	s2,s1,1028c <__libc_init_array+0x38>
   102a0:	da9ff0ef          	jal	10048 <_fini>
   102a4:	00011437          	lui	s0,0x11
   102a8:	000117b7          	lui	a5,0x11
   102ac:	98040913          	addi	s2,s0,-1664 # 10980 <_etext>
   102b0:	98878793          	addi	a5,a5,-1656 # 10988 <__init_array_end>
   102b4:	41278933          	sub	s2,a5,s2
   102b8:	40395913          	srai	s2,s2,0x3
   102bc:	98040413          	addi	s0,s0,-1664
   102c0:	00000493          	li	s1,0
   102c4:	00090c63          	beqz	s2,102dc <__libc_init_array+0x88>
   102c8:	00043783          	ld	a5,0(s0)
   102cc:	00148493          	addi	s1,s1,1
   102d0:	00840413          	addi	s0,s0,8
   102d4:	000780e7          	jalr	a5
   102d8:	fe9918e3          	bne	s2,s1,102c8 <__libc_init_array+0x74>
   102dc:	01813083          	ld	ra,24(sp)
   102e0:	01013403          	ld	s0,16(sp)
   102e4:	00813483          	ld	s1,8(sp)
   102e8:	00013903          	ld	s2,0(sp)
   102ec:	02010113          	addi	sp,sp,32
   102f0:	00008067          	ret

00000000000102f4 <__register_exitproc>:
   102f4:	fd010113          	addi	sp,sp,-48
   102f8:	02813023          	sd	s0,32(sp)
   102fc:	8081b403          	ld	s0,-2040(gp) # 11528 <_global_impure_ptr>
   10300:	00913c23          	sd	s1,24(sp)
   10304:	00050493          	mv	s1,a0
   10308:	1f843503          	ld	a0,504(s0)
   1030c:	01213823          	sd	s2,16(sp)
   10310:	01313423          	sd	s3,8(sp)
   10314:	01413023          	sd	s4,0(sp)
   10318:	02113423          	sd	ra,40(sp)
   1031c:	00058913          	mv	s2,a1
   10320:	00060a13          	mv	s4,a2
   10324:	00068993          	mv	s3,a3
   10328:	0c050663          	beqz	a0,103f4 <__register_exitproc+0x100>
   1032c:	00852703          	lw	a4,8(a0)
   10330:	01f00793          	li	a5,31
   10334:	0017059b          	addiw	a1,a4,1
   10338:	04e7d063          	ble	a4,a5,10378 <__register_exitproc+0x84>
   1033c:	000007b7          	lui	a5,0x0
   10340:	00078793          	mv	a5,a5
   10344:	0a078e63          	beqz	a5,10400 <__register_exitproc+0x10c>
   10348:	31800513          	li	a0,792
   1034c:	ffff0317          	auipc	t1,0xffff0
   10350:	cb4300e7          	jalr	t1,-844 # 0 <_ftext-0x10000>
   10354:	0a050663          	beqz	a0,10400 <__register_exitproc+0x10c>
   10358:	1f843783          	ld	a5,504(s0)
   1035c:	00052423          	sw	zero,8(a0)
   10360:	00100593          	li	a1,1
   10364:	00f53023          	sd	a5,0(a0)
   10368:	1ea43c23          	sd	a0,504(s0)
   1036c:	30052823          	sw	zero,784(a0)
   10370:	30052a23          	sw	zero,788(a0)
   10374:	00000713          	li	a4,0
   10378:	00070793          	mv	a5,a4
   1037c:	02049e63          	bnez	s1,103b8 <__register_exitproc+0xc4>
   10380:	00278793          	addi	a5,a5,2 # 2 <_ftext-0xfffe>
   10384:	00379793          	slli	a5,a5,0x3
   10388:	00b52423          	sw	a1,8(a0)
   1038c:	00f50533          	add	a0,a0,a5
   10390:	01253023          	sd	s2,0(a0)
   10394:	00000513          	li	a0,0
   10398:	02813083          	ld	ra,40(sp)
   1039c:	02013403          	ld	s0,32(sp)
   103a0:	01813483          	ld	s1,24(sp)
   103a4:	01013903          	ld	s2,16(sp)
   103a8:	00813983          	ld	s3,8(sp)
   103ac:	00013a03          	ld	s4,0(sp)
   103b0:	03010113          	addi	sp,sp,48
   103b4:	00008067          	ret
   103b8:	00371813          	slli	a6,a4,0x3
   103bc:	01050833          	add	a6,a0,a6
   103c0:	11483823          	sd	s4,272(a6)
   103c4:	31052883          	lw	a7,784(a0)
   103c8:	00100613          	li	a2,1
   103cc:	00e6173b          	sllw	a4,a2,a4
   103d0:	00e8e633          	or	a2,a7,a4
   103d4:	30c52823          	sw	a2,784(a0)
   103d8:	21383823          	sd	s3,528(a6)
   103dc:	00200693          	li	a3,2
   103e0:	fad490e3          	bne	s1,a3,10380 <__register_exitproc+0x8c>
   103e4:	31452683          	lw	a3,788(a0)
   103e8:	00e6e733          	or	a4,a3,a4
   103ec:	30e52a23          	sw	a4,788(a0)
   103f0:	f91ff06f          	j	10380 <__register_exitproc+0x8c>
   103f4:	20040513          	addi	a0,s0,512
   103f8:	1ea43c23          	sd	a0,504(s0)
   103fc:	f31ff06f          	j	1032c <__register_exitproc+0x38>
   10400:	fff00513          	li	a0,-1
   10404:	f95ff06f          	j	10398 <__register_exitproc+0xa4>

0000000000010408 <__call_exitprocs>:
   10408:	fa010113          	addi	sp,sp,-96
   1040c:	03413823          	sd	s4,48(sp)
   10410:	8081ba03          	ld	s4,-2040(gp) # 11528 <_global_impure_ptr>
   10414:	03313c23          	sd	s3,56(sp)
   10418:	000009b7          	lui	s3,0x0
   1041c:	04913423          	sd	s1,72(sp)
   10420:	05213023          	sd	s2,64(sp)
   10424:	03513423          	sd	s5,40(sp)
   10428:	01713c23          	sd	s7,24(sp)
   1042c:	01813823          	sd	s8,16(sp)
   10430:	04113c23          	sd	ra,88(sp)
   10434:	04813823          	sd	s0,80(sp)
   10438:	03613023          	sd	s6,32(sp)
   1043c:	01913423          	sd	s9,8(sp)
   10440:	01a13023          	sd	s10,0(sp)
   10444:	00050913          	mv	s2,a0
   10448:	00058b93          	mv	s7,a1
   1044c:	1f8a0a93          	addi	s5,s4,504
   10450:	00100493          	li	s1,1
   10454:	fff00c13          	li	s8,-1
   10458:	00098993          	mv	s3,s3
   1045c:	1f8a3b03          	ld	s6,504(s4)
   10460:	0c0b0663          	beqz	s6,1052c <__call_exitprocs+0x124>
   10464:	000a8d13          	mv	s10,s5
   10468:	008b2403          	lw	s0,8(s6)
   1046c:	fff4041b          	addiw	s0,s0,-1
   10470:	02045263          	bgez	s0,10494 <__call_exitprocs+0x8c>
   10474:	08c0006f          	j	10500 <__call_exitprocs+0xf8>
   10478:	02040793          	addi	a5,s0,32
   1047c:	00379793          	slli	a5,a5,0x3
   10480:	00fb07b3          	add	a5,s6,a5
   10484:	1107b783          	ld	a5,272(a5)
   10488:	00fb8a63          	beq	s7,a5,1049c <__call_exitprocs+0x94>
   1048c:	fff4041b          	addiw	s0,s0,-1
   10490:	07840863          	beq	s0,s8,10500 <__call_exitprocs+0xf8>
   10494:	00040713          	mv	a4,s0
   10498:	fe0b90e3          	bnez	s7,10478 <__call_exitprocs+0x70>
   1049c:	008b2783          	lw	a5,8(s6)
   104a0:	00371713          	slli	a4,a4,0x3
   104a4:	00eb0733          	add	a4,s6,a4
   104a8:	fff7879b          	addiw	a5,a5,-1
   104ac:	01073683          	ld	a3,16(a4)
   104b0:	0a878e63          	beq	a5,s0,1056c <__call_exitprocs+0x164>
   104b4:	00073823          	sd	zero,16(a4)
   104b8:	fc068ae3          	beqz	a3,1048c <__call_exitprocs+0x84>
   104bc:	310b2783          	lw	a5,784(s6)
   104c0:	0084963b          	sllw	a2,s1,s0
   104c4:	008b2c83          	lw	s9,8(s6)
   104c8:	00f677b3          	and	a5,a2,a5
   104cc:	08078c63          	beqz	a5,10564 <__call_exitprocs+0x15c>
   104d0:	314b2783          	lw	a5,788(s6)
   104d4:	00f67633          	and	a2,a2,a5
   104d8:	08061e63          	bnez	a2,10574 <__call_exitprocs+0x16c>
   104dc:	11073583          	ld	a1,272(a4)
   104e0:	00090513          	mv	a0,s2
   104e4:	000680e7          	jalr	a3
   104e8:	008b2783          	lw	a5,8(s6)
   104ec:	f79798e3          	bne	a5,s9,1045c <__call_exitprocs+0x54>
   104f0:	000d3783          	ld	a5,0(s10)
   104f4:	f76794e3          	bne	a5,s6,1045c <__call_exitprocs+0x54>
   104f8:	fff4041b          	addiw	s0,s0,-1
   104fc:	f9841ce3          	bne	s0,s8,10494 <__call_exitprocs+0x8c>
   10500:	02098663          	beqz	s3,1052c <__call_exitprocs+0x124>
   10504:	008b2783          	lw	a5,8(s6)
   10508:	06079c63          	bnez	a5,10580 <__call_exitprocs+0x178>
   1050c:	000b3783          	ld	a5,0(s6)
   10510:	08078263          	beqz	a5,10594 <__call_exitprocs+0x18c>
   10514:	000b0513          	mv	a0,s6
   10518:	00fd3023          	sd	a5,0(s10)
   1051c:	ffff0317          	auipc	t1,0xffff0
   10520:	ae4300e7          	jalr	t1,-1308 # 0 <_ftext-0x10000>
   10524:	000d3b03          	ld	s6,0(s10)
   10528:	f40b10e3          	bnez	s6,10468 <__call_exitprocs+0x60>
   1052c:	05813083          	ld	ra,88(sp)
   10530:	05013403          	ld	s0,80(sp)
   10534:	04813483          	ld	s1,72(sp)
   10538:	04013903          	ld	s2,64(sp)
   1053c:	03813983          	ld	s3,56(sp)
   10540:	03013a03          	ld	s4,48(sp)
   10544:	02813a83          	ld	s5,40(sp)
   10548:	02013b03          	ld	s6,32(sp)
   1054c:	01813b83          	ld	s7,24(sp)
   10550:	01013c03          	ld	s8,16(sp)
   10554:	00813c83          	ld	s9,8(sp)
   10558:	00013d03          	ld	s10,0(sp)
   1055c:	06010113          	addi	sp,sp,96
   10560:	00008067          	ret
   10564:	000680e7          	jalr	a3
   10568:	f81ff06f          	j	104e8 <__call_exitprocs+0xe0>
   1056c:	008b2423          	sw	s0,8(s6)
   10570:	f49ff06f          	j	104b8 <__call_exitprocs+0xb0>
   10574:	11073503          	ld	a0,272(a4)
   10578:	000680e7          	jalr	a3
   1057c:	f6dff06f          	j	104e8 <__call_exitprocs+0xe0>
   10580:	000b3783          	ld	a5,0(s6)
   10584:	000b0d13          	mv	s10,s6
   10588:	00078b13          	mv	s6,a5
   1058c:	ec0b1ee3          	bnez	s6,10468 <__call_exitprocs+0x60>
   10590:	f9dff06f          	j	1052c <__call_exitprocs+0x124>
   10594:	00000793          	li	a5,0
   10598:	fedff06f          	j	10584 <__call_exitprocs+0x17c>

000000000001059c <__syscall_error>:
   1059c:	ff010113          	addi	sp,sp,-16
   105a0:	00113423          	sd	ra,8(sp)
   105a4:	00813023          	sd	s0,0(sp)
   105a8:	00050413          	mv	s0,a0
   105ac:	3c0000ef          	jal	1096c <__errno>
   105b0:	00813083          	ld	ra,8(sp)
   105b4:	408007bb          	negw	a5,s0
   105b8:	00f52023          	sw	a5,0(a0)
   105bc:	00013403          	ld	s0,0(sp)
   105c0:	fff00513          	li	a0,-1
   105c4:	01010113          	addi	sp,sp,16
   105c8:	00008067          	ret

00000000000105cc <open>:
   105cc:	00000693          	li	a3,0
   105d0:	40000893          	li	a7,1024
   105d4:	00000073          	ecall
   105d8:	fc0542e3          	bltz	a0,1059c <__syscall_error>
   105dc:	0005051b          	sext.w	a0,a0
   105e0:	00008067          	ret

00000000000105e4 <openat>:
   105e4:	03800893          	li	a7,56
   105e8:	00000073          	ecall
   105ec:	fa0548e3          	bltz	a0,1059c <__syscall_error>
   105f0:	0005051b          	sext.w	a0,a0
   105f4:	00008067          	ret

00000000000105f8 <lseek>:
   105f8:	00000693          	li	a3,0
   105fc:	03e00893          	li	a7,62
   10600:	00000073          	ecall
   10604:	f8054ce3          	bltz	a0,1059c <__syscall_error>
   10608:	00008067          	ret

000000000001060c <read>:
   1060c:	00000693          	li	a3,0
   10610:	03f00893          	li	a7,63
   10614:	00000073          	ecall
   10618:	f80542e3          	bltz	a0,1059c <__syscall_error>
   1061c:	00008067          	ret

0000000000010620 <write>:
   10620:	00000693          	li	a3,0
   10624:	04000893          	li	a7,64
   10628:	00000073          	ecall
   1062c:	f60548e3          	bltz	a0,1059c <__syscall_error>
   10630:	00008067          	ret

0000000000010634 <fstat>:
   10634:	00000613          	li	a2,0
   10638:	00000693          	li	a3,0
   1063c:	05000893          	li	a7,80
   10640:	00000073          	ecall
   10644:	f4054ce3          	bltz	a0,1059c <__syscall_error>
   10648:	0005051b          	sext.w	a0,a0
   1064c:	00008067          	ret

0000000000010650 <stat>:
   10650:	00000613          	li	a2,0
   10654:	00000693          	li	a3,0
   10658:	40e00893          	li	a7,1038
   1065c:	00000073          	ecall
   10660:	f2054ee3          	bltz	a0,1059c <__syscall_error>
   10664:	0005051b          	sext.w	a0,a0
   10668:	00008067          	ret

000000000001066c <lstat>:
   1066c:	00000613          	li	a2,0
   10670:	00000693          	li	a3,0
   10674:	40f00893          	li	a7,1039
   10678:	00000073          	ecall
   1067c:	f20540e3          	bltz	a0,1059c <__syscall_error>
   10680:	0005051b          	sext.w	a0,a0
   10684:	00008067          	ret

0000000000010688 <fstatat>:
   10688:	04f00893          	li	a7,79
   1068c:	00000073          	ecall
   10690:	f00546e3          	bltz	a0,1059c <__syscall_error>
   10694:	0005051b          	sext.w	a0,a0
   10698:	00008067          	ret

000000000001069c <access>:
   1069c:	00000613          	li	a2,0
   106a0:	00000693          	li	a3,0
   106a4:	40900893          	li	a7,1033
   106a8:	00000073          	ecall
   106ac:	ee0548e3          	bltz	a0,1059c <__syscall_error>
   106b0:	0005051b          	sext.w	a0,a0
   106b4:	00008067          	ret

00000000000106b8 <faccessat>:
   106b8:	03000893          	li	a7,48
   106bc:	00000073          	ecall
   106c0:	ec054ee3          	bltz	a0,1059c <__syscall_error>
   106c4:	0005051b          	sext.w	a0,a0
   106c8:	00008067          	ret

00000000000106cc <close>:
   106cc:	00000593          	li	a1,0
   106d0:	00000613          	li	a2,0
   106d4:	00000693          	li	a3,0
   106d8:	03900893          	li	a7,57
   106dc:	00000073          	ecall
   106e0:	ea054ee3          	bltz	a0,1059c <__syscall_error>
   106e4:	0005051b          	sext.w	a0,a0
   106e8:	00008067          	ret

00000000000106ec <link>:
   106ec:	00000613          	li	a2,0
   106f0:	00000693          	li	a3,0
   106f4:	40100893          	li	a7,1025
   106f8:	00000073          	ecall
   106fc:	ea0540e3          	bltz	a0,1059c <__syscall_error>
   10700:	0005051b          	sext.w	a0,a0
   10704:	00008067          	ret

0000000000010708 <unlink>:
   10708:	00000593          	li	a1,0
   1070c:	00000613          	li	a2,0
   10710:	00000693          	li	a3,0
   10714:	40200893          	li	a7,1026
   10718:	00000073          	ecall
   1071c:	e80540e3          	bltz	a0,1059c <__syscall_error>
   10720:	0005051b          	sext.w	a0,a0
   10724:	00008067          	ret

0000000000010728 <execve>:
   10728:	ff010113          	addi	sp,sp,-16
   1072c:	00113423          	sd	ra,8(sp)
   10730:	23c000ef          	jal	1096c <__errno>
   10734:	00813083          	ld	ra,8(sp)
   10738:	00c00793          	li	a5,12
   1073c:	00f52023          	sw	a5,0(a0)
   10740:	01010113          	addi	sp,sp,16
   10744:	fff00513          	li	a0,-1
   10748:	00008067          	ret

000000000001074c <fork>:
   1074c:	ff010113          	addi	sp,sp,-16
   10750:	00113423          	sd	ra,8(sp)
   10754:	218000ef          	jal	1096c <__errno>
   10758:	00813083          	ld	ra,8(sp)
   1075c:	00b00793          	li	a5,11
   10760:	00f52023          	sw	a5,0(a0)
   10764:	01010113          	addi	sp,sp,16
   10768:	fff00513          	li	a0,-1
   1076c:	00008067          	ret

0000000000010770 <getpid>:
   10770:	00100513          	li	a0,1
   10774:	00008067          	ret

0000000000010778 <kill>:
   10778:	ff010113          	addi	sp,sp,-16
   1077c:	00113423          	sd	ra,8(sp)
   10780:	1ec000ef          	jal	1096c <__errno>
   10784:	00813083          	ld	ra,8(sp)
   10788:	01600793          	li	a5,22
   1078c:	00f52023          	sw	a5,0(a0)
   10790:	01010113          	addi	sp,sp,16
   10794:	fff00513          	li	a0,-1
   10798:	00008067          	ret

000000000001079c <wait>:
   1079c:	ff010113          	addi	sp,sp,-16
   107a0:	00113423          	sd	ra,8(sp)
   107a4:	1c8000ef          	jal	1096c <__errno>
   107a8:	00813083          	ld	ra,8(sp)
   107ac:	00a00793          	li	a5,10
   107b0:	00f52023          	sw	a5,0(a0)
   107b4:	01010113          	addi	sp,sp,16
   107b8:	fff00513          	li	a0,-1
   107bc:	00008067          	ret

00000000000107c0 <isatty>:
   107c0:	f8010113          	addi	sp,sp,-128
   107c4:	00010593          	mv	a1,sp
   107c8:	00000613          	li	a2,0
   107cc:	00000693          	li	a3,0
   107d0:	05000893          	li	a7,80
   107d4:	00000073          	ecall
   107d8:	dc0542e3          	bltz	a0,1059c <__syscall_error>
   107dc:	fff00793          	li	a5,-1
   107e0:	0005051b          	sext.w	a0,a0
   107e4:	00f50863          	beq	a0,a5,107f4 <isatty+0x34>
   107e8:	01012503          	lw	a0,16(sp)
   107ec:	40d5551b          	sraiw	a0,a0,0xd
   107f0:	00157513          	andi	a0,a0,1
   107f4:	08010113          	addi	sp,sp,128
   107f8:	00008067          	ret

00000000000107fc <times>:
   107fc:	85818313          	addi	t1,gp,-1960 # 11578 <t0.2343>
   10800:	00033703          	ld	a4,0(t1)
   10804:	ff010113          	addi	sp,sp,-16
   10808:	00050813          	mv	a6,a0
   1080c:	02071063          	bnez	a4,1082c <times+0x30>
   10810:	85818513          	addi	a0,gp,-1960 # 11578 <t0.2343>
   10814:	00000593          	li	a1,0
   10818:	00000613          	li	a2,0
   1081c:	00000693          	li	a3,0
   10820:	0a900893          	li	a7,169
   10824:	00000073          	ecall
   10828:	d6054ae3          	bltz	a0,1059c <__syscall_error>
   1082c:	00010513          	mv	a0,sp
   10830:	00000593          	li	a1,0
   10834:	00000613          	li	a2,0
   10838:	00000693          	li	a3,0
   1083c:	0a900893          	li	a7,169
   10840:	00000073          	ecall
   10844:	d4054ce3          	bltz	a0,1059c <__syscall_error>
   10848:	00033703          	ld	a4,0(t1)
   1084c:	00013783          	ld	a5,0(sp)
   10850:	fff00513          	li	a0,-1
   10854:	00083823          	sd	zero,16(a6)
   10858:	40e786b3          	sub	a3,a5,a4
   1085c:	000f47b7          	lui	a5,0xf4
   10860:	24078793          	addi	a5,a5,576 # f4240 <_gp+0xe2520>
   10864:	02f68733          	mul	a4,a3,a5
   10868:	00833683          	ld	a3,8(t1)
   1086c:	00813783          	ld	a5,8(sp)
   10870:	00083c23          	sd	zero,24(a6)
   10874:	00083423          	sd	zero,8(a6)
   10878:	40d787b3          	sub	a5,a5,a3
   1087c:	01010113          	addi	sp,sp,16
   10880:	00f707b3          	add	a5,a4,a5
   10884:	00f83023          	sd	a5,0(a6)
   10888:	00008067          	ret

000000000001088c <gettimeofday>:
   1088c:	00000593          	li	a1,0
   10890:	00000613          	li	a2,0
   10894:	00000693          	li	a3,0
   10898:	0a900893          	li	a7,169
   1089c:	00000073          	ecall
   108a0:	ce054ee3          	bltz	a0,1059c <__syscall_error>
   108a4:	0005051b          	sext.w	a0,a0
   108a8:	00008067          	ret

00000000000108ac <ftime>:
   108ac:	00051423          	sh	zero,8(a0)
   108b0:	00053023          	sd	zero,0(a0)
   108b4:	00000513          	li	a0,0
   108b8:	00008067          	ret

00000000000108bc <utime>:
   108bc:	fff00513          	li	a0,-1
   108c0:	00008067          	ret

00000000000108c4 <chown>:
   108c4:	fff00513          	li	a0,-1
   108c8:	00008067          	ret

00000000000108cc <chmod>:
   108cc:	fff00513          	li	a0,-1
   108d0:	00008067          	ret

00000000000108d4 <chdir>:
   108d4:	fff00513          	li	a0,-1
   108d8:	00008067          	ret

00000000000108dc <getcwd>:
   108dc:	00000513          	li	a0,0
   108e0:	00008067          	ret

00000000000108e4 <sysconf>:
   108e4:	00200793          	li	a5,2
   108e8:	00f51863          	bne	a0,a5,108f8 <sysconf+0x14>
   108ec:	000f4537          	lui	a0,0xf4
   108f0:	24050513          	addi	a0,a0,576 # f4240 <_gp+0xe2520>
   108f4:	00008067          	ret
   108f8:	fff00513          	li	a0,-1
   108fc:	00008067          	ret

0000000000010900 <sbrk>:
   10900:	8181b703          	ld	a4,-2024(gp) # 11538 <_fbss>
   10904:	00050793          	mv	a5,a0
   10908:	00071663          	bnez	a4,10914 <sbrk+0x14>
   1090c:	87018713          	addi	a4,gp,-1936 # 11590 <_end>
   10910:	80e1bc23          	sd	a4,-2024(gp) # 11538 <_fbss>
   10914:	00e78533          	add	a0,a5,a4
   10918:	00000593          	li	a1,0
   1091c:	00000613          	li	a2,0
   10920:	00000693          	li	a3,0
   10924:	0d600893          	li	a7,214
   10928:	00000073          	ecall
   1092c:	c60548e3          	bltz	a0,1059c <__syscall_error>
   10930:	8181b683          	ld	a3,-2024(gp) # 11538 <_fbss>
   10934:	fff00713          	li	a4,-1
   10938:	00d787b3          	add	a5,a5,a3
   1093c:	00f51663          	bne	a0,a5,10948 <sbrk+0x48>
   10940:	80a1bc23          	sd	a0,-2024(gp) # 11538 <_fbss>
   10944:	00068713          	mv	a4,a3
   10948:	00070513          	mv	a0,a4
   1094c:	00008067          	ret

0000000000010950 <_exit>:
   10950:	00000593          	li	a1,0
   10954:	00000613          	li	a2,0
   10958:	00000693          	li	a3,0
   1095c:	05d00893          	li	a7,93
   10960:	00000073          	ecall
   10964:	c2054ce3          	bltz	a0,1059c <__syscall_error>
   10968:	0000006f          	j	10968 <_exit+0x18>

000000000001096c <__errno>:
   1096c:	8101b503          	ld	a0,-2032(gp) # 11530 <_impure_ptr>
   10970:	00008067          	ret

Disassembly of section .rodata:

0000000000010978 <_etext-0x8>:
   10978:	00000043          	fmadd.s	ft0,ft0,ft0,ft0,rne
   1097c:	0000                	unimp
	...

Disassembly of section .init_array:

0000000000010980 <__frame_dummy_init_array_entry>:
   10980:	010c                	addi	a1,sp,128
   10982:	0001                	nop
   10984:	0000                	unimp
	...

Disassembly of section .fini_array:

0000000000010988 <__do_global_dtors_aux_fini_array_entry>:
   10988:	00c0                	addi	s0,sp,68
   1098a:	0001                	nop
   1098c:	0000                	unimp
	...

Disassembly of section .eh_frame:

0000000000010990 <__EH_FRAME_BEGIN__>:
	...
   10998:	0014                	addi	a3,sp,0
   1099a:	0000                	unimp
   1099c:	0000                	unimp
   1099e:	0000                	unimp
   109a0:	7a01                	lui	s4,0xfffe0
   109a2:	0052                	0x52
   109a4:	0801                	addi	a6,a6,0
   109a6:	0101                	addi	sp,sp,0
   109a8:	00020d1b          	sext.w	s10,tp
   109ac:	0000                	unimp
   109ae:	0000                	unimp
   109b0:	0014                	addi	a3,sp,0
   109b2:	0000                	unimp
   109b4:	001c                	addi	a5,sp,0
   109b6:	0000                	unimp
   109b8:	f7fc                	sd	a5,232(a5)
   109ba:	ffff                	0xffff
   109bc:	0014                	addi	a3,sp,0
	...
   109c6:	0000                	unimp
   109c8:	001c                	addi	a5,sp,0
   109ca:	0000                	unimp
   109cc:	0034                	addi	a3,sp,8
   109ce:	0000                	unimp
   109d0:	f7f8                	sd	a4,232(a5)
   109d2:	ffff                	0xffff
   109d4:	0030                	addi	a2,sp,8
   109d6:	0000                	unimp
   109d8:	4400                	lw	s0,8(s0)
   109da:	100e                	0x100e
   109dc:	114c                	addi	a1,sp,164
   109de:	7e08                	ld	a0,56(a2)
   109e0:	0111                	addi	sp,sp,4
   109e2:	007f                	0x7f
   109e4:	0000                	unimp
   109e6:	0000                	unimp
   109e8:	001c                	addi	a5,sp,0
   109ea:	0000                	unimp
   109ec:	0054                	addi	a3,sp,4
   109ee:	0000                	unimp
   109f0:	f808                	sd	a0,48(s0)
   109f2:	ffff                	0xffff
   109f4:	005c                	addi	a5,sp,4
   109f6:	0000                	unimp
   109f8:	4400                	lw	s0,8(s0)
   109fa:	200e                	fld	ft0,192(sp)
   109fc:	1148                	addi	a0,sp,164
   109fe:	7e08                	ld	a0,56(a2)
   10a00:	0911                	addi	s2,s2,4
   10a02:	5c7d                	li	s8,-1
   10a04:	0111                	addi	sp,sp,4
   10a06:	007f                	0x7f
   10a08:	0024                	addi	s1,sp,8
   10a0a:	0000                	unimp
   10a0c:	0074                	addi	a3,sp,12
   10a0e:	0000                	unimp
   10a10:	f844                	sd	s1,176(s0)
   10a12:	ffff                	0xffff
   10a14:	00a0                	addi	s0,sp,72
   10a16:	0000                	unimp
   10a18:	4400                	lw	s0,8(s0)
   10a1a:	200e                	fld	ft0,192(sp)
   10a1c:	1148                	addi	a0,sp,164
   10a1e:	7e08                	ld	a0,56(a2)
   10a20:	114c                	addi	a1,sp,164
   10a22:	7c12                	ld	s8,288(sp)
   10a24:	1150                	addi	a2,sp,164
   10a26:	7d09                	lui	s10,0xfffe2
   10a28:	0111                	addi	sp,sp,4
   10a2a:	007f                	0x7f
   10a2c:	0000                	unimp
   10a2e:	0000                	unimp
   10a30:	002c                	addi	a1,sp,8
   10a32:	0000                	unimp
   10a34:	009c                	addi	a5,sp,64
   10a36:	0000                	unimp
   10a38:	f8bc                	sd	a5,112(s1)
   10a3a:	ffff                	0xffff
   10a3c:	0114                	addi	a3,sp,128
   10a3e:	0000                	unimp
   10a40:	4400                	lw	s0,8(s0)
   10a42:	300e                	fld	ft0,224(sp)
   10a44:	1148                	addi	a0,sp,164
   10a46:	7e08                	ld	a0,56(a2)
   10a48:	1148                	addi	a0,sp,164
   10a4a:	7d09                	lui	s10,0xfffe2
   10a4c:	1158                	addi	a4,sp,164
   10a4e:	7c12                	ld	s8,288(sp)
   10a50:	1311                	addi	t1,t1,-28
   10a52:	7a14117b          	0x7a14117b
   10a56:	0111                	addi	sp,sp,4
   10a58:	007f                	0x7f
   10a5a:	0000                	unimp
   10a5c:	0000                	unimp
   10a5e:	0000                	unimp
   10a60:	003c                	addi	a5,sp,8
   10a62:	0000                	unimp
   10a64:	00cc                	addi	a1,sp,68
   10a66:	0000                	unimp
   10a68:	f9a0                	sd	s0,112(a1)
   10a6a:	ffff                	0xffff
   10a6c:	0194                	addi	a3,sp,192
   10a6e:	0000                	unimp
   10a70:	4400                	lw	s0,8(s0)
   10a72:	600e                	0x600e
   10a74:	1148                	addi	a0,sp,164
   10a76:	7a14                	ld	a3,48(a2)
   10a78:	1148                	addi	a0,sp,164
   10a7a:	116c7b13          	andi	s6,s8,278
   10a7e:	7d09                	lui	s10,0xfffe2
   10a80:	1211                	addi	tp,tp,-28
   10a82:	117c                	addi	a5,sp,172
   10a84:	7915                	lui	s2,0xfffe5
   10a86:	1711                	addi	a4,a4,-28
   10a88:	76181177          	0x76181177
   10a8c:	0111                	addi	sp,sp,4
   10a8e:	117f                	0x117f
   10a90:	7e08                	ld	a0,56(a2)
   10a92:	1611                	addi	a2,a2,-28
   10a94:	1178                	addi	a4,sp,172
   10a96:	7519                	lui	a0,0xfffe6
   10a98:	1a11                	addi	s4,s4,-28
   10a9a:	0074                	addi	a3,sp,12
   10a9c:	0000                	unimp
   10a9e:	0000                	unimp
   10aa0:	001c                	addi	a5,sp,0
   10aa2:	0000                	unimp
   10aa4:	010c                	addi	a1,sp,128
   10aa6:	0000                	unimp
   10aa8:	faf4                	sd	a3,240(a3)
   10aaa:	ffff                	0xffff
   10aac:	0030                	addi	a2,sp,8
   10aae:	0000                	unimp
   10ab0:	4400                	lw	s0,8(s0)
   10ab2:	100e                	0x100e
   10ab4:	1148                	addi	a0,sp,164
   10ab6:	7f01                	lui	t5,0xfffe0
   10ab8:	0811                	addi	a6,a6,4
   10aba:	007e                	0x7e
   10abc:	0000                	unimp
   10abe:	0000                	unimp
   10ac0:	0014                	addi	a3,sp,0
   10ac2:	0000                	unimp
   10ac4:	012c                	addi	a1,sp,136
   10ac6:	0000                	unimp
   10ac8:	fb04                	sd	s1,48(a4)
   10aca:	ffff                	0xffff
   10acc:	0018                	addi	a4,sp,0
	...
   10ad6:	0000                	unimp
   10ad8:	0014                	addi	a3,sp,0
   10ada:	0000                	unimp
   10adc:	0144                	addi	s1,sp,132
   10ade:	0000                	unimp
   10ae0:	fb04                	sd	s1,48(a4)
   10ae2:	ffff                	0xffff
   10ae4:	0014                	addi	a3,sp,0
	...
   10aee:	0000                	unimp
   10af0:	0014                	addi	a3,sp,0
   10af2:	0000                	unimp
   10af4:	015c                	addi	a5,sp,132
   10af6:	0000                	unimp
   10af8:	fb00                	sd	s0,48(a4)
   10afa:	ffff                	0xffff
   10afc:	0014                	addi	a3,sp,0
	...
   10b06:	0000                	unimp
   10b08:	0014                	addi	a3,sp,0
   10b0a:	0000                	unimp
   10b0c:	0174                	addi	a3,sp,140
   10b0e:	0000                	unimp
   10b10:	fafc                	sd	a5,240(a3)
   10b12:	ffff                	0xffff
   10b14:	0014                	addi	a3,sp,0
	...
   10b1e:	0000                	unimp
   10b20:	0014                	addi	a3,sp,0
   10b22:	0000                	unimp
   10b24:	018c                	addi	a1,sp,192
   10b26:	0000                	unimp
   10b28:	faf8                	sd	a4,240(a3)
   10b2a:	ffff                	0xffff
   10b2c:	0014                	addi	a3,sp,0
	...
   10b36:	0000                	unimp
   10b38:	0014                	addi	a3,sp,0
   10b3a:	0000                	unimp
   10b3c:	01a4                	addi	s1,sp,200
   10b3e:	0000                	unimp
   10b40:	faf4                	sd	a3,240(a3)
   10b42:	ffff                	0xffff
   10b44:	001c                	addi	a5,sp,0
	...
   10b4e:	0000                	unimp
   10b50:	0014                	addi	a3,sp,0
   10b52:	0000                	unimp
   10b54:	01bc                	addi	a5,sp,200
   10b56:	0000                	unimp
   10b58:	faf8                	sd	a4,240(a3)
   10b5a:	ffff                	0xffff
   10b5c:	001c                	addi	a5,sp,0
	...
   10b66:	0000                	unimp
   10b68:	0014                	addi	a3,sp,0
   10b6a:	0000                	unimp
   10b6c:	01d4                	addi	a3,sp,196
   10b6e:	0000                	unimp
   10b70:	fafc                	sd	a5,240(a3)
   10b72:	ffff                	0xffff
   10b74:	001c                	addi	a5,sp,0
	...
   10b7e:	0000                	unimp
   10b80:	0014                	addi	a3,sp,0
   10b82:	0000                	unimp
   10b84:	01ec                	addi	a1,sp,204
   10b86:	0000                	unimp
   10b88:	fb00                	sd	s0,48(a4)
   10b8a:	ffff                	0xffff
   10b8c:	0014                	addi	a3,sp,0
	...
   10b96:	0000                	unimp
   10b98:	0014                	addi	a3,sp,0
   10b9a:	0000                	unimp
   10b9c:	0204                	addi	s1,sp,256
   10b9e:	0000                	unimp
   10ba0:	fafc                	sd	a5,240(a3)
   10ba2:	ffff                	0xffff
   10ba4:	001c                	addi	a5,sp,0
	...
   10bae:	0000                	unimp
   10bb0:	0014                	addi	a3,sp,0
   10bb2:	0000                	unimp
   10bb4:	021c                	addi	a5,sp,256
   10bb6:	0000                	unimp
   10bb8:	fb00                	sd	s0,48(a4)
   10bba:	ffff                	0xffff
   10bbc:	0014                	addi	a3,sp,0
	...
   10bc6:	0000                	unimp
   10bc8:	0014                	addi	a3,sp,0
   10bca:	0000                	unimp
   10bcc:	0234                	addi	a3,sp,264
   10bce:	0000                	unimp
   10bd0:	fafc                	sd	a5,240(a3)
   10bd2:	ffff                	0xffff
   10bd4:	0020                	addi	s0,sp,8
	...
   10bde:	0000                	unimp
   10be0:	0014                	addi	a3,sp,0
   10be2:	0000                	unimp
   10be4:	024c                	addi	a1,sp,260
   10be6:	0000                	unimp
   10be8:	fb04                	sd	s1,48(a4)
   10bea:	ffff                	0xffff
   10bec:	001c                	addi	a5,sp,0
	...
   10bf6:	0000                	unimp
   10bf8:	0014                	addi	a3,sp,0
   10bfa:	0000                	unimp
   10bfc:	0264                	addi	s1,sp,268
   10bfe:	0000                	unimp
   10c00:	fb08                	sd	a0,48(a4)
   10c02:	ffff                	0xffff
   10c04:	0020                	addi	s0,sp,8
	...
   10c0e:	0000                	unimp
   10c10:	0014                	addi	a3,sp,0
   10c12:	0000                	unimp
   10c14:	027c                	addi	a5,sp,268
   10c16:	0000                	unimp
   10c18:	fb10                	sd	a2,48(a4)
   10c1a:	ffff                	0xffff
   10c1c:	0024                	addi	s1,sp,8
   10c1e:	0000                	unimp
   10c20:	4400                	lw	s0,8(s0)
   10c22:	100e                	0x100e
   10c24:	1144                	addi	s1,sp,164
   10c26:	7f01                	lui	t5,0xfffe0
   10c28:	0014                	addi	a3,sp,0
   10c2a:	0000                	unimp
   10c2c:	0294                	addi	a3,sp,320
   10c2e:	0000                	unimp
   10c30:	fb1c                	sd	a5,48(a4)
   10c32:	ffff                	0xffff
   10c34:	0024                	addi	s1,sp,8
   10c36:	0000                	unimp
   10c38:	4400                	lw	s0,8(s0)
   10c3a:	100e                	0x100e
   10c3c:	1144                	addi	s1,sp,164
   10c3e:	7f01                	lui	t5,0xfffe0
   10c40:	0014                	addi	a3,sp,0
   10c42:	0000                	unimp
   10c44:	02ac                	addi	a1,sp,328
   10c46:	0000                	unimp
   10c48:	fb28                	sd	a0,112(a4)
   10c4a:	ffff                	0xffff
   10c4c:	0008                	addi	a0,sp,0
	...
   10c56:	0000                	unimp
   10c58:	0014                	addi	a3,sp,0
   10c5a:	0000                	unimp
   10c5c:	02c4                	addi	s1,sp,324
   10c5e:	0000                	unimp
   10c60:	fb18                	sd	a4,48(a4)
   10c62:	ffff                	0xffff
   10c64:	0024                	addi	s1,sp,8
   10c66:	0000                	unimp
   10c68:	4400                	lw	s0,8(s0)
   10c6a:	100e                	0x100e
   10c6c:	1144                	addi	s1,sp,164
   10c6e:	7f01                	lui	t5,0xfffe0
   10c70:	0014                	addi	a3,sp,0
   10c72:	0000                	unimp
   10c74:	02dc                	addi	a5,sp,324
   10c76:	0000                	unimp
   10c78:	fb24                	sd	s1,112(a4)
   10c7a:	ffff                	0xffff
   10c7c:	0024                	addi	s1,sp,8
   10c7e:	0000                	unimp
   10c80:	4400                	lw	s0,8(s0)
   10c82:	100e                	0x100e
   10c84:	1144                	addi	s1,sp,164
   10c86:	7f01                	lui	t5,0xfffe0
   10c88:	0014                	addi	a3,sp,0
   10c8a:	0000                	unimp
   10c8c:	02f4                	addi	a3,sp,332
   10c8e:	0000                	unimp
   10c90:	fb30                	sd	a2,112(a4)
   10c92:	ffff                	0xffff
   10c94:	003c                	addi	a5,sp,8
   10c96:	0000                	unimp
   10c98:	4400                	lw	s0,8(s0)
   10c9a:	800e                	0x800e
   10c9c:	0001                	nop
   10c9e:	0000                	unimp
   10ca0:	0014                	addi	a3,sp,0
   10ca2:	0000                	unimp
   10ca4:	030c                	addi	a1,sp,384
   10ca6:	0000                	unimp
   10ca8:	fb54                	sd	a3,176(a4)
   10caa:	ffff                	0xffff
   10cac:	0090                	addi	a2,sp,64
   10cae:	0000                	unimp
   10cb0:	5000                	lw	s0,32(s0)
   10cb2:	100e                	0x100e
   10cb4:	0000                	unimp
   10cb6:	0000                	unimp
   10cb8:	0014                	addi	a3,sp,0
   10cba:	0000                	unimp
   10cbc:	0324                	addi	s1,sp,392
   10cbe:	0000                	unimp
   10cc0:	fbcc                	sd	a1,176(a5)
   10cc2:	ffff                	0xffff
   10cc4:	0020                	addi	s0,sp,8
	...
   10cce:	0000                	unimp
   10cd0:	0014                	addi	a3,sp,0
   10cd2:	0000                	unimp
   10cd4:	033c                	addi	a5,sp,392
   10cd6:	0000                	unimp
   10cd8:	fbd4                	sd	a3,176(a5)
   10cda:	ffff                	0xffff
   10cdc:	0010                	addi	a2,sp,0
	...
   10ce6:	0000                	unimp
   10ce8:	0014                	addi	a3,sp,0
   10cea:	0000                	unimp
   10cec:	0354                	addi	a3,sp,388
   10cee:	0000                	unimp
   10cf0:	fbcc                	sd	a1,176(a5)
   10cf2:	ffff                	0xffff
   10cf4:	0008                	addi	a0,sp,0
	...
   10cfe:	0000                	unimp
   10d00:	0014                	addi	a3,sp,0
   10d02:	0000                	unimp
   10d04:	036c                	addi	a1,sp,396
   10d06:	0000                	unimp
   10d08:	fbbc                	sd	a5,112(a5)
   10d0a:	ffff                	0xffff
   10d0c:	0008                	addi	a0,sp,0
	...
   10d16:	0000                	unimp
   10d18:	0014                	addi	a3,sp,0
   10d1a:	0000                	unimp
   10d1c:	0384                	addi	s1,sp,448
   10d1e:	0000                	unimp
   10d20:	fbac                	sd	a1,112(a5)
   10d22:	ffff                	0xffff
   10d24:	0008                	addi	a0,sp,0
	...
   10d2e:	0000                	unimp
   10d30:	0014                	addi	a3,sp,0
   10d32:	0000                	unimp
   10d34:	039c                	addi	a5,sp,448
   10d36:	0000                	unimp
   10d38:	fb9c                	sd	a5,48(a5)
   10d3a:	ffff                	0xffff
   10d3c:	0008                	addi	a0,sp,0
	...
   10d46:	0000                	unimp
   10d48:	0014                	addi	a3,sp,0
   10d4a:	0000                	unimp
   10d4c:	03b4                	addi	a3,sp,456
   10d4e:	0000                	unimp
   10d50:	fb8c                	sd	a1,48(a5)
   10d52:	ffff                	0xffff
   10d54:	0008                	addi	a0,sp,0
	...
   10d5e:	0000                	unimp
   10d60:	0014                	addi	a3,sp,0
   10d62:	0000                	unimp
   10d64:	03cc                	addi	a1,sp,452
   10d66:	0000                	unimp
   10d68:	fb7c                	sd	a5,240(a4)
   10d6a:	ffff                	0xffff
   10d6c:	001c                	addi	a5,sp,0
	...
   10d76:	0000                	unimp
   10d78:	0014                	addi	a3,sp,0
   10d7a:	0000                	unimp
   10d7c:	03e4                	addi	s1,sp,460
   10d7e:	0000                	unimp
   10d80:	fb80                	sd	s0,48(a5)
   10d82:	ffff                	0xffff
   10d84:	0050                	addi	a2,sp,4
	...
   10d8e:	0000                	unimp
   10d90:	0014                	addi	a3,sp,0
   10d92:	0000                	unimp
   10d94:	03fc                	addi	a5,sp,460
   10d96:	0000                	unimp
   10d98:	fbb8                	sd	a4,112(a5)
   10d9a:	ffff                	0xffff
   10d9c:	001c                	addi	a5,sp,0
	...
   10da6:	0000                	unimp
   10da8:	0014                	addi	a3,sp,0
   10daa:	0000                	unimp
   10dac:	0414                	addi	a3,sp,512
   10dae:	0000                	unimp
   10db0:	fbbc                	sd	a5,112(a5)
   10db2:	ffff                	0xffff
   10db4:	0008                	addi	a0,sp,0
	...

Disassembly of section .jcr:

0000000000010dc0 <__JCR_END__>:
	...

Disassembly of section .data:

0000000000010dd0 <_fdata>:
	...
   10dd8:	1308                	addi	a0,sp,416
   10dda:	0001                	nop
   10ddc:	0000                	unimp
   10dde:	0000                	unimp
   10de0:	13b8                	addi	a4,sp,488
   10de2:	0001                	nop
   10de4:	0000                	unimp
   10de6:	0000                	unimp
   10de8:	1468                	addi	a0,sp,556
   10dea:	0001                	nop
	...
   10e18:	0978                	addi	a4,sp,156
   10e1a:	0001                	nop
	...
   10eb8:	0001                	nop
   10eba:	0000                	unimp
   10ebc:	0000                	unimp
   10ebe:	0000                	unimp
   10ec0:	330e                	fld	ft6,224(sp)
   10ec2:	abcd                	j	114b4 <_fdata+0x6e4>
   10ec4:	1234                	addi	a3,sp,296
   10ec6:	e66d                	bnez	a2,10fb0 <_fdata+0x1e0>
   10ec8:	deec                	sw	a1,124(a3)
   10eca:	0005                	0x5
   10ecc:	0000000b          	custom0	0,0,0,0
	...

Disassembly of section .sdata:

0000000000011520 <__dso_handle>:
	...

0000000000011528 <_global_impure_ptr>:
   11528:	0dd0                	addi	a2,sp,724
   1152a:	0001                	nop
   1152c:	0000                	unimp
	...

0000000000011530 <_impure_ptr>:
   11530:	0dd0                	addi	a2,sp,724
   11532:	0001                	nop
   11534:	0000                	unimp
	...

Disassembly of section .sbss:

0000000000011538 <_fbss>:
	...

Disassembly of section .bss:

0000000000011540 <_bss_start>:
	...

0000000000011548 <object.3092>:
	...

0000000000011578 <t0.2343>:
	...

0000000000011588 <add>:
   11588:	0000                	unimp
	...

000000000001158c <sub>:
   1158c:	0000                	unimp
	...

Disassembly of section .comment:

0000000000000000 <.comment>:
   0:	3a434347          	fmsub.d	ft6,ft6,ft4,ft7,rmm
   4:	2820                	fld	fs0,80(s0)
   6:	29554e47          	fmsub.s	ft8,fa0,fs5,ft5,rmm
   a:	3520                	fld	fs0,104(a0)
   c:	332e                	fld	ft6,232(sp)
   e:	302e                	fld	ft0,232(sp)
	...

Disassembly of section .debug_info:

0000000000000000 <.debug_info>:
       0:	010a                	slli	sp,sp,0x2
       2:	0000                	unimp
       4:	0004                	addi	s1,sp,0
       6:	0000                	unimp
       8:	0000                	unimp
       a:	0108                	addi	a0,sp,128
       c:	0100                	addi	s0,sp,128
       e:	0000                	unimp
      10:	300c                	fld	fa1,32(s0)
      12:	0000                	unimp
      14:	b400                	fsd	fs0,40(s0)
      16:	0101                	addi	sp,sp,0
      18:	0000                	unimp
      1a:	0000                	unimp
      1c:	1400                	addi	s0,sp,544
	...
      26:	0000                	unimp
      28:	0200                	addi	s0,sp,256
      2a:	0708                	addi	a0,sp,896
      2c:	0095                	addi	ra,ra,5
      2e:	0000                	unimp
      30:	69050403          	lb	s0,1680(a0) # fffffffffffe6690 <_gp+0xfffffffffffd4970>
      34:	746e                	ld	s0,248(sp)
      36:	0200                	addi	s0,sp,256
      38:	0508                	addi	a0,sp,640
      3a:	0005                	0x5
      3c:	0000                	unimp
      3e:	0802                	slli	a6,a6,0x0
      40:	0005                	0x5
      42:	0000                	unimp
      44:	0200                	addi	s0,sp,256
      46:	0408                	addi	a0,sp,512
      48:	00ea                	slli	ra,ra,0x1a
      4a:	0000                	unimp
      4c:	0102                	slli	sp,sp,0x0
      4e:	b206                	fsd	ft1,288(sp)
      50:	0000                	unimp
      52:	0200                	addi	s0,sp,256
      54:	0801                	addi	a6,a6,0
      56:	00b0                	addi	a2,sp,72
      58:	0000                	unimp
      5a:	0202                	slli	tp,tp,0x0
      5c:	f605                	bnez	a2,ffffffffffffff84 <_gp+0xfffffffffffee264>
      5e:	0000                	unimp
      60:	0200                	addi	s0,sp,256
      62:	0702                	slli	a4,a4,0x0
      64:	000e                	0xe
      66:	0000                	unimp
      68:	0402                	slli	s0,s0,0x0
      6a:	00009a07          	0x9a07
      6e:	0200                	addi	s0,sp,256
      70:	0708                	addi	a0,sp,896
      72:	0090                	addi	a2,sp,64
      74:	0000                	unimp
      76:	0802                	slli	a6,a6,0x0
      78:	00012207          	flw	ft4,0(sp)
      7c:	0400                	addi	s0,sp,512
      7e:	8308                	0x8308
      80:	0000                	unimp
      82:	0500                	addi	s0,sp,640
      84:	0102                	slli	sp,sp,0x0
      86:	b908                	fsd	fa0,48(a0)
      88:	0000                	unimp
      8a:	0600                	addi	s0,sp,768
      8c:	0021                	0x21
      8e:	0000                	unimp
      90:	6804                	ld	s1,16(s0)
      92:	0000                	unimp
      94:	0200                	addi	s0,sp,256
      96:	ae05                	j	3c6 <_ftext-0xfc3a>
      98:	0000                	unimp
      9a:	0700                	addi	s0,sp,896
      9c:	00be                	slli	ra,ra,0xf
      9e:	0000                	unimp
      a0:	0700                	addi	s0,sp,896
      a2:	00de                	slli	ra,ra,0x17
      a4:	0000                	unimp
      a6:	0701                	addi	a4,a4,0
      a8:	000000a7          	0xa7
      ac:	0002                	0x2
      ae:	c308                	sw	a0,0(a4)
      b0:	0000                	unimp
      b2:	0300                	addi	s0,sp,384
      b4:	3045                	0x3045
      b6:	0000                	unimp
      b8:	b400                	fsd	fs0,40(s0)
      ba:	0101                	addi	sp,sp,0
      bc:	0000                	unimp
      be:	0000                	unimp
      c0:	1400                	addi	s0,sp,544
      c2:	0000                	unimp
      c4:	0000                	unimp
      c6:	0000                	unimp
      c8:	0100                	addi	s0,sp,128
      ca:	029c                	addi	a5,sp,320
      cc:	0001                	nop
      ce:	0900                	addi	s0,sp,144
      d0:	6e66                	ld	t3,88(sp)
      d2:	0100                	addi	s0,sp,128
      d4:	7d3d                	lui	s10,0xfffef
      d6:	0000                	unimp
      d8:	0000                	unimp
      da:	0000                	unimp
      dc:	0a00                	addi	s0,sp,272
      de:	01c8                	addi	a0,sp,196
      e0:	0001                	nop
      e2:	0000                	unimp
      e4:	0000                	unimp
      e6:	0102                	slli	sp,sp,0x0
      e8:	0000                	unimp
      ea:	015a010b          	custom0	2,20,21,0
      ee:	0b30                	addi	a2,sp,408
      f0:	5b01                	li	s6,-32
      f2:	5a01f303          	0x5a01f303
      f6:	015c010b          	custom0	2,24,21,0
      fa:	0b30                	addi	a2,sp,408
      fc:	5d01                	li	s10,-32
      fe:	3001                	0x3001
     100:	0000                	unimp
     102:	ca0c                	sw	a1,16(a2)
     104:	0000                	unimp
     106:	ca00                	sw	s0,16(a2)
     108:	0000                	unimp
     10a:	0200                	addi	s0,sp,256
     10c:	000d                	0xd
     10e:	08fd                	addi	a7,a7,31
     110:	0000                	unimp
     112:	0004                	addi	s1,sp,0
     114:	00a8                	addi	a0,sp,72
     116:	0000                	unimp
     118:	0108                	addi	a0,sp,128
     11a:	0100                	addi	s0,sp,128
     11c:	0000                	unimp
     11e:	6a0c                	ld	a1,16(a2)
     120:	0001                	nop
     122:	c800                	sw	s0,16(s0)
     124:	0101                	addi	sp,sp,0
     126:	0000                	unimp
     128:	0000                	unimp
     12a:	3000                	fld	fs0,32(s0)
     12c:	0000                	unimp
     12e:	0000                	unimp
     130:	0000                	unimp
     132:	1700                	addi	s0,sp,928
     134:	0001                	nop
     136:	0200                	addi	s0,sp,256
     138:	0708                	addi	a0,sp,896
     13a:	0095                	addi	ra,ra,5
     13c:	0000                	unimp
     13e:	69050403          	lb	s0,1680(a0)
     142:	746e                	ld	s0,248(sp)
     144:	0200                	addi	s0,sp,256
     146:	0508                	addi	a0,sp,640
     148:	0005                	0x5
     14a:	0000                	unimp
     14c:	0802                	slli	a6,a6,0x0
     14e:	0005                	0x5
     150:	0000                	unimp
     152:	0200                	addi	s0,sp,256
     154:	0408                	addi	a0,sp,512
     156:	00ea                	slli	ra,ra,0x1a
     158:	0000                	unimp
     15a:	0102                	slli	sp,sp,0x0
     15c:	b206                	fsd	ft1,288(sp)
     15e:	0000                	unimp
     160:	0200                	addi	s0,sp,256
     162:	0801                	addi	a6,a6,0
     164:	00b0                	addi	a2,sp,72
     166:	0000                	unimp
     168:	0202                	slli	tp,tp,0x0
     16a:	f605                	bnez	a2,92 <_ftext-0xff6e>
     16c:	0000                	unimp
     16e:	0200                	addi	s0,sp,256
     170:	0702                	slli	a4,a4,0x0
     172:	000e                	0xe
     174:	0000                	unimp
     176:	0402                	slli	s0,s0,0x0
     178:	00009a07          	0x9a07
     17c:	0200                	addi	s0,sp,256
     17e:	0708                	addi	a0,sp,896
     180:	0090                	addi	a2,sp,64
     182:	0000                	unimp
     184:	6304                	ld	s1,0(a4)
     186:	02000003          	lb	zero,32(zero)
     18a:	3e10                	fld	fa2,56(a2)
     18c:	0000                	unimp
     18e:	0400                	addi	s0,sp,512
     190:	0446                	slli	s0,s0,0x11
     192:	0000                	unimp
     194:	1302                	slli	t1,t1,0x20
     196:	0000006f          	j	196 <_ftext-0xfe6a>
     19a:	d904                	sw	s1,48(a0)
     19c:	0004                	addi	s1,sp,0
     19e:	0200                	addi	s0,sp,256
     1a0:	371f 0000 0400      	0x4000000371f
     1a6:	0385                	addi	t2,t2,1
     1a8:	0000                	unimp
     1aa:	00300703          	lb	a4,3(zero)
     1ae:	0000                	unimp
     1b0:	1f05                	addi	t5,t5,-31
     1b2:	04000003          	lb	zero,64(zero)
     1b6:	0165                	addi	sp,sp,25
     1b8:	0068                	addi	a0,sp,12
     1ba:	0000                	unimp
     1bc:	0406                	slli	s0,s0,0x1
     1be:	4a05                	li	s4,1
     1c0:	00cd                	addi	ra,ra,19
     1c2:	0000                	unimp
     1c4:	00031907          	0x31907
     1c8:	0500                	addi	s0,sp,640
     1ca:	a24c                	fsd	fa1,128(a2)
     1cc:	0000                	unimp
     1ce:	0700                	addi	s0,sp,896
     1d0:	000002cb          	fnmsub.s	ft5,ft0,ft0,ft0,rne
     1d4:	4d05                	li	s10,1
     1d6:	00cd                	addi	ra,ra,19
     1d8:	0000                	unimp
     1da:	0800                	addi	s0,sp,16
     1dc:	00000053          	fadd.s	ft0,ft0,ft0,rne
     1e0:	00dd                	addi	ra,ra,23
     1e2:	0000                	unimp
     1e4:	dd09                	beqz	a0,fe <_ftext-0xff02>
     1e6:	0000                	unimp
     1e8:	0300                	addi	s0,sp,384
     1ea:	0200                	addi	s0,sp,256
     1ec:	0708                	addi	a0,sp,896
     1ee:	0122                	slli	sp,sp,0x8
     1f0:	0000                	unimp
     1f2:	080a                	slli	a6,a6,0x2
     1f4:	4705                	li	a4,1
     1f6:	0105                	addi	sp,sp,1
     1f8:	0000                	unimp
     1fa:	0004300b          	custom0	0,s0,zero,0
     1fe:	0500                	addi	s0,sp,640
     200:	3049                	0x3049
     202:	0000                	unimp
     204:	0000                	unimp
     206:	0004380b          	custom0	16,s0,zero,0
     20a:	0500                	addi	s0,sp,640
     20c:	ae4e                	fsd	fs3,280(sp)
     20e:	0000                	unimp
     210:	0400                	addi	s0,sp,512
     212:	0400                	addi	s0,sp,512
     214:	000003c3          	fmadd.s	ft7,ft0,ft0,ft0,rne
     218:	4f05                	li	t5,1
     21a:	00e4                	addi	s1,sp,76
     21c:	0000                	unimp
     21e:	8e04                	0x8e04
     220:	0002                	0x2
     222:	0500                	addi	s0,sp,640
     224:	00009753          	fadd.s	fa4,ft1,ft0,rtz
     228:	0c00                	addi	s0,sp,528
     22a:	0408                	addi	a0,sp,512
     22c:	0478                	addi	a4,sp,524
     22e:	0000                	unimp
     230:	1906                	slli	s2,s2,0x21
     232:	0068                	addi	a0,sp,12
     234:	0000                	unimp
     236:	9f0d                	subw	a4,a4,a1
     238:	0002                	0x2
     23a:	2000                	fld	fs0,0(s0)
     23c:	2d06                	fld	fs10,64(sp)
     23e:	0000017b          	custom3	2,0,0,0
     242:	0003e40b          	custom0	s0,t2,0,0
     246:	0600                	addi	s0,sp,768
     248:	00017b2f          	0x17b2f
     24c:	0000                	unimp
     24e:	5f0e                	lw	t5,224(sp)
     250:	3006006b          	0x3006006b
     254:	0030                	addi	a2,sp,8
     256:	0000                	unimp
     258:	0b08                	addi	a0,sp,400
     25a:	0000041b          	sext.w	s0,zero
     25e:	3006                	fld	ft0,96(sp)
     260:	0030                	addi	a2,sp,8
     262:	0000                	unimp
     264:	0b0c                	addi	a1,sp,400
     266:	0288                	addi	a0,sp,320
     268:	0000                	unimp
     26a:	3006                	fld	ft0,96(sp)
     26c:	0030                	addi	a2,sp,8
     26e:	0000                	unimp
     270:	0b10                	addi	a2,sp,400
     272:	04c4                	addi	s1,sp,580
     274:	0000                	unimp
     276:	3006                	fld	ft0,96(sp)
     278:	0030                	addi	a2,sp,8
     27a:	0000                	unimp
     27c:	0e14                	addi	a3,sp,784
     27e:	785f 0600 8131      	0x81310600785f
     284:	0001                	nop
     286:	1800                	addi	s0,sp,48
     288:	0f00                	addi	s0,sp,912
     28a:	2808                	fld	fa0,16(s0)
     28c:	0001                	nop
     28e:	0800                	addi	s0,sp,16
     290:	011d                	addi	sp,sp,7
     292:	0000                	unimp
     294:	0191                	addi	gp,gp,4
     296:	0000                	unimp
     298:	dd09                	beqz	a0,1b2 <_ftext-0xfe4e>
     29a:	0000                	unimp
     29c:	0000                	unimp
     29e:	0d00                	addi	s0,sp,656
     2a0:	02c6                	slli	t0,t0,0x11
     2a2:	0000                	unimp
     2a4:	0624                	addi	s1,sp,776
     2a6:	0a35                	addi	s4,s4,13
     2a8:	0002                	0x2
     2aa:	0b00                	addi	s0,sp,400
     2ac:	01ee                	slli	gp,gp,0x1b
     2ae:	0000                	unimp
     2b0:	3706                	fld	fa4,96(sp)
     2b2:	0030                	addi	a2,sp,8
     2b4:	0000                	unimp
     2b6:	0b00                	addi	s0,sp,400
     2b8:	044e                	slli	s0,s0,0x13
     2ba:	0000                	unimp
     2bc:	3806                	fld	fa6,96(sp)
     2be:	0030                	addi	a2,sp,8
     2c0:	0000                	unimp
     2c2:	0b04                	addi	s1,sp,400
     2c4:	0209                	addi	tp,tp,2
     2c6:	0000                	unimp
     2c8:	3906                	fld	fs2,96(sp)
     2ca:	0030                	addi	a2,sp,8
     2cc:	0000                	unimp
     2ce:	0b08                	addi	a0,sp,400
     2d0:	053d                	addi	a0,a0,15
     2d2:	0000                	unimp
     2d4:	3a06                	fld	fs4,96(sp)
     2d6:	0030                	addi	a2,sp,8
     2d8:	0000                	unimp
     2da:	0b0c                	addi	a1,sp,400
     2dc:	0000034f          	fnmadd.s	ft6,ft0,ft0,ft0,rne
     2e0:	3b06                	fld	fs6,96(sp)
     2e2:	0030                	addi	a2,sp,8
     2e4:	0000                	unimp
     2e6:	0b10                	addi	a2,sp,400
     2e8:	0335                	addi	t1,t1,13
     2ea:	0000                	unimp
     2ec:	3c06                	fld	fs8,96(sp)
     2ee:	0030                	addi	a2,sp,8
     2f0:	0000                	unimp
     2f2:	0b14                	addi	a3,sp,400
     2f4:	04c9                	addi	s1,s1,18
     2f6:	0000                	unimp
     2f8:	3d06                	fld	fs10,96(sp)
     2fa:	0030                	addi	a2,sp,8
     2fc:	0000                	unimp
     2fe:	0b18                	addi	a4,sp,400
     300:	03a5                	addi	t2,t2,9
     302:	0000                	unimp
     304:	3e06                	fld	ft8,96(sp)
     306:	0030                	addi	a2,sp,8
     308:	0000                	unimp
     30a:	0b1c                	addi	a5,sp,400
     30c:	0504                	addi	s1,sp,640
     30e:	0000                	unimp
     310:	3f06                	fld	ft10,96(sp)
     312:	0030                	addi	a2,sp,8
     314:	0000                	unimp
     316:	0020                	addi	s0,sp,8
     318:	1810                	addi	a2,sp,48
     31a:	0002                	0x2
     31c:	0800                	addi	s0,sp,16
     31e:	0602                	slli	a2,a2,0x0
     320:	4b48                	lw	a0,20(a4)
     322:	0002                	0x2
     324:	0b00                	addi	s0,sp,400
     326:	0000027b          	custom3	4,0,0,0
     32a:	4906                	lw	s2,64(sp)
     32c:	0000024b          	fnmsub.s	ft4,ft0,ft0,ft0,rne
     330:	1100                	addi	s0,sp,160
     332:	0000012b          	custom1	2,0,0,0
     336:	4a06                	lw	s4,64(sp)
     338:	0000024b          	fnmsub.s	ft4,ft0,ft0,ft0,rne
     33c:	0100                	addi	s0,sp,128
     33e:	6a11                	lui	s4,0x4
     340:	0004                	addi	s1,sp,0
     342:	0600                	addi	s0,sp,768
     344:	1d4c                	addi	a1,sp,692
     346:	0001                	nop
     348:	0000                	unimp
     34a:	1102                	slli	sp,sp,0x20
     34c:	023d                	addi	tp,tp,15
     34e:	0000                	unimp
     350:	4f06                	lw	t5,64(sp)
     352:	011d                	addi	sp,sp,7
     354:	0000                	unimp
     356:	0204                	addi	s1,sp,256
     358:	0800                	addi	s0,sp,16
     35a:	0000011b          	sext.w	sp,zero
     35e:	0000025b          	custom2	4,0,0,0
     362:	dd09                	beqz	a0,27c <_ftext-0xfd84>
     364:	0000                	unimp
     366:	1f00                	addi	s0,sp,944
     368:	1000                	addi	s0,sp,32
     36a:	00c2                	slli	ra,ra,0x10
     36c:	0000                	unimp
     36e:	0318                	addi	a4,sp,384
     370:	5b06                	lw	s6,96(sp)
     372:	029a                	slli	t0,t0,0x6
     374:	0000                	unimp
     376:	0003e40b          	custom0	s0,t2,0,0
     37a:	0600                	addi	s0,sp,768
     37c:	9a5c                	0x9a5c
     37e:	0002                	0x2
     380:	0000                	unimp
     382:	0003fc0b          	custom0	s8,t2,zero,0
     386:	0600                	addi	s0,sp,768
     388:	305d                	0x305d
     38a:	0000                	unimp
     38c:	0800                	addi	s0,sp,16
     38e:	0002830b          	custom0	6,5,0,0
     392:	0600                	addi	s0,sp,768
     394:	a05f 0002 1000      	0x10000002a05f
     39a:	1811                	addi	a6,a6,-28
     39c:	0002                	0x2
     39e:	0600                	addi	s0,sp,768
     3a0:	0a60                	addi	s0,sp,284
     3a2:	0002                	0x2
     3a4:	1000                	addi	s0,sp,32
     3a6:	0001                	nop
     3a8:	025b080f          	0x25b080f
     3ac:	0000                	unimp
     3ae:	b008                	fsd	fa0,32(s0)
     3b0:	0002                	0x2
     3b2:	b000                	fsd	fs0,32(s0)
     3b4:	0002                	0x2
     3b6:	0900                	addi	s0,sp,144
     3b8:	00dd                	addi	ra,ra,23
     3ba:	0000                	unimp
     3bc:	001f 080f 02b6      	0x2b6080f001f
     3c2:	0000                	unimp
     3c4:	0d12                	slli	s10,s10,0x4
     3c6:	000003af          	0x3af
     3ca:	0610                	addi	a2,sp,768
     3cc:	0002dc73          	csrrw	s8,0x0,5
     3d0:	0b00                	addi	s0,sp,400
     3d2:	00000203          	lb	tp,0(zero)
     3d6:	7406                	ld	s0,96(sp)
     3d8:	02dc                	addi	a5,sp,324
     3da:	0000                	unimp
     3dc:	0b00                	addi	s0,sp,400
     3de:	09a9                	addi	s3,s3,10
     3e0:	0000                	unimp
     3e2:	7506                	ld	a0,96(sp)
     3e4:	0030                	addi	a2,sp,8
     3e6:	0000                	unimp
     3e8:	0008                	addi	a0,sp,0
     3ea:	0053080f          	0x53080f
     3ee:	0000                	unimp
     3f0:	ce0d                	beqz	a2,42a <_ftext-0xfbd6>
     3f2:	b0000003          	lb	zero,-1280(zero)
     3f6:	b306                	fsd	ft1,416(sp)
     3f8:	040c                	addi	a1,sp,512
     3fa:	0000                	unimp
     3fc:	5f0e                	lw	t5,224(sp)
     3fe:	0070                	addi	a2,sp,12
     400:	b406                	fsd	ft1,40(sp)
     402:	02dc                	addi	a5,sp,324
     404:	0000                	unimp
     406:	0e00                	addi	s0,sp,784
     408:	725f 0600 30b5      	0x30b50600725f
     40e:	0000                	unimp
     410:	0800                	addi	s0,sp,16
     412:	5f0e                	lw	t5,224(sp)
     414:	b6060077          	0xb6060077
     418:	0030                	addi	a2,sp,8
     41a:	0000                	unimp
     41c:	0b0c                	addi	a1,sp,400
     41e:	0236                	slli	tp,tp,0xd
     420:	0000                	unimp
     422:	b706                	fsd	ft1,424(sp)
     424:	005a                	0x5a
     426:	0000                	unimp
     428:	0b10                	addi	a2,sp,400
     42a:	02e2                	slli	t0,t0,0x18
     42c:	0000                	unimp
     42e:	b806                	fsd	ft1,48(sp)
     430:	005a                	0x5a
     432:	0000                	unimp
     434:	0e12                	slli	t3,t3,0x4
     436:	625f 0066 b906      	0xb9060066625f
     43c:	000002b7          	lui	t0,0x0
     440:	0b18                	addi	a4,sp,400
     442:	01c8                	addi	a0,sp,196
     444:	0000                	unimp
     446:	ba06                	fsd	ft1,304(sp)
     448:	0030                	addi	a2,sp,8
     44a:	0000                	unimp
     44c:	0b28                	addi	a0,sp,408
     44e:	0226                	slli	tp,tp,0x9
     450:	0000                	unimp
     452:	c106                	sw	ra,128(sp)
     454:	0000011b          	sext.w	sp,zero
     458:	0b30                	addi	a2,sp,408
     45a:	02b6                	slli	t0,t0,0xd
     45c:	0000                	unimp
     45e:	c306                	sw	ra,132(sp)
     460:	0000056f          	jal	a0,460 <_ftext-0xfba0>
     464:	0b38                	addi	a4,sp,408
     466:	032e                	slli	t1,t1,0xb
     468:	0000                	unimp
     46a:	c506                	sw	ra,136(sp)
     46c:	059e                	slli	a1,a1,0x7
     46e:	0000                	unimp
     470:	0b40                	addi	s0,sp,404
     472:	0440                	addi	s0,sp,516
     474:	0000                	unimp
     476:	c806                	sw	ra,16(sp)
     478:	05c2                	slli	a1,a1,0x10
     47a:	0000                	unimp
     47c:	0b48                	addi	a0,sp,404
     47e:	051e                	slli	a0,a0,0x7
     480:	0000                	unimp
     482:	c906                	sw	ra,144(sp)
     484:	05dc                	addi	a5,sp,708
     486:	0000                	unimp
     488:	0e50                	addi	a2,sp,788
     48a:	755f 0062 cc06      	0xcc060062755f
     490:	000002b7          	lui	t0,0x0
     494:	0e58                	addi	a4,sp,788
     496:	755f 0070 cd06      	0xcd060070755f
     49c:	02dc                	addi	a5,sp,324
     49e:	0000                	unimp
     4a0:	0e68                	addi	a0,sp,796
     4a2:	755f 0072 ce06      	0xce060072755f
     4a8:	0030                	addi	a2,sp,8
     4aa:	0000                	unimp
     4ac:	0b70                	addi	a2,sp,412
     4ae:	01fd                	addi	gp,gp,31
     4b0:	0000                	unimp
     4b2:	d106                	sw	ra,160(sp)
     4b4:	05e2                	slli	a1,a1,0x18
     4b6:	0000                	unimp
     4b8:	0b74                	addi	a3,sp,412
     4ba:	04f6                	slli	s1,s1,0x1d
     4bc:	0000                	unimp
     4be:	d206                	sw	ra,36(sp)
     4c0:	05f2                	slli	a1,a1,0x1c
     4c2:	0000                	unimp
     4c4:	6c5f0e77          	0x6c5f0e77
     4c8:	0062                	0x62
     4ca:	d506                	sw	ra,168(sp)
     4cc:	000002b7          	lui	t0,0x0
     4d0:	0b78                	addi	a4,sp,412
     4d2:	0a1d                	addi	s4,s4,7
     4d4:	0000                	unimp
     4d6:	d806                	sw	ra,48(sp)
     4d8:	0030                	addi	a2,sp,8
     4da:	0000                	unimp
     4dc:	0b88                	addi	a0,sp,464
     4de:	0254                	addi	a3,sp,260
     4e0:	0000                	unimp
     4e2:	d906                	sw	ra,176(sp)
     4e4:	0076                	0x76
     4e6:	0000                	unimp
     4e8:	0b90                	addi	a2,sp,464
     4ea:	05e5                	addi	a1,a1,25
     4ec:	0000                	unimp
     4ee:	dc06                	sw	ra,56(sp)
     4f0:	042a                	slli	s0,s0,0xa
     4f2:	0000                	unimp
     4f4:	0b98                	addi	a4,sp,464
     4f6:	07f0                	addi	a2,sp,972
     4f8:	0000                	unimp
     4fa:	e006                	sd	ra,0(sp)
     4fc:	0110                	addi	a2,sp,128
     4fe:	0000                	unimp
     500:	0ba0                	addi	s0,sp,472
     502:	03d6                	slli	t2,t2,0x15
     504:	0000                	unimp
     506:	e206                	sd	ra,256(sp)
     508:	0105                	addi	sp,sp,1
     50a:	0000                	unimp
     50c:	0ba4                	addi	s1,sp,472
     50e:	0326                	slli	t1,t1,0x9
     510:	0000                	unimp
     512:	e306                	sd	ra,384(sp)
     514:	0030                	addi	a2,sp,8
     516:	0000                	unimp
     518:	00ac                	addi	a1,sp,72
     51a:	00008c13          	mv	s8,ra
     51e:	2a00                	fld	fs0,16(a2)
     520:	0004                	addi	s1,sp,0
     522:	1400                	addi	s0,sp,544
     524:	042a                	slli	s0,s0,0xa
     526:	0000                	unimp
     528:	1b14                	addi	a3,sp,432
     52a:	0001                	nop
     52c:	1400                	addi	s0,sp,544
     52e:	0562                	slli	a0,a0,0x18
     530:	0000                	unimp
     532:	3014                	fld	fa3,32(s0)
     534:	0000                	unimp
     536:	0000                	unimp
     538:	0430080f          	0x430080f
     53c:	0000                	unimp
     53e:	2315                	addiw	t1,t1,5
     540:	0004                	addi	s1,sp,0
     542:	4800                	lw	s0,16(s0)
     544:	02390607          	0x2390607
     548:	0562                	slli	a0,a0,0x18
     54a:	0000                	unimp
     54c:	6216                	ld	tp,320(sp)
     54e:	0008                	addi	a0,sp,0
     550:	0600                	addi	s0,sp,768
     552:	0030023b          	addw	tp,zero,gp
     556:	0000                	unimp
     558:	1600                	addi	s0,sp,800
     55a:	0245                	addi	tp,tp,17
     55c:	0000                	unimp
     55e:	4006                	0x4006
     560:	4902                	lw	s2,0(sp)
     562:	0006                	0x6
     564:	0800                	addi	s0,sp,16
     566:	d216                	sw	t0,36(sp)
     568:	0002                	0x2
     56a:	0600                	addi	s0,sp,768
     56c:	0240                	addi	s0,sp,260
     56e:	0649                	addi	a2,a2,18
     570:	0000                	unimp
     572:	1610                	addi	a2,sp,800
     574:	00000297          	auipc	t0,0x0
     578:	4006                	0x4006
     57a:	4902                	lw	s2,0(sp)
     57c:	0006                	0x6
     57e:	1800                	addi	s0,sp,48
     580:	f716                	sd	t0,424(sp)
     582:	06000003          	lb	zero,96(zero)
     586:	0242                	slli	tp,tp,0x10
     588:	0030                	addi	a2,sp,8
     58a:	0000                	unimp
     58c:	1620                	addi	s0,sp,808
     58e:	0000013f 2d024306 	0x2d0243060000013f
     596:	0008                	addi	a0,sp,0
     598:	2400                	fld	fs0,8(s0)
     59a:	a016                	fsd	ft5,0(sp)
     59c:	0004                	addi	s1,sp,0
     59e:	0600                	addi	s0,sp,768
     5a0:	0245                	addi	tp,tp,17
     5a2:	0030                	addi	a2,sp,8
     5a4:	0000                	unimp
     5a6:	1640                	addi	s0,sp,804
     5a8:	0401                	addi	s0,s0,0
     5aa:	0000                	unimp
     5ac:	4606                	lw	a2,64(sp)
     5ae:	9302                	jalr	t1
     5b0:	0005                	0x5
     5b2:	4800                	lw	s0,16(s0)
     5b4:	5816                	lw	a6,100(sp)
     5b6:	06000003          	lb	zero,96(zero)
     5ba:	0248                	addi	a0,sp,260
     5bc:	0030                	addi	a2,sp,8
     5be:	0000                	unimp
     5c0:	1650                	addi	a2,sp,804
     5c2:	0411                	addi	s0,s0,4
     5c4:	0000                	unimp
     5c6:	4a06                	lw	s4,64(sp)
     5c8:	4802                	lw	a6,0(sp)
     5ca:	0008                	addi	a0,sp,0
     5cc:	5800                	lw	s0,48(s0)
     5ce:	1116                	slli	sp,sp,0x25
     5d0:	06000003          	lb	zero,96(zero)
     5d4:	024d                	addi	tp,tp,19
     5d6:	0000017b          	custom3	2,0,0,0
     5da:	1660                	addi	s0,sp,812
     5dc:	02bc                	addi	a5,sp,328
     5de:	0000                	unimp
     5e0:	4e06                	lw	t3,64(sp)
     5e2:	3002                	fld	ft0,32(sp)
     5e4:	0000                	unimp
     5e6:	6800                	ld	s0,16(s0)
     5e8:	3816                	fld	fa6,352(sp)
     5ea:	0005                	0x5
     5ec:	0600                	addi	s0,sp,768
     5ee:	017b024f          	fnmadd.s	ft4,fs6,fs7,ft0,rne
     5f2:	0000                	unimp
     5f4:	1670                	addi	a2,sp,812
     5f6:	0000037b          	custom3	6,0,0,0
     5fa:	5006                	0x5006
     5fc:	4e02                	lw	t3,0(sp)
     5fe:	0008                	addi	a0,sp,0
     600:	7800                	ld	s0,48(s0)
     602:	da16                	sw	t0,52(sp)
     604:	0002                	0x2
     606:	0600                	addi	s0,sp,768
     608:	00300253          	fadd.s	ft4,ft0,ft3,rne
     60c:	0000                	unimp
     60e:	1680                	addi	s0,sp,864
     610:	024c                	addi	a1,sp,260
     612:	0000                	unimp
     614:	5406                	lw	s0,96(sp)
     616:	6202                	ld	tp,0(sp)
     618:	0005                	0x5
     61a:	8800                	0x8800
     61c:	9716                	add	a4,a4,t0
     61e:	06000003          	lb	zero,96(zero)
     622:	080a0277          	0x80a0277
     626:	0000                	unimp
     628:	1790                	addi	a2,sp,992
     62a:	00c2                	slli	ra,ra,0x10
     62c:	0000                	unimp
     62e:	7b06                	ld	s6,96(sp)
     630:	9a02                	jalr	s4
     632:	0002                	0x2
     634:	f800                	sd	s0,48(s0)
     636:	1701                	addi	a4,a4,-32
     638:	000002ef          	jal	t0,638 <_ftext-0xf9c8>
     63c:	7c06                	ld	s8,96(sp)
     63e:	5b02                	lw	s6,32(sp)
     640:	0002                	0x2
     642:	0000                	unimp
     644:	1702                	slli	a4,a4,0x20
     646:	04ec                	addi	a1,sp,588
     648:	0000                	unimp
     64a:	8006                	0x8006
     64c:	5f02                	lw	t5,32(sp)
     64e:	0008                	addi	a0,sp,0
     650:	1800                	addi	s0,sp,48
     652:	1705                	addi	a4,a4,-31
     654:	022e                	slli	tp,tp,0xb
     656:	0000                	unimp
     658:	8506                	mv	a0,ra
     65a:	0e02                	slli	t3,t3,0x0
     65c:	0006                	0x6
     65e:	2000                	fld	fs0,0(s0)
     660:	1705                	addi	a4,a4,-31
     662:	00000213          	li	tp,0
     666:	8606                	mv	a2,ra
     668:	6b02                	ld	s6,0(sp)
     66a:	0008                	addi	a0,sp,0
     66c:	3800                	fld	fs0,48(s0)
     66e:	0005                	0x5
     670:	0568080f          	0x568080f
     674:	0000                	unimp
     676:	0102                	slli	sp,sp,0x0
     678:	b908                	fsd	fa0,48(a0)
     67a:	0000                	unimp
     67c:	0f00                	addi	s0,sp,912
     67e:	0c08                	addi	a0,sp,528
     680:	0004                	addi	s1,sp,0
     682:	1300                	addi	s0,sp,416
     684:	008c                	addi	a1,sp,64
     686:	0000                	unimp
     688:	00000593          	li	a1,0
     68c:	2a14                	fld	fa3,16(a2)
     68e:	0004                	addi	s1,sp,0
     690:	1400                	addi	s0,sp,544
     692:	0000011b          	sext.w	sp,zero
     696:	9314                	0x9314
     698:	0005                	0x5
     69a:	1400                	addi	s0,sp,544
     69c:	0030                	addi	a2,sp,8
     69e:	0000                	unimp
     6a0:	0f00                	addi	s0,sp,912
     6a2:	9908                	0x9908
     6a4:	0005                	0x5
     6a6:	1800                	addi	s0,sp,48
     6a8:	0568                	addi	a0,sp,652
     6aa:	0000                	unimp
     6ac:	0575080f          	0x575080f
     6b0:	0000                	unimp
     6b2:	00008113          	mv	sp,ra
     6b6:	c200                	sw	s0,0(a2)
     6b8:	0005                	0x5
     6ba:	1400                	addi	s0,sp,544
     6bc:	042a                	slli	s0,s0,0xa
     6be:	0000                	unimp
     6c0:	1b14                	addi	a3,sp,432
     6c2:	0001                	nop
     6c4:	1400                	addi	s0,sp,544
     6c6:	0081                	addi	ra,ra,0
     6c8:	0000                	unimp
     6ca:	3014                	fld	fa3,32(s0)
     6cc:	0000                	unimp
     6ce:	0000                	unimp
     6d0:	05a4080f          	0x5a4080f
     6d4:	0000                	unimp
     6d6:	00003013          	sltiu	zero,zero,0
     6da:	dc00                	sw	s0,56(s0)
     6dc:	0005                	0x5
     6de:	1400                	addi	s0,sp,544
     6e0:	042a                	slli	s0,s0,0xa
     6e2:	0000                	unimp
     6e4:	1b14                	addi	a3,sp,432
     6e6:	0001                	nop
     6e8:	0000                	unimp
     6ea:	05c8080f          	0x5c8080f
     6ee:	0000                	unimp
     6f0:	5308                	lw	a0,32(a4)
     6f2:	0000                	unimp
     6f4:	f200                	sd	s0,32(a2)
     6f6:	0005                	0x5
     6f8:	0900                	addi	s0,sp,144
     6fa:	00dd                	addi	ra,ra,23
     6fc:	0000                	unimp
     6fe:	0002                	0x2
     700:	5308                	lw	a0,32(a4)
     702:	0000                	unimp
     704:	0200                	addi	s0,sp,256
     706:	0006                	0x6
     708:	0900                	addi	s0,sp,144
     70a:	00dd                	addi	ra,ra,23
     70c:	0000                	unimp
     70e:	0000                	unimp
     710:	bc05                	j	140 <_ftext-0xfec0>
     712:	06000003          	lb	zero,96(zero)
     716:	011d                	addi	sp,sp,7
     718:	02e2                	slli	t0,t0,0x18
     71a:	0000                	unimp
     71c:	d319                	beqz	a4,622 <_ftext-0xf9de>
     71e:	0004                	addi	s1,sp,0
     720:	1800                	addi	s0,sp,48
     722:	2106                	fld	ft2,64(sp)
     724:	4301                	li	t1,0
     726:	0006                	0x6
     728:	1600                	addi	s0,sp,800
     72a:	03e4                	addi	s1,sp,460
     72c:	0000                	unimp
     72e:	2306                	fld	ft6,64(sp)
     730:	4301                	li	t1,0
     732:	0006                	0x6
     734:	0000                	unimp
     736:	e816                	sd	t0,16(sp)
     738:	0002                	0x2
     73a:	0600                	addi	s0,sp,768
     73c:	0124                	addi	s1,sp,136
     73e:	0030                	addi	a2,sp,8
     740:	0000                	unimp
     742:	1608                	addi	a0,sp,800
     744:	03b6                	slli	t2,t2,0xd
     746:	0000                	unimp
     748:	2506                	fld	fa0,64(sp)
     74a:	4901                	li	s2,0
     74c:	0006                	0x6
     74e:	1000                	addi	s0,sp,32
     750:	0f00                	addi	s0,sp,912
     752:	0e08                	addi	a0,sp,784
     754:	0006                	0x6
     756:	0f00                	addi	s0,sp,912
     758:	0208                	addi	a0,sp,256
     75a:	0006                	0x6
     75c:	1900                	addi	s0,sp,176
     75e:	00000137          	lui	sp,0x0
     762:	060e                	slli	a2,a2,0x3
     764:	013d                	addi	sp,sp,15
     766:	0684                	addi	s1,sp,832
     768:	0000                	unimp
     76a:	2a16                	fld	fs4,320(sp)
     76c:	0004                	addi	s1,sp,0
     76e:	0600                	addi	s0,sp,768
     770:	013e                	slli	sp,sp,0xf
     772:	0684                	addi	s1,sp,832
     774:	0000                	unimp
     776:	1600                	addi	s0,sp,800
     778:	00000457          	0x457
     77c:	3f06                	fld	ft10,96(sp)
     77e:	8401                	srai	s0,s0,0x0
     780:	0006                	0x6
     782:	0600                	addi	s0,sp,768
     784:	7316                	ld	t1,352(sp)
     786:	0004                	addi	s1,sp,0
     788:	0600                	addi	s0,sp,768
     78a:	0140                	addi	s0,sp,132
     78c:	0061                	0x61
     78e:	0000                	unimp
     790:	000c                	addi	a1,sp,0
     792:	6108                	ld	a0,0(a0)
     794:	0000                	unimp
     796:	9400                	0x9400
     798:	0006                	0x6
     79a:	0900                	addi	s0,sp,144
     79c:	00dd                	addi	ra,ra,23
     79e:	0000                	unimp
     7a0:	0002                	0x2
     7a2:	d81a                	sw	t1,48(sp)
     7a4:	5806                	lw	a6,96(sp)
     7a6:	9502                	jalr	a0
     7a8:	16000007          	0x16000007
     7ac:	000004b7          	lui	s1,0x0
     7b0:	5a06                	lw	s4,96(sp)
     7b2:	6802                	ld	a6,0(sp)
     7b4:	0000                	unimp
     7b6:	0000                	unimp
     7b8:	5d16                	lw	s10,100(sp)
     7ba:	0004                	addi	s1,sp,0
     7bc:	0600                	addi	s0,sp,768
     7be:	0562025b          	custom2	4,4,22,2
     7c2:	0000                	unimp
     7c4:	1608                	addi	a0,sp,800
     7c6:	0304                	addi	s1,sp,384
     7c8:	0000                	unimp
     7ca:	5c06                	lw	s8,96(sp)
     7cc:	9502                	jalr	a0
     7ce:	10000007          	0x10000007
     7d2:	0f16                	slli	t5,t5,0x5
     7d4:	0005                	0x5
     7d6:	0600                	addi	s0,sp,768
     7d8:	025d                	addi	tp,tp,23
     7da:	0191                	addi	gp,gp,4
     7dc:	0000                	unimp
     7de:	162c                	addi	a1,sp,808
     7e0:	000002a7          	0x2a7
     7e4:	5e06                	lw	t3,96(sp)
     7e6:	3002                	fld	ft0,32(sp)
     7e8:	0000                	unimp
     7ea:	5000                	lw	s0,32(s0)
     7ec:	df16                	sw	t0,188(sp)
     7ee:	06000003          	lb	zero,96(zero)
     7f2:	025f 006f 0000      	0x6f025f
     7f8:	1658                	addi	a4,sp,804
     7fa:	0525                	addi	a0,a0,9
     7fc:	0000                	unimp
     7fe:	6006                	0x6006
     800:	4f02                	lw	t5,0(sp)
     802:	0006                	0x6
     804:	6000                	ld	s0,0(s0)
     806:	ea16                	sd	t0,272(sp)
     808:	06000003          	lb	zero,96(zero)
     80c:	0261                	addi	tp,tp,24
     80e:	0105                	addi	sp,sp,1
     810:	0000                	unimp
     812:	1670                	addi	a2,sp,812
     814:	052a                	slli	a0,a0,0xa
     816:	0000                	unimp
     818:	6206                	ld	tp,64(sp)
     81a:	0502                	slli	a0,a0,0x0
     81c:	0001                	nop
     81e:	7800                	ld	s0,48(s0)
     820:	e016                	sd	t0,0(sp)
     822:	0001                	nop
     824:	0600                	addi	s0,sp,768
     826:	01050263          	beq	a0,a6,82a <_ftext-0xf7d6>
     82a:	0000                	unimp
     82c:	1680                	addi	s0,sp,864
     82e:	04e2                	slli	s1,s1,0x18
     830:	0000                	unimp
     832:	6406                	ld	s0,64(sp)
     834:	a502                	fsd	ft0,136(sp)
     836:	88000007          	0x88000007
     83a:	f816                	sd	t0,48(sp)
     83c:	0002                	0x2
     83e:	0600                	addi	s0,sp,768
     840:	0265                	addi	tp,tp,25
     842:	07b5                	addi	a5,a5,13
     844:	0000                	unimp
     846:	1690                	addi	a2,sp,864
     848:	0480                	addi	s0,sp,576
     84a:	0000                	unimp
     84c:	6606                	ld	a2,64(sp)
     84e:	3002                	fld	ft0,32(sp)
     850:	0000                	unimp
     852:	a800                	fsd	fs0,16(s0)
     854:	6d16                	ld	s10,320(sp)
     856:	0002                	0x2
     858:	0600                	addi	s0,sp,768
     85a:	01050267          	jalr	tp,a0,16
     85e:	0000                	unimp
     860:	16ac                	addi	a1,sp,872
     862:	01d1                	addi	gp,gp,20
     864:	0000                	unimp
     866:	6806                	ld	a6,64(sp)
     868:	0502                	slli	a0,a0,0x0
     86a:	0001                	nop
     86c:	b400                	fsd	fs0,40(s0)
     86e:	5c16                	lw	s8,100(sp)
     870:	0002                	0x2
     872:	0600                	addi	s0,sp,768
     874:	0269                	addi	tp,tp,26
     876:	0105                	addi	sp,sp,1
     878:	0000                	unimp
     87a:	16bc                	addi	a5,sp,872
     87c:	014a                	slli	sp,sp,0x12
     87e:	0000                	unimp
     880:	6a06                	ld	s4,64(sp)
     882:	0502                	slli	a0,a0,0x0
     884:	0001                	nop
     886:	c400                	sw	s0,8(s0)
     888:	5916                	lw	s2,100(sp)
     88a:	0001                	nop
     88c:	0600                	addi	s0,sp,768
     88e:	0105026b          	0x105026b
     892:	0000                	unimp
     894:	16cc                	addi	a1,sp,868
     896:	039c                	addi	a5,sp,448
     898:	0000                	unimp
     89a:	6c06                	ld	s8,64(sp)
     89c:	3002                	fld	ft0,32(sp)
     89e:	0000                	unimp
     8a0:	d400                	sw	s0,40(s0)
     8a2:	0800                	addi	s0,sp,16
     8a4:	0568                	addi	a0,sp,652
     8a6:	0000                	unimp
     8a8:	07a5                	addi	a5,a5,9
     8aa:	0000                	unimp
     8ac:	dd09                	beqz	a0,7c6 <_ftext-0xf83a>
     8ae:	0000                	unimp
     8b0:	1900                	addi	s0,sp,176
     8b2:	0800                	addi	s0,sp,16
     8b4:	0568                	addi	a0,sp,652
     8b6:	0000                	unimp
     8b8:	07b5                	addi	a5,a5,13
     8ba:	0000                	unimp
     8bc:	dd09                	beqz	a0,7d6 <_ftext-0xf82a>
     8be:	0000                	unimp
     8c0:	0700                	addi	s0,sp,896
     8c2:	0800                	addi	s0,sp,16
     8c4:	0568                	addi	a0,sp,652
     8c6:	0000                	unimp
     8c8:	07c5                	addi	a5,a5,17
     8ca:	0000                	unimp
     8cc:	dd09                	beqz	a0,7e6 <_ftext-0xf81a>
     8ce:	0000                	unimp
     8d0:	1700                	addi	s0,sp,928
     8d2:	1b00                	addi	s0,sp,432
     8d4:	0168                	addi	a0,sp,140
     8d6:	7106                	ld	sp,96(sp)
     8d8:	ea02                	sd	zero,272(sp)
     8da:	16000007          	0x16000007
     8de:	0348                	addi	a0,sp,388
     8e0:	0000                	unimp
     8e2:	7406                	ld	s0,96(sp)
     8e4:	ea02                	sd	zero,272(sp)
     8e6:	00000007          	0x7
     8ea:	3f16                	fld	ft10,352(sp)
     8ec:	06000003          	lb	zero,96(zero)
     8f0:	0275                	addi	tp,tp,29
     8f2:	07fa                	slli	a5,a5,0x1e
     8f4:	0000                	unimp
     8f6:	00f0                	addi	a2,sp,76
     8f8:	dc08                	sw	a0,56(s0)
     8fa:	0002                	0x2
     8fc:	fa00                	sd	s0,48(a2)
     8fe:	09000007          	0x9000007
     902:	00dd                	addi	ra,ra,23
     904:	0000                	unimp
     906:	001d                	0x1d
     908:	6808                	ld	a0,16(s0)
     90a:	0000                	unimp
     90c:	0a00                	addi	s0,sp,272
     90e:	0008                	addi	a0,sp,0
     910:	0900                	addi	s0,sp,144
     912:	00dd                	addi	ra,ra,23
     914:	0000                	unimp
     916:	001d                	0x1d
     918:	681c                	ld	a5,16(s0)
     91a:	0601                	addi	a2,a2,0
     91c:	0256                	slli	tp,tp,0x15
     91e:	082d                	addi	a6,a6,11
     920:	0000                	unimp
     922:	231d                	addiw	t1,t1,7
     924:	0004                	addi	s1,sp,0
     926:	0600                	addi	s0,sp,768
     928:	026d                	addi	tp,tp,27
     92a:	0694                	addi	a3,sp,832
     92c:	0000                	unimp
     92e:	fc1d                	bnez	s0,86c <_ftext-0xf794>
     930:	0004                	addi	s1,sp,0
     932:	0600                	addi	s0,sp,768
     934:	0276                	slli	tp,tp,0x1d
     936:	07c5                	addi	a5,a5,17
     938:	0000                	unimp
     93a:	0800                	addi	s0,sp,16
     93c:	0568                	addi	a0,sp,652
     93e:	0000                	unimp
     940:	083d                	addi	a6,a6,15
     942:	0000                	unimp
     944:	dd09                	beqz	a0,85e <_ftext-0xf7a2>
     946:	0000                	unimp
     948:	1800                	addi	s0,sp,48
     94a:	1e00                	addi	s0,sp,816
     94c:	0848                	addi	a0,sp,20
     94e:	0000                	unimp
     950:	2a14                	fld	fa3,16(a2)
     952:	0004                	addi	s1,sp,0
     954:	0000                	unimp
     956:	083d080f          	0x83d080f
     95a:	0000                	unimp
     95c:	017b080f          	0x17b080f
     960:	0000                	unimp
     962:	5f1e                	lw	t5,228(sp)
     964:	0008                	addi	a0,sp,0
     966:	1400                	addi	s0,sp,544
     968:	0030                	addi	a2,sp,8
     96a:	0000                	unimp
     96c:	0f00                	addi	s0,sp,912
     96e:	6508                	ld	a0,8(a0)
     970:	0008                	addi	a0,sp,0
     972:	0f00                	addi	s0,sp,912
     974:	5408                	lw	a0,40(s0)
     976:	0008                	addi	a0,sp,0
     978:	0800                	addi	s0,sp,16
     97a:	0602                	slli	a2,a2,0x0
     97c:	0000                	unimp
     97e:	0000087b          	custom3	16,0,0,0
     982:	dd09                	beqz	a0,89c <_ftext-0xf764>
     984:	0000                	unimp
     986:	0200                	addi	s0,sp,256
     988:	1f00                	addi	s0,sp,944
     98a:	01f8                	addi	a4,sp,204
     98c:	0000                	unimp
     98e:	5509                	li	a0,-30
     990:	01c8                	addi	a0,sp,196
     992:	0001                	nop
     994:	0000                	unimp
     996:	0000                	unimp
     998:	0030                	addi	a2,sp,8
     99a:	0000                	unimp
     99c:	0000                	unimp
     99e:	0000                	unimp
     9a0:	9c01                	subw	s0,s0,s0
     9a2:	08d9                	addi	a7,a7,22
     9a4:	0000                	unimp
     9a6:	b220                	fsd	fs0,96(a2)
     9a8:	0004                	addi	s1,sp,0
     9aa:	0100                	addi	s0,sp,128
     9ac:	303a                	fld	ft0,424(sp)
     9ae:	0000                	unimp
     9b0:	4c00                	lw	s0,24(s0)
     9b2:	0000                	unimp
     9b4:	2100                	fld	fs0,0(a0)
     9b6:	01e0                	addi	s0,sp,204
     9b8:	0001                	nop
     9ba:	0000                	unimp
     9bc:	0000                	unimp
     9be:	08ea                	slli	a7,a7,0x1a
     9c0:	0000                	unimp
     9c2:	08c4                	addi	s1,sp,84
     9c4:	0000                	unimp
     9c6:	0122                	slli	sp,sp,0x8
     9c8:	025a                	slli	tp,tp,0x16
     9ca:	0078                	addi	a4,sp,12
     9cc:	0122                	slli	sp,sp,0x8
     9ce:	0030015b          	custom2	2,0,3,0
     9d2:	0101f823          	0x101f823
     9d6:	0000                	unimp
     9d8:	0000                	unimp
     9da:	f500                	sd	s0,40(a0)
     9dc:	0008                	addi	a0,sp,0
     9de:	2200                	fld	fs0,0(a2)
     9e0:	5a01                	li	s4,-32
     9e2:	7802                	ld	a6,32(sp)
     9e4:	0000                	unimp
     9e6:	2400                	fld	fs0,8(s0)
     9e8:	048d                	addi	s1,s1,3
     9ea:	0000                	unimp
     9ec:	fb06                	sd	ra,432(sp)
     9ee:	e502                	sd	zero,136(sp)
     9f0:	0008                	addi	a0,sp,0
     9f2:	1800                	addi	s0,sp,48
     9f4:	042a                	slli	s0,s0,0xa
     9f6:	0000                	unimp
     9f8:	6a25                	lui	s4,0x9
     9fa:	6a000003          	lb	zero,1696(zero)
     9fe:	07000003          	lb	zero,112(zero)
     a02:	250c                	fld	fa1,8(a0)
     a04:	000001f7          	0x1f7
     a08:	000001f7          	0x1f7
     a0c:	1208                	addi	a0,sp,288
     a0e:	0600                	addi	s0,sp,768
     a10:	0001                	nop
     a12:	0400                	addi	s0,sp,512
     a14:	8900                	0x8900
     a16:	0002                	0x2
     a18:	0800                	addi	s0,sp,16
     a1a:	0001                	nop
     a1c:	0001                	nop
     a1e:	0c00                	addi	s0,sp,528
     a20:	055a                	slli	a0,a0,0x16
     a22:	0000                	unimp
     a24:	01f8                	addi	a4,sp,204
     a26:	0001                	nop
     a28:	0000                	unimp
     a2a:	0000                	unimp
     a2c:	005c                	addi	a5,sp,4
     a2e:	0000                	unimp
     a30:	0000                	unimp
     a32:	0000                	unimp
     a34:	03ed                	addi	t2,t2,27
     a36:	0000                	unimp
     a38:	0102                	slli	sp,sp,0x0
     a3a:	b206                	fsd	ft1,288(sp)
     a3c:	0000                	unimp
     a3e:	0200                	addi	s0,sp,256
     a40:	0801                	addi	a6,a6,0
     a42:	00b0                	addi	a2,sp,72
     a44:	0000                	unimp
     a46:	0202                	slli	tp,tp,0x0
     a48:	f605                	bnez	a2,970 <_ftext-0xf690>
     a4a:	0000                	unimp
     a4c:	0200                	addi	s0,sp,256
     a4e:	0702                	slli	a4,a4,0x0
     a50:	000e                	0xe
     a52:	0000                	unimp
     a54:	69050403          	lb	s0,1680(a0)
     a58:	746e                	ld	s0,248(sp)
     a5a:	0200                	addi	s0,sp,256
     a5c:	0704                	addi	s1,sp,896
     a5e:	009a                	slli	ra,ra,0x6
     a60:	0000                	unimp
     a62:	0802                	slli	a6,a6,0x0
     a64:	0505                	addi	a0,a0,1
     a66:	0000                	unimp
     a68:	0200                	addi	s0,sp,256
     a6a:	0708                	addi	a0,sp,896
     a6c:	0095                	addi	ra,ra,5
     a6e:	0000                	unimp
     a70:	0802                	slli	a6,a6,0x0
     a72:	00009007          	0x9007
     a76:	0200                	addi	s0,sp,256
     a78:	0508                	addi	a0,sp,640
     a7a:	0000                	unimp
     a7c:	0000                	unimp
     a7e:	0802                	slli	a6,a6,0x0
     a80:	00012207          	flw	ft4,0(sp) # 0 <_ftext-0x10000>
     a84:	0400                	addi	s0,sp,512
     a86:	000004db          	custom2	9,0,0,0
     a8a:	d802                	sw	zero,48(sp)
     a8c:	005a                	0x5a
     a8e:	0000                	unimp
     a90:	0802                	slli	a6,a6,0x0
     a92:	ea04                	sd	s1,16(a2)
     a94:	0000                	unimp
     a96:	0200                	addi	s0,sp,256
     a98:	0801                	addi	a6,a6,0
     a9a:	00b9                	addi	ra,ra,14
     a9c:	0000                	unimp
     a9e:	cd05                	beqz	a0,ad6 <_ftext-0xf52a>
     aa0:	0005                	0x5
     aa2:	0100                	addi	s0,sp,128
     aa4:	f818                	sd	a4,48(s0)
     aa6:	0101                	addi	sp,sp,0
     aa8:	0000                	unimp
     aaa:	0000                	unimp
     aac:	5c00                	lw	s0,56(s0)
     aae:	0000                	unimp
     ab0:	0000                	unimp
     ab2:	0000                	unimp
     ab4:	0100                	addi	s0,sp,128
     ab6:	d69c                	sw	a5,40(a3)
     ab8:	0000                	unimp
     aba:	0600                	addi	s0,sp,768
     abc:	0432                	slli	s0,s0,0xc
     abe:	0000                	unimp
     ac0:	1a01                	addi	s4,s4,-32
     ac2:	0076                	0x76
     ac4:	0000                	unimp
     ac6:	0082                	slli	ra,ra,0x0
     ac8:	0000                	unimp
     aca:	01006907          	0x1006907
     ace:	0000761b          	0x761b
     ad2:	a500                	fsd	fs0,8(a0)
     ad4:	0000                	unimp
     ad6:	0800                	addi	s0,sp,16
     ad8:	0254                	addi	a3,sp,260
     ada:	0001                	nop
     adc:	0000                	unimp
     ade:	0000                	unimp
     ae0:	00fe                	slli	ra,ra,0x1f
     ae2:	0000                	unimp
     ae4:	0900                	addi	s0,sp,144
     ae6:	00e1                	addi	ra,ra,24
     ae8:	0000                	unimp
     aea:	00e1                	addi	ra,ra,24
     aec:	0000                	unimp
     aee:	000a                	0xa
     af0:	00e7080b          	custom0	16,14,14,0
     af4:	0000                	unimp
     af6:	0d0c                	addi	a1,sp,656
     af8:	00000547          	fmsub.s	fa0,ft0,ft0,ft0,rne
     afc:	1101                	addi	sp,sp,-32
     afe:	00d6                	slli	ra,ra,0x15
     b00:	0000                	unimp
     b02:	b60d                	j	624 <_ftext-0xf9dc>
     b04:	0005                	0x5
     b06:	0100                	addi	s0,sp,128
     b08:	d612                	sw	tp,44(sp)
     b0a:	0000                	unimp
     b0c:	0e00                	addi	s0,sp,784
     b0e:	000005c7          	fmsub.s	fa1,ft0,ft0,ft0,rne
     b12:	000005c7          	fmsub.s	fa1,ft0,ft0,ft0,rne
     b16:	1401                	addi	s0,s0,-32
     b18:	ae00                	fsd	fs0,24(a2)
     b1a:	0008                	addi	a0,sp,0
     b1c:	0400                	addi	s0,sp,512
     b1e:	4400                	lw	s0,8(s0)
     b20:	08000003          	lb	zero,128(zero)
     b24:	0001                	nop
     b26:	0001                	nop
     b28:	0c00                	addi	s0,sp,528
     b2a:	000005eb          	0x5eb
     b2e:	054a                	slli	a0,a0,0x12
     b30:	0000                	unimp
     b32:	0802                	slli	a6,a6,0x0
     b34:	0505                	addi	a0,a0,1
     b36:	0000                	unimp
     b38:	0200                	addi	s0,sp,256
     b3a:	0708                	addi	a0,sp,896
     b3c:	0095                	addi	ra,ra,5
     b3e:	0000                	unimp
     b40:	69050403          	lb	s0,1680(a0)
     b44:	746e                	ld	s0,248(sp)
     b46:	0200                	addi	s0,sp,256
     b48:	0508                	addi	a0,sp,640
     b4a:	0000                	unimp
     b4c:	0000                	unimp
     b4e:	0802                	slli	a6,a6,0x0
     b50:	ea04                	sd	s1,16(a2)
     b52:	0000                	unimp
     b54:	0200                	addi	s0,sp,256
     b56:	0601                	addi	a2,a2,0
     b58:	00b2                	slli	ra,ra,0xc
     b5a:	0000                	unimp
     b5c:	0102                	slli	sp,sp,0x0
     b5e:	b008                	fsd	fa0,32(s0)
     b60:	0000                	unimp
     b62:	0200                	addi	s0,sp,256
     b64:	0502                	slli	a0,a0,0x0
     b66:	00f6                	slli	ra,ra,0x1d
     b68:	0000                	unimp
     b6a:	0202                	slli	tp,tp,0x0
     b6c:	00000e07          	0xe07
     b70:	0200                	addi	s0,sp,256
     b72:	0704                	addi	s1,sp,896
     b74:	009a                	slli	ra,ra,0x6
     b76:	0000                	unimp
     b78:	0802                	slli	a6,a6,0x0
     b7a:	00009007          	0x9007
     b7e:	0400                	addi	s0,sp,512
     b80:	00000363          	beqz	zero,b86 <_ftext-0xf47a>
     b84:	1001                	0x1001
     b86:	002e                	0x2e
     b88:	0000                	unimp
     b8a:	4604                	lw	s1,8(a2)
     b8c:	0004                	addi	s1,sp,0
     b8e:	0100                	addi	s0,sp,128
     b90:	00005f13          	srli	t5,zero,0x0
     b94:	0400                	addi	s0,sp,512
     b96:	04d9                	addi	s1,s1,22
     b98:	0000                	unimp
     b9a:	1f01                	addi	t5,t5,-32
     b9c:	0019                	0x19
     b9e:	0000                	unimp
     ba0:	8504                	0x8504
     ba2:	02000003          	lb	zero,32(zero)
     ba6:	00002707          	flw	fa4,0(zero)
     baa:	0500                	addi	s0,sp,640
     bac:	031f 0000 6503      	0x65030000031f
     bb2:	5801                	li	a6,-32
     bb4:	0000                	unimp
     bb6:	0600                	addi	s0,sp,768
     bb8:	0404                	addi	s1,sp,512
     bba:	bd4a                	fsd	fs2,184(sp)
     bbc:	0000                	unimp
     bbe:	0700                	addi	s0,sp,896
     bc0:	0319                	addi	t1,t1,6
     bc2:	0000                	unimp
     bc4:	4c04                	lw	s1,24(s0)
     bc6:	0092                	slli	ra,ra,0x4
     bc8:	0000                	unimp
     bca:	0002cb07          	0x2cb07
     bce:	0400                	addi	s0,sp,512
     bd0:	bd4d                	j	a82 <_ftext-0xf57e>
     bd2:	0000                	unimp
     bd4:	0000                	unimp
     bd6:	4308                	lw	a0,0(a4)
     bd8:	0000                	unimp
     bda:	cd00                	sw	s0,24(a0)
     bdc:	0000                	unimp
     bde:	0900                	addi	s0,sp,144
     be0:	00cd                	addi	ra,ra,19
     be2:	0000                	unimp
     be4:	08020003          	lb	zero,128(tp) # 80 <_ftext-0xff80>
     be8:	00012207          	flw	ft4,0(sp)
     bec:	0a00                	addi	s0,sp,272
     bee:	0408                	addi	a0,sp,512
     bf0:	0000f547          	fmsub.s	fa0,ft1,ft0,ft0
     bf4:	0b00                	addi	s0,sp,400
     bf6:	0430                	addi	a2,sp,520
     bf8:	0000                	unimp
     bfa:	4904                	lw	s1,16(a0)
     bfc:	00000027          	0x27
     c00:	0b00                	addi	s0,sp,400
     c02:	0438                	addi	a4,sp,520
     c04:	0000                	unimp
     c06:	4e04                	lw	s1,24(a2)
     c08:	009e                	slli	ra,ra,0x7
     c0a:	0000                	unimp
     c0c:	0004                	addi	s1,sp,0
     c0e:	c304                	sw	s1,0(a4)
     c10:	04000003          	lb	zero,64(zero)
     c14:	0000d44f          	fnmadd.s	fs0,ft1,ft0,ft0,unknown
     c18:	0400                	addi	s0,sp,512
     c1a:	028e                	slli	t0,t0,0x3
     c1c:	0000                	unimp
     c1e:	5304                	lw	s1,32(a4)
     c20:	00000087          	0x87
     c24:	080c                	addi	a1,sp,16
     c26:	7804                	ld	s1,48(s0)
     c28:	0004                	addi	s1,sp,0
     c2a:	0500                	addi	s0,sp,640
     c2c:	5819                	li	a6,-26
     c2e:	0000                	unimp
     c30:	0d00                	addi	s0,sp,656
     c32:	029f 0000 0520      	0x5200000029f
     c38:	6b2d                	lui	s6,0xb
     c3a:	0001                	nop
     c3c:	0b00                	addi	s0,sp,400
     c3e:	03e4                	addi	s1,sp,460
     c40:	0000                	unimp
     c42:	2f05                	addiw	t5,t5,1
     c44:	0000016b          	0x16b
     c48:	0e00                	addi	s0,sp,784
     c4a:	6b5f 0500 2730      	0x273005006b5f
     c50:	0000                	unimp
     c52:	0800                	addi	s0,sp,16
     c54:	00041b0b          	0x41b0b
     c58:	0500                	addi	s0,sp,640
     c5a:	2730                	fld	fa2,72(a4)
     c5c:	0000                	unimp
     c5e:	0c00                	addi	s0,sp,528
     c60:	0002880b          	custom0	16,5,0,0
     c64:	0500                	addi	s0,sp,640
     c66:	2730                	fld	fa2,72(a4)
     c68:	0000                	unimp
     c6a:	1000                	addi	s0,sp,32
     c6c:	0004c40b          	custom0	s0,9,0,0
     c70:	0500                	addi	s0,sp,640
     c72:	2730                	fld	fa2,72(a4)
     c74:	0000                	unimp
     c76:	1400                	addi	s0,sp,544
     c78:	5f0e                	lw	t5,224(sp)
     c7a:	0078                	addi	a4,sp,12
     c7c:	3105                	addiw	sp,sp,-31
     c7e:	0171                	addi	sp,sp,28
     c80:	0000                	unimp
     c82:	0018                	addi	a4,sp,0
     c84:	0118080f          	0x118080f
     c88:	0000                	unimp
     c8a:	0d08                	addi	a0,sp,656
     c8c:	0001                	nop
     c8e:	8100                	0x8100
     c90:	0001                	nop
     c92:	0900                	addi	s0,sp,144
     c94:	00cd                	addi	ra,ra,19
     c96:	0000                	unimp
     c98:	0000                	unimp
     c9a:	c60d                	beqz	a2,cc4 <_ftext-0xf33c>
     c9c:	0002                	0x2
     c9e:	2400                	fld	fs0,8(s0)
     ca0:	3505                	addiw	a0,a0,-31
     ca2:	01fa                	slli	gp,gp,0x1e
     ca4:	0000                	unimp
     ca6:	0001ee0b          	custom0	t3,gp,0,0
     caa:	0500                	addi	s0,sp,640
     cac:	00002737          	lui	a4,0x2
     cb0:	0000                	unimp
     cb2:	00044e0b          	custom0	t3,8,0,0
     cb6:	0500                	addi	s0,sp,640
     cb8:	2738                	fld	fa4,72(a4)
     cba:	0000                	unimp
     cbc:	0400                	addi	s0,sp,512
     cbe:	0002090b          	custom0	18,4,0,0
     cc2:	0500                	addi	s0,sp,640
     cc4:	2739                	addiw	a4,a4,14
     cc6:	0000                	unimp
     cc8:	0800                	addi	s0,sp,16
     cca:	00053d0b          	custom0	26,a0,zero,0
     cce:	0500                	addi	s0,sp,640
     cd0:	273a                	fld	fa4,392(sp)
     cd2:	0000                	unimp
     cd4:	0c00                	addi	s0,sp,528
     cd6:	00034f0b          	custom0	t5,6,0,0
     cda:	0500                	addi	s0,sp,640
     cdc:	0000273b          	0x273b
     ce0:	1000                	addi	s0,sp,32
     ce2:	0003350b          	custom0	10,t1,zero,0
     ce6:	0500                	addi	s0,sp,640
     ce8:	273c                	fld	fa5,72(a4)
     cea:	0000                	unimp
     cec:	1400                	addi	s0,sp,544
     cee:	0004c90b          	custom0	s2,9,0,0
     cf2:	0500                	addi	s0,sp,640
     cf4:	273d                	addiw	a4,a4,15
     cf6:	0000                	unimp
     cf8:	1800                	addi	s0,sp,48
     cfa:	0003a50b          	custom0	10,t2,0,0
     cfe:	0500                	addi	s0,sp,640
     d00:	273e                	fld	fa4,456(sp)
     d02:	0000                	unimp
     d04:	1c00                	addi	s0,sp,560
     d06:	0005040b          	custom0	8,10,0,0
     d0a:	0500                	addi	s0,sp,640
     d0c:	0000273f 10002000 	0x100020000000273f
     d14:	0218                	addi	a4,sp,256
     d16:	0000                	unimp
     d18:	0208                	addi	a0,sp,256
     d1a:	4805                	li	a6,1
     d1c:	0000023b          	addw	tp,zero,zero
     d20:	00027b0b          	custom0	s6,tp,zero,0
     d24:	0500                	addi	s0,sp,640
     d26:	3b49                	addiw	s6,s6,-14
     d28:	0002                	0x2
     d2a:	0000                	unimp
     d2c:	2b11                	addiw	s6,s6,4
     d2e:	0001                	nop
     d30:	0500                	addi	s0,sp,640
     d32:	3b4a                	fld	fs6,176(sp)
     d34:	0002                	0x2
     d36:	0000                	unimp
     d38:	1101                	addi	sp,sp,-32
     d3a:	046a                	slli	s0,s0,0x1a
     d3c:	0000                	unimp
     d3e:	4c05                	li	s8,1
     d40:	010d                	addi	sp,sp,3
     d42:	0000                	unimp
     d44:	0200                	addi	s0,sp,256
     d46:	3d11                	addiw	s10,s10,-28
     d48:	0002                	0x2
     d4a:	0500                	addi	s0,sp,640
     d4c:	00010d4f          	fnmadd.s	fs10,ft2,ft0,ft0,rne
     d50:	0400                	addi	s0,sp,512
     d52:	0002                	0x2
     d54:	0b08                	addi	a0,sp,400
     d56:	0001                	nop
     d58:	4b00                	lw	s0,16(a4)
     d5a:	0002                	0x2
     d5c:	0900                	addi	s0,sp,144
     d5e:	00cd                	addi	ra,ra,19
     d60:	0000                	unimp
     d62:	001f c210 0000      	0xc210001f
     d68:	1800                	addi	s0,sp,48
     d6a:	8a5b0503          	lb	a0,-1883(s6) # a8a5 <_ftext-0x575b>
     d6e:	0002                	0x2
     d70:	0b00                	addi	s0,sp,400
     d72:	03e4                	addi	s1,sp,460
     d74:	0000                	unimp
     d76:	5c05                	li	s8,-31
     d78:	028a                	slli	t0,t0,0x2
     d7a:	0000                	unimp
     d7c:	0b00                	addi	s0,sp,400
     d7e:	03fc                	addi	a5,sp,460
     d80:	0000                	unimp
     d82:	5d05                	li	s10,-31
     d84:	00000027          	0x27
     d88:	0b08                	addi	a0,sp,400
     d8a:	00000283          	lb	t0,0(zero)
     d8e:	5f05                	li	t5,-31
     d90:	0290                	addi	a2,sp,320
     d92:	0000                	unimp
     d94:	1110                	addi	a2,sp,160
     d96:	0218                	addi	a4,sp,256
     d98:	0000                	unimp
     d9a:	6005                	0x6005
     d9c:	01fa                	slli	gp,gp,0x1e
     d9e:	0000                	unimp
     da0:	0110                	addi	a2,sp,128
     da2:	0f00                	addi	s0,sp,912
     da4:	4b08                	lw	a0,16(a4)
     da6:	0002                	0x2
     da8:	0800                	addi	s0,sp,16
     daa:	02a0                	addi	s0,sp,328
     dac:	0000                	unimp
     dae:	02a0                	addi	s0,sp,328
     db0:	0000                	unimp
     db2:	cd09                	beqz	a0,dcc <_ftext-0xf234>
     db4:	0000                	unimp
     db6:	1f00                	addi	s0,sp,944
     db8:	0f00                	addi	s0,sp,912
     dba:	a608                	fsd	fa0,8(a2)
     dbc:	0002                	0x2
     dbe:	1200                	addi	s0,sp,288
     dc0:	af0d                	j	14f2 <_ftext-0xeb0e>
     dc2:	10000003          	lb	zero,256(zero)
     dc6:	7305                	lui	t1,0xfffe1
     dc8:	02cc                	addi	a1,sp,324
     dca:	0000                	unimp
     dcc:	0002030b          	custom0	6,4,0,0
     dd0:	0500                	addi	s0,sp,640
     dd2:	cc74                	sw	a3,92(s0)
     dd4:	0002                	0x2
     dd6:	0000                	unimp
     dd8:	0009a90b          	custom0	18,s3,0,0
     ddc:	0500                	addi	s0,sp,640
     dde:	2775                	addiw	a4,a4,29
     de0:	0000                	unimp
     de2:	0800                	addi	s0,sp,16
     de4:	0f00                	addi	s0,sp,912
     de6:	4308                	lw	a0,0(a4)
     de8:	0000                	unimp
     dea:	0d00                	addi	s0,sp,656
     dec:	03ce                	slli	t2,t2,0x13
     dee:	0000                	unimp
     df0:	05b0                	addi	a2,sp,712
     df2:	0003fcb3          	and	s9,t2,zero
     df6:	0e00                	addi	s0,sp,784
     df8:	705f 0500 ccb4      	0xccb40500705f
     dfe:	0002                	0x2
     e00:	0000                	unimp
     e02:	5f0e                	lw	t5,224(sp)
     e04:	0072                	0x72
     e06:	b505                	j	c26 <_ftext-0xf3da>
     e08:	00000027          	0x27
     e0c:	0e08                	addi	a0,sp,784
     e0e:	775f 0500 27b6      	0x27b60500775f
     e14:	0000                	unimp
     e16:	0c00                	addi	s0,sp,528
     e18:	0002360b          	custom0	12,tp,zero,0
     e1c:	0500                	addi	s0,sp,640
     e1e:	00004ab7          	lui	s5,0x4
     e22:	1000                	addi	s0,sp,32
     e24:	0002e20b          	custom0	tp,t0,0,0
     e28:	0500                	addi	s0,sp,640
     e2a:	4ab8                	lw	a4,80(a3)
     e2c:	0000                	unimp
     e2e:	1200                	addi	s0,sp,288
     e30:	5f0e                	lw	t5,224(sp)
     e32:	6662                	ld	a2,24(sp)
     e34:	0500                	addi	s0,sp,640
     e36:	a7b9                	j	1584 <_ftext-0xea7c>
     e38:	0002                	0x2
     e3a:	1800                	addi	s0,sp,48
     e3c:	0001c80b          	custom0	a6,3,0,0
     e40:	0500                	addi	s0,sp,640
     e42:	27ba                	fld	fa5,392(sp)
     e44:	0000                	unimp
     e46:	2800                	fld	fs0,16(s0)
     e48:	0002260b          	custom0	12,tp,0,0
     e4c:	0500                	addi	s0,sp,640
     e4e:	0bc1                	addi	s7,s7,16
     e50:	0001                	nop
     e52:	3000                	fld	fs0,32(s0)
     e54:	0002b60b          	custom0	12,t0,zero,0
     e58:	0500                	addi	s0,sp,640
     e5a:	00055fc3          	fmadd.s	ft11,fa0,ft0,ft0,unknown
     e5e:	3800                	fld	fs0,48(s0)
     e60:	00032e0b          	custom0	28,t1,0,0
     e64:	0500                	addi	s0,sp,640
     e66:	8ec5                	or	a3,a3,s1
     e68:	0005                	0x5
     e6a:	4000                	lw	s0,0(s0)
     e6c:	0004400b          	custom0	zero,8,0,0
     e70:	0500                	addi	s0,sp,640
     e72:	b2c8                	fsd	fa0,160(a3)
     e74:	0005                	0x5
     e76:	4800                	lw	s0,16(s0)
     e78:	00051e0b          	0x51e0b
     e7c:	0500                	addi	s0,sp,640
     e7e:	ccc9                	beqz	s1,f18 <_ftext-0xf0e8>
     e80:	0005                	0x5
     e82:	5000                	lw	s0,32(s0)
     e84:	5f0e                	lw	t5,224(sp)
     e86:	6275                	lui	tp,0x1d
     e88:	0500                	addi	s0,sp,640
     e8a:	a7cc                	fsd	fa1,136(a5)
     e8c:	0002                	0x2
     e8e:	5800                	lw	s0,48(s0)
     e90:	5f0e                	lw	t5,224(sp)
     e92:	7075                	0x7075
     e94:	0500                	addi	s0,sp,640
     e96:	cccd                	beqz	s1,f50 <_ftext-0xf0b0>
     e98:	0002                	0x2
     e9a:	6800                	ld	s0,16(s0)
     e9c:	5f0e                	lw	t5,224(sp)
     e9e:	7275                	lui	tp,0xffffd
     ea0:	0500                	addi	s0,sp,640
     ea2:	27ce                	fld	fa5,208(sp)
     ea4:	0000                	unimp
     ea6:	7000                	ld	s0,32(s0)
     ea8:	0001fd0b          	custom0	s10,gp,zero,0
     eac:	0500                	addi	s0,sp,640
     eae:	d2d1                	beqz	a3,e32 <_ftext-0xf1ce>
     eb0:	0005                	0x5
     eb2:	7400                	ld	s0,40(s0)
     eb4:	0004f60b          	custom0	a2,s1,zero,0
     eb8:	0500                	addi	s0,sp,640
     eba:	e2d2                	sd	s4,320(sp)
     ebc:	0005                	0x5
     ebe:	7700                	ld	s0,40(a4)
     ec0:	5f0e                	lw	t5,224(sp)
     ec2:	626c                	ld	a1,192(a2)
     ec4:	0500                	addi	s0,sp,640
     ec6:	a7d5                	j	16aa <_ftext-0xe956>
     ec8:	0002                	0x2
     eca:	7800                	ld	s0,48(s0)
     ecc:	000a1d0b          	0xa1d0b
     ed0:	0500                	addi	s0,sp,640
     ed2:	27d8                	fld	fa4,136(a5)
     ed4:	0000                	unimp
     ed6:	8800                	0x8800
     ed8:	0002540b          	0x2540b
     edc:	0500                	addi	s0,sp,640
     ede:	66d9                	lui	a3,0x16
     ee0:	0000                	unimp
     ee2:	9000                	0x9000
     ee4:	0005e50b          	custom0	a0,a1,0,0
     ee8:	0500                	addi	s0,sp,640
     eea:	1adc                	addi	a5,sp,372
     eec:	0004                	addi	s1,sp,0
     eee:	9800                	0x9800
     ef0:	0007f00b          	custom0	zero,a5,zero,0
     ef4:	0500                	addi	s0,sp,640
     ef6:	00e0                	addi	s0,sp,76
     ef8:	0001                	nop
     efa:	a000                	fsd	fs0,0(s0)
     efc:	0003d60b          	0x3d60b
     f00:	0500                	addi	s0,sp,640
     f02:	f5e2                	sd	s8,232(sp)
     f04:	0000                	unimp
     f06:	a400                	fsd	fs0,8(s0)
     f08:	0003260b          	custom0	12,t1,0,0
     f0c:	0500                	addi	s0,sp,640
     f0e:	000027e3          	0x27e3
     f12:	ac00                	fsd	fs0,24(s0)
     f14:	1300                	addi	s0,sp,416
     f16:	007c                	addi	a5,sp,12
     f18:	0000                	unimp
     f1a:	041a                	slli	s0,s0,0x6
     f1c:	0000                	unimp
     f1e:	1a14                	addi	a3,sp,304
     f20:	0004                	addi	s1,sp,0
     f22:	1400                	addi	s0,sp,544
     f24:	0000010b          	custom0	2,0,0,0
     f28:	5214                	lw	a3,32(a2)
     f2a:	0005                	0x5
     f2c:	1400                	addi	s0,sp,544
     f2e:	00000027          	0x27
     f32:	0f00                	addi	s0,sp,912
     f34:	2008                	fld	fa0,0(s0)
     f36:	0004                	addi	s1,sp,0
     f38:	1500                	addi	s0,sp,672
     f3a:	00000423          	sb	zero,8(zero)
     f3e:	0748                	addi	a0,sp,900
     f40:	3905                	addiw	s2,s2,-31
     f42:	5202                	lw	tp,32(sp)
     f44:	0005                	0x5
     f46:	1600                	addi	s0,sp,800
     f48:	0862                	slli	a6,a6,0x18
     f4a:	0000                	unimp
     f4c:	3b05                	addiw	s6,s6,-31
     f4e:	2702                	fld	fa4,0(sp)
     f50:	0000                	unimp
     f52:	0000                	unimp
     f54:	4516                	lw	a0,68(sp)
     f56:	0002                	0x2
     f58:	0500                	addi	s0,sp,640
     f5a:	0240                	addi	s0,sp,260
     f5c:	0639                	addi	a2,a2,14
     f5e:	0000                	unimp
     f60:	1608                	addi	a0,sp,800
     f62:	02d2                	slli	t0,t0,0x14
     f64:	0000                	unimp
     f66:	4005                	0x4005
     f68:	3902                	fld	fs2,32(sp)
     f6a:	0006                	0x6
     f6c:	1000                	addi	s0,sp,32
     f6e:	9716                	add	a4,a4,t0
     f70:	0002                	0x2
     f72:	0500                	addi	s0,sp,640
     f74:	0240                	addi	s0,sp,260
     f76:	0639                	addi	a2,a2,14
     f78:	0000                	unimp
     f7a:	1618                	addi	a4,sp,800
     f7c:	000003f7          	0x3f7
     f80:	4205                	li	tp,1
     f82:	2702                	fld	fa4,0(sp)
     f84:	0000                	unimp
     f86:	2000                	fld	fs0,0(s0)
     f88:	3f16                	fld	ft10,352(sp)
     f8a:	0001                	nop
     f8c:	0500                	addi	s0,sp,640
     f8e:	081d0243          	fmadd.s	ft4,fs10,ft1,ft1,rne
     f92:	0000                	unimp
     f94:	1624                	addi	s1,sp,808
     f96:	04a0                	addi	s0,sp,584
     f98:	0000                	unimp
     f9a:	4505                	li	a0,1
     f9c:	2702                	fld	fa4,0(sp)
     f9e:	0000                	unimp
     fa0:	4000                	lw	s0,0(s0)
     fa2:	0116                	slli	sp,sp,0x5
     fa4:	0004                	addi	s1,sp,0
     fa6:	0500                	addi	s0,sp,640
     fa8:	0246                	slli	tp,tp,0x11
     faa:	00000583          	lb	a1,0(zero)
     fae:	1648                	addi	a0,sp,804
     fb0:	0358                	addi	a4,sp,388
     fb2:	0000                	unimp
     fb4:	4805                	li	a6,1
     fb6:	2702                	fld	fa4,0(sp)
     fb8:	0000                	unimp
     fba:	5000                	lw	s0,32(s0)
     fbc:	1116                	slli	sp,sp,0x25
     fbe:	0004                	addi	s1,sp,0
     fc0:	0500                	addi	s0,sp,640
     fc2:	024a                	slli	tp,tp,0x12
     fc4:	0838                	addi	a4,sp,24
     fc6:	0000                	unimp
     fc8:	1658                	addi	a4,sp,804
     fca:	0311                	addi	t1,t1,4
     fcc:	0000                	unimp
     fce:	4d05                	li	s10,1
     fd0:	6b02                	ld	s6,0(sp)
     fd2:	0001                	nop
     fd4:	6000                	ld	s0,0(s0)
     fd6:	bc16                	fsd	ft5,56(sp)
     fd8:	0002                	0x2
     fda:	0500                	addi	s0,sp,640
     fdc:	024e                	slli	tp,tp,0x13
     fde:	00000027          	0x27
     fe2:	1668                	addi	a0,sp,812
     fe4:	0538                	addi	a4,sp,648
     fe6:	0000                	unimp
     fe8:	4f05                	li	t5,1
     fea:	6b02                	ld	s6,0(sp)
     fec:	0001                	nop
     fee:	7000                	ld	s0,32(s0)
     ff0:	7b16                	ld	s6,352(sp)
     ff2:	05000003          	lb	zero,80(zero)
     ff6:	0250                	addi	a2,sp,260
     ff8:	083e                	slli	a6,a6,0xf
     ffa:	0000                	unimp
     ffc:	1678                	addi	a4,sp,812
     ffe:	02da                	slli	t0,t0,0x16
    1000:	0000                	unimp
    1002:	5305                	li	t1,-31
    1004:	2702                	fld	fa4,0(sp)
    1006:	0000                	unimp
    1008:	8000                	0x8000
    100a:	4c16                	lw	s8,68(sp)
    100c:	0002                	0x2
    100e:	0500                	addi	s0,sp,640
    1010:	0254                	addi	a3,sp,260
    1012:	0552                	slli	a0,a0,0x14
    1014:	0000                	unimp
    1016:	1688                	addi	a0,sp,864
    1018:	00000397          	auipc	t2,0x0
    101c:	7705                	lui	a4,0xfffe1
    101e:	fa02                	sd	zero,304(sp)
    1020:	90000007          	0x90000007
    1024:	0000c217          	auipc	tp,0xc
    1028:	0500                	addi	s0,sp,640
    102a:	028a027b          	custom3	4,20,8,1
    102e:	0000                	unimp
    1030:	01f8                	addi	a4,sp,204
    1032:	0002ef17          	auipc	t5,0x2e
    1036:	0500                	addi	s0,sp,640
    1038:	027c                	addi	a5,sp,268
    103a:	0000024b          	fnmsub.s	ft4,ft0,ft0,ft0,rne
    103e:	0200                	addi	s0,sp,256
    1040:	0004ec17          	auipc	s8,0x4e
    1044:	0500                	addi	s0,sp,640
    1046:	0280                	addi	s0,sp,320
    1048:	0000084f          	fnmadd.s	fa6,ft0,ft0,ft0,rne
    104c:	0518                	addi	a4,sp,640
    104e:	00022e17          	auipc	t3,0x22
    1052:	0500                	addi	s0,sp,640
    1054:	0285                	addi	t0,t0,1
    1056:	05fe                	slli	a1,a1,0x1f
    1058:	0000                	unimp
    105a:	0520                	addi	s0,sp,648
    105c:	00021317          	auipc	t1,0x21
    1060:	0500                	addi	s0,sp,640
    1062:	0286                	slli	t0,t0,0x1
    1064:	0000085b          	custom2	16,0,0,0
    1068:	0538                	addi	a4,sp,648
    106a:	0f00                	addi	s0,sp,912
    106c:	5808                	lw	a0,48(s0)
    106e:	0005                	0x5
    1070:	0200                	addi	s0,sp,256
    1072:	0801                	addi	a6,a6,0
    1074:	00b9                	addi	ra,ra,14
    1076:	0000                	unimp
    1078:	03fc080f          	0x3fc080f
    107c:	0000                	unimp
    107e:	00007c13          	andi	s8,zero,0
    1082:	8300                	0x8300
    1084:	0005                	0x5
    1086:	1400                	addi	s0,sp,544
    1088:	041a                	slli	s0,s0,0x6
    108a:	0000                	unimp
    108c:	0b14                	addi	a3,sp,400
    108e:	0001                	nop
    1090:	1400                	addi	s0,sp,544
    1092:	00000583          	lb	a1,0(zero)
    1096:	2714                	fld	fa3,8(a4)
    1098:	0000                	unimp
    109a:	0000                	unimp
    109c:	0589080f          	0x589080f
    10a0:	0000                	unimp
    10a2:	5818                	lw	a4,48(s0)
    10a4:	0005                	0x5
    10a6:	0f00                	addi	s0,sp,912
    10a8:	6508                	ld	a0,8(a0)
    10aa:	0005                	0x5
    10ac:	1300                	addi	s0,sp,416
    10ae:	0071                	0x71
    10b0:	0000                	unimp
    10b2:	05b2                	slli	a1,a1,0xc
    10b4:	0000                	unimp
    10b6:	1a14                	addi	a3,sp,304
    10b8:	0004                	addi	s1,sp,0
    10ba:	1400                	addi	s0,sp,544
    10bc:	0000010b          	custom0	2,0,0,0
    10c0:	7114                	ld	a3,32(a0)
    10c2:	0000                	unimp
    10c4:	1400                	addi	s0,sp,544
    10c6:	00000027          	0x27
    10ca:	0f00                	addi	s0,sp,912
    10cc:	9408                	0x9408
    10ce:	0005                	0x5
    10d0:	1300                	addi	s0,sp,416
    10d2:	00000027          	0x27
    10d6:	05cc                	addi	a1,sp,708
    10d8:	0000                	unimp
    10da:	1a14                	addi	a3,sp,304
    10dc:	0004                	addi	s1,sp,0
    10de:	1400                	addi	s0,sp,544
    10e0:	0000010b          	custom0	2,0,0,0
    10e4:	0f00                	addi	s0,sp,912
    10e6:	b808                	fsd	fa0,48(s0)
    10e8:	0005                	0x5
    10ea:	0800                	addi	s0,sp,16
    10ec:	00000043          	fmadd.s	ft0,ft0,ft0,ft0,rne
    10f0:	05e2                	slli	a1,a1,0x18
    10f2:	0000                	unimp
    10f4:	cd09                	beqz	a0,110e <_ftext-0xeef2>
    10f6:	0000                	unimp
    10f8:	0200                	addi	s0,sp,256
    10fa:	0800                	addi	s0,sp,16
    10fc:	00000043          	fmadd.s	ft0,ft0,ft0,ft0,rne
    1100:	05f2                	slli	a1,a1,0x1c
    1102:	0000                	unimp
    1104:	cd09                	beqz	a0,111e <_ftext-0xeee2>
    1106:	0000                	unimp
    1108:	0000                	unimp
    110a:	0500                	addi	s0,sp,640
    110c:	03bc                	addi	a5,sp,456
    110e:	0000                	unimp
    1110:	1d05                	addi	s10,s10,-31
    1112:	d201                	beqz	a2,1012 <_ftext-0xefee>
    1114:	0002                	0x2
    1116:	1900                	addi	s0,sp,176
    1118:	000004d3          	fadd.s	fs1,ft0,ft0,rne
    111c:	0518                	addi	a4,sp,640
    111e:	0121                	addi	sp,sp,8
    1120:	00000633          	add	a2,zero,zero
    1124:	e416                	sd	t0,8(sp)
    1126:	05000003          	lb	zero,80(zero)
    112a:	06330123          	sb	gp,98(t1) # 220be <_gp+0x1039e>
    112e:	0000                	unimp
    1130:	1600                	addi	s0,sp,800
    1132:	02e8                	addi	a0,sp,332
    1134:	0000                	unimp
    1136:	2405                	addiw	s0,s0,1
    1138:	2701                	sext.w	a4,a4
    113a:	0000                	unimp
    113c:	0800                	addi	s0,sp,16
    113e:	b616                	fsd	ft5,296(sp)
    1140:	05000003          	lb	zero,80(zero)
    1144:	0125                	addi	sp,sp,9
    1146:	0639                	addi	a2,a2,14
    1148:	0000                	unimp
    114a:	0010                	addi	a2,sp,0
    114c:	05fe080f          	0x5fe080f
    1150:	0000                	unimp
    1152:	05f2080f          	0x5f2080f
    1156:	0000                	unimp
    1158:	3719                	addiw	a4,a4,-26
    115a:	0001                	nop
    115c:	0e00                	addi	s0,sp,784
    115e:	3d05                	addiw	s10,s10,-31
    1160:	7401                	lui	s0,0xfffe0
    1162:	0006                	0x6
    1164:	1600                	addi	s0,sp,800
    1166:	042a                	slli	s0,s0,0xa
    1168:	0000                	unimp
    116a:	3e05                	addiw	t3,t3,-31
    116c:	7401                	lui	s0,0xfffe0
    116e:	0006                	0x6
    1170:	0000                	unimp
    1172:	5716                	lw	a4,100(sp)
    1174:	0004                	addi	s1,sp,0
    1176:	0500                	addi	s0,sp,640
    1178:	0674013f 16060000 	0x160600000674013f
    1180:	00000473          	0x473
    1184:	4005                	0x4005
    1186:	5101                	li	sp,-32
    1188:	0000                	unimp
    118a:	0c00                	addi	s0,sp,528
    118c:	0800                	addi	s0,sp,16
    118e:	0051                	0x51
    1190:	0000                	unimp
    1192:	0684                	addi	s1,sp,832
    1194:	0000                	unimp
    1196:	cd09                	beqz	a0,11b0 <_ftext-0xee50>
    1198:	0000                	unimp
    119a:	0200                	addi	s0,sp,256
    119c:	1a00                	addi	s0,sp,304
    119e:	05d8                	addi	a4,sp,708
    11a0:	0258                	addi	a4,sp,260
    11a2:	0785                	addi	a5,a5,1
    11a4:	0000                	unimp
    11a6:	b716                	fsd	ft5,424(sp)
    11a8:	0004                	addi	s1,sp,0
    11aa:	0500                	addi	s0,sp,640
    11ac:	025a                	slli	tp,tp,0x16
    11ae:	0058                	addi	a4,sp,4
    11b0:	0000                	unimp
    11b2:	1600                	addi	s0,sp,800
    11b4:	045d                	addi	s0,s0,23
    11b6:	0000                	unimp
    11b8:	5b05                	li	s6,-31
    11ba:	5202                	lw	tp,32(sp)
    11bc:	0005                	0x5
    11be:	0800                	addi	s0,sp,16
    11c0:	0416                	slli	s0,s0,0x5
    11c2:	05000003          	lb	zero,80(zero)
    11c6:	025c                	addi	a5,sp,260
    11c8:	0785                	addi	a5,a5,1
    11ca:	0000                	unimp
    11cc:	1610                	addi	a2,sp,800
    11ce:	0000050f          	0x50f
    11d2:	5d05                	li	s10,-31
    11d4:	8102                	jr	sp
    11d6:	0001                	nop
    11d8:	2c00                	fld	fs0,24(s0)
    11da:	a716                	fsd	ft5,392(sp)
    11dc:	0002                	0x2
    11de:	0500                	addi	s0,sp,640
    11e0:	025e                	slli	tp,tp,0x17
    11e2:	00000027          	0x27
    11e6:	1650                	addi	a2,sp,804
    11e8:	03df 0000 5f05      	0x5f05000003df
    11ee:	5f02                	lw	t5,32(sp)
    11f0:	0000                	unimp
    11f2:	5800                	lw	s0,48(s0)
    11f4:	2516                	fld	fa0,320(sp)
    11f6:	0005                	0x5
    11f8:	0500                	addi	s0,sp,640
    11fa:	0260                	addi	s0,sp,268
    11fc:	0000063f 03ea1660 	0x3ea16600000063f
    1204:	0000                	unimp
    1206:	6105                	addi	sp,sp,32
    1208:	f502                	sd	zero,168(sp)
    120a:	0000                	unimp
    120c:	7000                	ld	s0,32(s0)
    120e:	2a16                	fld	fs4,320(sp)
    1210:	0005                	0x5
    1212:	0500                	addi	s0,sp,640
    1214:	0262                	slli	tp,tp,0x18
    1216:	00f5                	addi	ra,ra,29
    1218:	0000                	unimp
    121a:	1678                	addi	a4,sp,812
    121c:	01e0                	addi	s0,sp,204
    121e:	0000                	unimp
    1220:	6305                	lui	t1,0x1
    1222:	f502                	sd	zero,168(sp)
    1224:	0000                	unimp
    1226:	8000                	0x8000
    1228:	e216                	sd	t0,256(sp)
    122a:	0004                	addi	s1,sp,0
    122c:	0500                	addi	s0,sp,640
    122e:	0264                	addi	s1,sp,268
    1230:	0795                	addi	a5,a5,5
    1232:	0000                	unimp
    1234:	1688                	addi	a0,sp,864
    1236:	02f8                	addi	a4,sp,332
    1238:	0000                	unimp
    123a:	6505                	lui	a0,0x1
    123c:	a502                	fsd	ft0,136(sp)
    123e:	90000007          	0x90000007
    1242:	8016                	0x8016
    1244:	0004                	addi	s1,sp,0
    1246:	0500                	addi	s0,sp,640
    1248:	0266                	slli	tp,tp,0x19
    124a:	00000027          	0x27
    124e:	16a8                	addi	a0,sp,872
    1250:	026d                	addi	tp,tp,27
    1252:	0000                	unimp
    1254:	6705                	lui	a4,0x1
    1256:	f502                	sd	zero,168(sp)
    1258:	0000                	unimp
    125a:	ac00                	fsd	fs0,24(s0)
    125c:	d116                	sw	t0,160(sp)
    125e:	0001                	nop
    1260:	0500                	addi	s0,sp,640
    1262:	0268                	addi	a0,sp,268
    1264:	00f5                	addi	ra,ra,29
    1266:	0000                	unimp
    1268:	16b4                	addi	a3,sp,872
    126a:	025c                	addi	a5,sp,260
    126c:	0000                	unimp
    126e:	6905                	lui	s2,0x1
    1270:	f502                	sd	zero,168(sp)
    1272:	0000                	unimp
    1274:	bc00                	fsd	fs0,56(s0)
    1276:	4a16                	lw	s4,68(sp)
    1278:	0001                	nop
    127a:	0500                	addi	s0,sp,640
    127c:	026a                	slli	tp,tp,0x1a
    127e:	00f5                	addi	ra,ra,29
    1280:	0000                	unimp
    1282:	16c4                	addi	s1,sp,868
    1284:	0159                	addi	sp,sp,22
    1286:	0000                	unimp
    1288:	6b05                	lui	s6,0x1
    128a:	f502                	sd	zero,168(sp)
    128c:	0000                	unimp
    128e:	cc00                	sw	s0,24(s0)
    1290:	9c16                	add	s8,s8,t0
    1292:	05000003          	lb	zero,80(zero)
    1296:	026c                	addi	a1,sp,268
    1298:	00000027          	0x27
    129c:	00d4                	addi	a3,sp,68
    129e:	5808                	lw	a0,48(s0)
    12a0:	0005                	0x5
    12a2:	9500                	0x9500
    12a4:	09000007          	0x9000007
    12a8:	00cd                	addi	ra,ra,19
    12aa:	0000                	unimp
    12ac:	0019                	0x19
    12ae:	5808                	lw	a0,48(s0)
    12b0:	0005                	0x5
    12b2:	a500                	fsd	fs0,8(a0)
    12b4:	09000007          	0x9000007
    12b8:	00cd                	addi	ra,ra,19
    12ba:	0000                	unimp
    12bc:	58080007          	0x58080007
    12c0:	0005                	0x5
    12c2:	b500                	fsd	fs0,40(a0)
    12c4:	09000007          	0x9000007
    12c8:	00cd                	addi	ra,ra,19
    12ca:	0000                	unimp
    12cc:	681b0017          	auipc	zero,0x681b0
    12d0:	0501                	addi	a0,a0,0
    12d2:	0271                	addi	tp,tp,28
    12d4:	07da                	slli	a5,a5,0x16
    12d6:	0000                	unimp
    12d8:	4816                	lw	a6,68(sp)
    12da:	05000003          	lb	zero,80(zero) # 681b131c <_gp+0x6819f5fc>
    12de:	0274                	addi	a3,sp,268
    12e0:	07da                	slli	a5,a5,0x16
    12e2:	0000                	unimp
    12e4:	1600                	addi	s0,sp,800
    12e6:	0000033f ea027505 	0xea0275050000033f
    12ee:	f0000007          	0xf0000007
    12f2:	0800                	addi	s0,sp,16
    12f4:	02cc                	addi	a1,sp,324
    12f6:	0000                	unimp
    12f8:	07ea                	slli	a5,a5,0x1a
    12fa:	0000                	unimp
    12fc:	cd09                	beqz	a0,1316 <_ftext-0xecea>
    12fe:	0000                	unimp
    1300:	1d00                	addi	s0,sp,688
    1302:	0800                	addi	s0,sp,16
    1304:	0058                	addi	a4,sp,4
    1306:	0000                	unimp
    1308:	07fa                	slli	a5,a5,0x1e
    130a:	0000                	unimp
    130c:	cd09                	beqz	a0,1326 <_ftext-0xecda>
    130e:	0000                	unimp
    1310:	1d00                	addi	s0,sp,688
    1312:	1c00                	addi	s0,sp,560
    1314:	0168                	addi	a0,sp,140
    1316:	5605                	li	a2,-31
    1318:	1d02                	slli	s10,s10,0x20
    131a:	0008                	addi	a0,sp,0
    131c:	1d00                	addi	s0,sp,688
    131e:	00000423          	sb	zero,8(zero)
    1322:	6d05                	lui	s10,0x1
    1324:	8402                	jr	s0
    1326:	0006                	0x6
    1328:	1d00                	addi	s0,sp,688
    132a:	04fc                	addi	a5,sp,588
    132c:	0000                	unimp
    132e:	7605                	lui	a2,0xfffe1
    1330:	b502                	fsd	ft0,168(sp)
    1332:	00000007          	0x7
    1336:	5808                	lw	a0,48(s0)
    1338:	0005                	0x5
    133a:	2d00                	fld	fs0,24(a0)
    133c:	0008                	addi	a0,sp,0
    133e:	0900                	addi	s0,sp,144
    1340:	00cd                	addi	ra,ra,19
    1342:	0000                	unimp
    1344:	0018                	addi	a4,sp,0
    1346:	381e                	fld	fa6,480(sp)
    1348:	0008                	addi	a0,sp,0
    134a:	1400                	addi	s0,sp,544
    134c:	041a                	slli	s0,s0,0x6
    134e:	0000                	unimp
    1350:	0f00                	addi	s0,sp,912
    1352:	2d08                	fld	fa0,24(a0)
    1354:	0008                	addi	a0,sp,0
    1356:	0f00                	addi	s0,sp,912
    1358:	6b08                	ld	a0,16(a4)
    135a:	0001                	nop
    135c:	1e00                	addi	s0,sp,816
    135e:	0000084f          	fnmadd.s	fa6,ft0,ft0,ft0,rne
    1362:	2714                	fld	fa3,8(a4)
    1364:	0000                	unimp
    1366:	0000                	unimp
    1368:	0855080f          	0x855080f
    136c:	0000                	unimp
    136e:	0844080f          	0x844080f
    1372:	0000                	unimp
    1374:	f208                	sd	a0,32(a2)
    1376:	0005                	0x5
    1378:	6b00                	ld	s0,16(a4)
    137a:	0008                	addi	a0,sp,0
    137c:	0900                	addi	s0,sp,144
    137e:	00cd                	addi	ra,ra,19
    1380:	0000                	unimp
    1382:	0002                	0x2
    1384:	df1f 0005 0600      	0x6000005df1f
    138a:	00042017          	auipc	zero,0x42
    138e:	0900                	addi	s0,sp,144
    1390:	010dd003          	lhu	zero,16(s11)
    1394:	0000                	unimp
    1396:	0000                	unimp
    1398:	2000                	fld	fs0,0(s0)
    139a:	0494                	addi	a3,sp,576
    139c:	0000                	unimp
    139e:	fa05                	bnez	a2,12ce <_ftext-0xed32>
    13a0:	1a02                	slli	s4,s4,0x20
    13a2:	0004                	addi	s1,sp,0
    13a4:	0900                	addi	s0,sp,144
    13a6:	01153003          	ld	zero,17(a0) # 1011 <_ftext-0xefef>
    13aa:	0000                	unimp
    13ac:	0000                	unimp
    13ae:	2000                	fld	fs0,0(s0)
    13b0:	048d                	addi	s1,s1,3
    13b2:	0000                	unimp
    13b4:	fb05                	bnez	a4,12e4 <_ftext-0xed1c>
    13b6:	ac02                	fsd	ft0,24(sp)
    13b8:	0008                	addi	a0,sp,0
    13ba:	0900                	addi	s0,sp,144
    13bc:	01152803          	lw	a6,17(a0)
    13c0:	0000                	unimp
    13c2:	0000                	unimp
    13c4:	1800                	addi	s0,sp,48
    13c6:	041a                	slli	s0,s0,0x6
    13c8:	0000                	unimp
    13ca:	1c00                	addi	s0,sp,560
    13cc:	0001                	nop
    13ce:	0400                	addi	s0,sp,512
    13d0:	cf00                	sw	s0,24(a4)
    13d2:	0004                	addi	s1,sp,0
    13d4:	0800                	addi	s0,sp,16
    13d6:	0001                	nop
    13d8:	0001                	nop
    13da:	0c00                	addi	s0,sp,528
    13dc:	0685                	addi	a3,a3,1
    13de:	0000                	unimp
    13e0:	0254                	addi	a3,sp,260
    13e2:	0001                	nop
    13e4:	0000                	unimp
    13e6:	0000                	unimp
    13e8:	00a0                	addi	s0,sp,72
    13ea:	0000                	unimp
    13ec:	0000                	unimp
    13ee:	0000                	unimp
    13f0:	0735                	addi	a4,a4,13
    13f2:	0000                	unimp
    13f4:	0102                	slli	sp,sp,0x0
    13f6:	b206                	fsd	ft1,288(sp)
    13f8:	0000                	unimp
    13fa:	0200                	addi	s0,sp,256
    13fc:	0801                	addi	a6,a6,0
    13fe:	00b0                	addi	a2,sp,72
    1400:	0000                	unimp
    1402:	0202                	slli	tp,tp,0x0
    1404:	f605                	bnez	a2,132c <_ftext-0xecd4>
    1406:	0000                	unimp
    1408:	0200                	addi	s0,sp,256
    140a:	0702                	slli	a4,a4,0x0
    140c:	000e                	0xe
    140e:	0000                	unimp
    1410:	69050403          	lb	s0,1680(a0)
    1414:	746e                	ld	s0,248(sp)
    1416:	0200                	addi	s0,sp,256
    1418:	0704                	addi	s1,sp,896
    141a:	009a                	slli	ra,ra,0x6
    141c:	0000                	unimp
    141e:	0802                	slli	a6,a6,0x0
    1420:	0505                	addi	a0,a0,1
    1422:	0000                	unimp
    1424:	0200                	addi	s0,sp,256
    1426:	0708                	addi	a0,sp,896
    1428:	0095                	addi	ra,ra,5
    142a:	0000                	unimp
    142c:	0802                	slli	a6,a6,0x0
    142e:	00009007          	0x9007
    1432:	0200                	addi	s0,sp,256
    1434:	0508                	addi	a0,sp,640
    1436:	0000                	unimp
    1438:	0000                	unimp
    143a:	0802                	slli	a6,a6,0x0
    143c:	00012207          	flw	ft4,0(sp)
    1440:	0400                	addi	s0,sp,512
    1442:	000004db          	custom2	9,0,0,0
    1446:	d802                	sw	zero,48(sp)
    1448:	005a                	0x5a
    144a:	0000                	unimp
    144c:	0802                	slli	a6,a6,0x0
    144e:	ea04                	sd	s1,16(a2)
    1450:	0000                	unimp
    1452:	0200                	addi	s0,sp,256
    1454:	0801                	addi	a6,a6,0
    1456:	00b9                	addi	ra,ra,14
    1458:	0000                	unimp
    145a:	5d05                	li	s10,-31
    145c:	0006                	0x6
    145e:	0100                	addi	s0,sp,128
    1460:	541c                	lw	a5,40(s0)
    1462:	0102                	slli	sp,sp,0x0
    1464:	0000                	unimp
    1466:	0000                	unimp
    1468:	a000                	fsd	fs0,0(s0)
    146a:	0000                	unimp
    146c:	0000                	unimp
    146e:	0000                	unimp
    1470:	0100                	addi	s0,sp,128
    1472:	d69c                	sw	a5,40(a3)
    1474:	0000                	unimp
    1476:	0600                	addi	s0,sp,768
    1478:	0432                	slli	s0,s0,0xc
    147a:	0000                	unimp
    147c:	1e01                	addi	t3,t3,-32
    147e:	0076                	0x76
    1480:	0000                	unimp
    1482:	00f0                	addi	a2,sp,76
    1484:	0000                	unimp
    1486:	01006907          	0x1006907
    148a:	761f 0000 2600      	0x26000000761f
    1490:	0001                	nop
    1492:	0800                	addi	s0,sp,16
    1494:	02a4                	addi	s1,sp,328
    1496:	0001                	nop
    1498:	0000                	unimp
    149a:	0000                	unimp
    149c:	0114                	addi	a3,sp,128
    149e:	0000                	unimp
    14a0:	0900                	addi	s0,sp,144
    14a2:	00e1                	addi	ra,ra,24
    14a4:	0000                	unimp
    14a6:	00e1                	addi	ra,ra,24
    14a8:	0000                	unimp
    14aa:	000a                	0xa
    14ac:	00e7080b          	custom0	16,14,14,0
    14b0:	0000                	unimp
    14b2:	0d0c                	addi	a1,sp,656
    14b4:	0000066f          	jal	a2,14b4 <_ftext-0xeb4c>
    14b8:	1301                	addi	t1,t1,-32
    14ba:	00d6                	slli	ra,ra,0x15
    14bc:	0000                	unimp
    14be:	e10d                	bnez	a0,14e0 <_ftext-0xeb20>
    14c0:	0006                	0x6
    14c2:	0100                	addi	s0,sp,128
    14c4:	d614                	sw	a3,40(a2)
    14c6:	0000                	unimp
    14c8:	0d00                	addi	s0,sp,656
    14ca:	064a                	slli	a2,a2,0x12
    14cc:	0000                	unimp
    14ce:	1501                	addi	a0,a0,-32
    14d0:	00d6                	slli	ra,ra,0x15
    14d2:	0000                	unimp
    14d4:	fb0d                	bnez	a4,1406 <_ftext-0xebfa>
    14d6:	0006                	0x6
    14d8:	0100                	addi	s0,sp,128
    14da:	d616                	sw	t0,44(sp)
    14dc:	0000                	unimp
    14de:	0e00                	addi	s0,sp,784
    14e0:	06f5                	addi	a3,a3,29
    14e2:	0000                	unimp
    14e4:	06f5                	addi	a3,a3,29
    14e6:	0000                	unimp
    14e8:	1801                	addi	a6,a6,-32
    14ea:	4900                	lw	s0,16(a0)
    14ec:	0009                	0x9
    14ee:	0400                	addi	s0,sp,512
    14f0:	8700                	0x8700
    14f2:	0005                	0x5
    14f4:	0800                	addi	s0,sp,16
    14f6:	0001                	nop
    14f8:	0001                	nop
    14fa:	0c00                	addi	s0,sp,528
    14fc:	070c                	addi	a1,sp,896
    14fe:	0000                	unimp
    1500:	02f4                	addi	a3,sp,332
    1502:	0001                	nop
    1504:	0000                	unimp
    1506:	0000                	unimp
    1508:	0114                	addi	a3,sp,128
    150a:	0000                	unimp
    150c:	0000                	unimp
    150e:	0000                	unimp
    1510:	0912                	slli	s2,s2,0x4
    1512:	0000                	unimp
    1514:	0802                	slli	a6,a6,0x0
    1516:	0505                	addi	a0,a0,1
    1518:	0000                	unimp
    151a:	0200                	addi	s0,sp,256
    151c:	0708                	addi	a0,sp,896
    151e:	0095                	addi	ra,ra,5
    1520:	0000                	unimp
    1522:	69050403          	lb	s0,1680(a0)
    1526:	746e                	ld	s0,248(sp)
    1528:	0200                	addi	s0,sp,256
    152a:	0508                	addi	a0,sp,640
    152c:	0000                	unimp
    152e:	0000                	unimp
    1530:	0802                	slli	a6,a6,0x0
    1532:	ea04                	sd	s1,16(a2)
    1534:	0000                	unimp
    1536:	0200                	addi	s0,sp,256
    1538:	0601                	addi	a2,a2,0
    153a:	00b2                	slli	ra,ra,0xc
    153c:	0000                	unimp
    153e:	0102                	slli	sp,sp,0x0
    1540:	b008                	fsd	fa0,32(s0)
    1542:	0000                	unimp
    1544:	0200                	addi	s0,sp,256
    1546:	0502                	slli	a0,a0,0x0
    1548:	00f6                	slli	ra,ra,0x1d
    154a:	0000                	unimp
    154c:	0202                	slli	tp,tp,0x0
    154e:	00000e07          	0xe07
    1552:	0200                	addi	s0,sp,256
    1554:	0704                	addi	s1,sp,896
    1556:	009a                	slli	ra,ra,0x6
    1558:	0000                	unimp
    155a:	0802                	slli	a6,a6,0x0
    155c:	00009007          	0x9007
    1560:	0400                	addi	s0,sp,512
    1562:	00000363          	beqz	zero,1568 <_ftext-0xea98>
    1566:	1002                	0x1002
    1568:	003e                	0x3e
    156a:	0000                	unimp
    156c:	4604                	lw	s1,8(a2)
    156e:	0004                	addi	s1,sp,0
    1570:	0200                	addi	s0,sp,256
    1572:	00006f13          	ori	t5,zero,0
    1576:	0400                	addi	s0,sp,512
    1578:	04d9                	addi	s1,s1,22
    157a:	0000                	unimp
    157c:	1f02                	slli	t5,t5,0x20
    157e:	0029                	0x29
    1580:	0000                	unimp
    1582:	8504                	0x8504
    1584:	03000003          	lb	zero,48(zero) # 433ba <_gp+0x3169a>
    1588:	00003707          	fld	fa4,0(zero)
    158c:	0500                	addi	s0,sp,640
    158e:	031f 0000 6504      	0x65040000031f
    1594:	6801                	lui	a6,0x0
    1596:	0000                	unimp
    1598:	0600                	addi	s0,sp,768
    159a:	0504                	addi	s1,sp,640
    159c:	cd4a                	sw	s2,152(sp)
    159e:	0000                	unimp
    15a0:	0700                	addi	s0,sp,896
    15a2:	0319                	addi	t1,t1,6
    15a4:	0000                	unimp
    15a6:	4c05                	li	s8,1
    15a8:	00a2                	slli	ra,ra,0x8
    15aa:	0000                	unimp
    15ac:	0002cb07          	0x2cb07
    15b0:	0500                	addi	s0,sp,640
    15b2:	cd4d                	beqz	a0,166c <_ftext-0xe994>
    15b4:	0000                	unimp
    15b6:	0000                	unimp
    15b8:	5308                	lw	a0,32(a4)
    15ba:	0000                	unimp
    15bc:	dd00                	sw	s0,56(a0)
    15be:	0000                	unimp
    15c0:	0900                	addi	s0,sp,144
    15c2:	00dd                	addi	ra,ra,23
    15c4:	0000                	unimp
    15c6:	08020003          	lb	zero,128(tp) # d0a4 <_ftext-0x2f5c>
    15ca:	00012207          	flw	ft4,0(sp)
    15ce:	0a00                	addi	s0,sp,272
    15d0:	0508                	addi	a0,sp,640
    15d2:	00010547          	fmsub.s	fa0,ft2,ft0,ft0,rne
    15d6:	0b00                	addi	s0,sp,400
    15d8:	0430                	addi	a2,sp,520
    15da:	0000                	unimp
    15dc:	4905                	li	s2,1
    15de:	00000037          	lui	zero,0x0
    15e2:	0b00                	addi	s0,sp,400
    15e4:	0438                	addi	a4,sp,520
    15e6:	0000                	unimp
    15e8:	4e05                	li	t3,1
    15ea:	00ae                	slli	ra,ra,0xb
    15ec:	0000                	unimp
    15ee:	0004                	addi	s1,sp,0
    15f0:	c304                	sw	s1,0(a4)
    15f2:	05000003          	lb	zero,80(zero) # 50 <_ftext-0xffb0>
    15f6:	0000e44f          	fnmadd.s	fs0,ft1,ft0,ft0,unknown
    15fa:	0400                	addi	s0,sp,512
    15fc:	028e                	slli	t0,t0,0x3
    15fe:	0000                	unimp
    1600:	5305                	li	t1,-31
    1602:	00000097          	auipc	ra,0x0
    1606:	080c                	addi	a1,sp,16
    1608:	7804                	ld	s1,48(s0)
    160a:	0004                	addi	s1,sp,0
    160c:	0600                	addi	s0,sp,768
    160e:	6819                	lui	a6,0x6
    1610:	0000                	unimp
    1612:	0d00                	addi	s0,sp,656
    1614:	029f 0000 0620      	0x6200000029f
    161a:	7b2d                	lui	s6,0xfffeb
    161c:	0001                	nop
    161e:	0b00                	addi	s0,sp,400
    1620:	03e4                	addi	s1,sp,460
    1622:	0000                	unimp
    1624:	2f06                	fld	ft10,64(sp)
    1626:	0000017b          	custom3	2,0,0,0
    162a:	0e00                	addi	s0,sp,784
    162c:	6b5f 0600 3730      	0x373006006b5f
    1632:	0000                	unimp
    1634:	0800                	addi	s0,sp,16
    1636:	00041b0b          	0x41b0b
    163a:	0600                	addi	s0,sp,768
    163c:	3730                	fld	fa2,104(a4)
    163e:	0000                	unimp
    1640:	0c00                	addi	s0,sp,528
    1642:	0002880b          	custom0	16,5,0,0
    1646:	0600                	addi	s0,sp,768
    1648:	3730                	fld	fa2,104(a4)
    164a:	0000                	unimp
    164c:	1000                	addi	s0,sp,32
    164e:	0004c40b          	custom0	s0,9,0,0
    1652:	0600                	addi	s0,sp,768
    1654:	3730                	fld	fa2,104(a4)
    1656:	0000                	unimp
    1658:	1400                	addi	s0,sp,544
    165a:	5f0e                	lw	t5,224(sp)
    165c:	0078                	addi	a4,sp,12
    165e:	3106                	fld	ft2,96(sp)
    1660:	0181                	addi	gp,gp,0
    1662:	0000                	unimp
    1664:	0018                	addi	a4,sp,0
    1666:	0128080f          	0x128080f
    166a:	0000                	unimp
    166c:	1d08                	addi	a0,sp,688
    166e:	0001                	nop
    1670:	9100                	0x9100
    1672:	0001                	nop
    1674:	0900                	addi	s0,sp,144
    1676:	00dd                	addi	ra,ra,23
    1678:	0000                	unimp
    167a:	0000                	unimp
    167c:	c60d                	beqz	a2,16a6 <_ftext-0xe95a>
    167e:	0002                	0x2
    1680:	2400                	fld	fs0,8(s0)
    1682:	3506                	fld	fa0,96(sp)
    1684:	020a                	slli	tp,tp,0x2
    1686:	0000                	unimp
    1688:	0001ee0b          	custom0	t3,gp,0,0
    168c:	0600                	addi	s0,sp,768
    168e:	00003737          	lui	a4,0x3
    1692:	0000                	unimp
    1694:	00044e0b          	custom0	t3,8,0,0
    1698:	0600                	addi	s0,sp,768
    169a:	3738                	fld	fa4,104(a4)
    169c:	0000                	unimp
    169e:	0400                	addi	s0,sp,512
    16a0:	0002090b          	custom0	18,4,0,0
    16a4:	0600                	addi	s0,sp,768
    16a6:	3739                	addiw	a4,a4,-18
    16a8:	0000                	unimp
    16aa:	0800                	addi	s0,sp,16
    16ac:	00053d0b          	custom0	26,a0,zero,0
    16b0:	0600                	addi	s0,sp,768
    16b2:	373a                	fld	fa4,424(sp)
    16b4:	0000                	unimp
    16b6:	0c00                	addi	s0,sp,528
    16b8:	00034f0b          	custom0	t5,6,0,0
    16bc:	0600                	addi	s0,sp,768
    16be:	0000373b          	0x373b
    16c2:	1000                	addi	s0,sp,32
    16c4:	0003350b          	custom0	10,t1,zero,0
    16c8:	0600                	addi	s0,sp,768
    16ca:	373c                	fld	fa5,104(a4)
    16cc:	0000                	unimp
    16ce:	1400                	addi	s0,sp,544
    16d0:	0004c90b          	custom0	s2,9,0,0
    16d4:	0600                	addi	s0,sp,768
    16d6:	373d                	addiw	a4,a4,-17
    16d8:	0000                	unimp
    16da:	1800                	addi	s0,sp,48
    16dc:	0003a50b          	custom0	10,t2,0,0
    16e0:	0600                	addi	s0,sp,768
    16e2:	373e                	fld	fa4,488(sp)
    16e4:	0000                	unimp
    16e6:	1c00                	addi	s0,sp,560
    16e8:	0005040b          	custom0	8,10,0,0
    16ec:	0600                	addi	s0,sp,768
    16ee:	0000373f 10002000 	0x100020000000373f
    16f6:	0218                	addi	a4,sp,256
    16f8:	0000                	unimp
    16fa:	0208                	addi	a0,sp,256
    16fc:	4806                	lw	a6,64(sp)
    16fe:	0000024b          	fnmsub.s	ft4,ft0,ft0,ft0,rne
    1702:	00027b0b          	custom0	s6,tp,zero,0
    1706:	0600                	addi	s0,sp,768
    1708:	4b49                	li	s6,18
    170a:	0002                	0x2
    170c:	0000                	unimp
    170e:	2b11                	addiw	s6,s6,4
    1710:	0001                	nop
    1712:	0600                	addi	s0,sp,768
    1714:	4b4a                	lw	s6,144(sp)
    1716:	0002                	0x2
    1718:	0000                	unimp
    171a:	1101                	addi	sp,sp,-32
    171c:	046a                	slli	s0,s0,0x1a
    171e:	0000                	unimp
    1720:	4c06                	lw	s8,64(sp)
    1722:	011d                	addi	sp,sp,7
    1724:	0000                	unimp
    1726:	0200                	addi	s0,sp,256
    1728:	3d11                	addiw	s10,s10,-28
    172a:	0002                	0x2
    172c:	0600                	addi	s0,sp,768
    172e:	00011d4f          	fnmadd.s	fs10,ft2,ft0,ft0,rtz
    1732:	0400                	addi	s0,sp,512
    1734:	0002                	0x2
    1736:	1b08                	addi	a0,sp,432
    1738:	0001                	nop
    173a:	5b00                	lw	s0,48(a4)
    173c:	0002                	0x2
    173e:	0900                	addi	s0,sp,144
    1740:	00dd                	addi	ra,ra,23
    1742:	0000                	unimp
    1744:	001f c210 0000      	0xc210001f
    174a:	1800                	addi	s0,sp,48
    174c:	9a5b0603          	lb	a2,-1627(s6) # fffffffffffea9a5 <_gp+0xfffffffffffd8c85>
    1750:	0002                	0x2
    1752:	0b00                	addi	s0,sp,400
    1754:	03e4                	addi	s1,sp,460
    1756:	0000                	unimp
    1758:	5c06                	lw	s8,96(sp)
    175a:	029a                	slli	t0,t0,0x6
    175c:	0000                	unimp
    175e:	0b00                	addi	s0,sp,400
    1760:	03fc                	addi	a5,sp,460
    1762:	0000                	unimp
    1764:	5d06                	lw	s10,96(sp)
    1766:	00000037          	lui	zero,0x0
    176a:	0b08                	addi	a0,sp,400
    176c:	00000283          	lb	t0,0(zero) # 0 <_ftext-0x10000>
    1770:	5f06                	lw	t5,96(sp)
    1772:	02a0                	addi	s0,sp,328
    1774:	0000                	unimp
    1776:	1110                	addi	a2,sp,160
    1778:	0218                	addi	a4,sp,256
    177a:	0000                	unimp
    177c:	6006                	0x6006
    177e:	020a                	slli	tp,tp,0x2
    1780:	0000                	unimp
    1782:	0110                	addi	a2,sp,128
    1784:	0f00                	addi	s0,sp,912
    1786:	5b08                	lw	a0,48(a4)
    1788:	0002                	0x2
    178a:	0800                	addi	s0,sp,16
    178c:	02b0                	addi	a2,sp,328
    178e:	0000                	unimp
    1790:	02b0                	addi	a2,sp,328
    1792:	0000                	unimp
    1794:	dd09                	beqz	a0,16ae <_ftext-0xe952>
    1796:	0000                	unimp
    1798:	1f00                	addi	s0,sp,944
    179a:	0f00                	addi	s0,sp,912
    179c:	b608                	fsd	fa0,40(a2)
    179e:	0002                	0x2
    17a0:	1200                	addi	s0,sp,288
    17a2:	af0d                	j	1ed4 <_ftext-0xe12c>
    17a4:	10000003          	lb	zero,256(zero)
    17a8:	7306                	ld	t1,96(sp)
    17aa:	02dc                	addi	a5,sp,324
    17ac:	0000                	unimp
    17ae:	0002030b          	custom0	6,4,0,0
    17b2:	0600                	addi	s0,sp,768
    17b4:	dc74                	sw	a3,124(s0)
    17b6:	0002                	0x2
    17b8:	0000                	unimp
    17ba:	0009a90b          	custom0	18,s3,0,0
    17be:	0600                	addi	s0,sp,768
    17c0:	3775                	addiw	a4,a4,-3
    17c2:	0000                	unimp
    17c4:	0800                	addi	s0,sp,16
    17c6:	0f00                	addi	s0,sp,912
    17c8:	5308                	lw	a0,32(a4)
    17ca:	0000                	unimp
    17cc:	0d00                	addi	s0,sp,656
    17ce:	03ce                	slli	t2,t2,0x13
    17d0:	0000                	unimp
    17d2:	06b0                	addi	a2,sp,840
    17d4:	00040cb3          	add	s9,s0,zero
    17d8:	0e00                	addi	s0,sp,784
    17da:	705f 0600 dcb4      	0xdcb40600705f
    17e0:	0002                	0x2
    17e2:	0000                	unimp
    17e4:	5f0e                	lw	t5,224(sp)
    17e6:	0072                	0x72
    17e8:	b506                	fsd	ft1,168(sp)
    17ea:	00000037          	lui	zero,0x0
    17ee:	0e08                	addi	a0,sp,784
    17f0:	775f 0600 37b6      	0x37b60600775f
    17f6:	0000                	unimp
    17f8:	0c00                	addi	s0,sp,528
    17fa:	0002360b          	custom0	12,tp,zero,0
    17fe:	0600                	addi	s0,sp,768
    1800:	00005ab7          	lui	s5,0x5
    1804:	1000                	addi	s0,sp,32
    1806:	0002e20b          	custom0	tp,t0,0,0
    180a:	0600                	addi	s0,sp,768
    180c:	5ab8                	lw	a4,112(a3)
    180e:	0000                	unimp
    1810:	1200                	addi	s0,sp,288
    1812:	5f0e                	lw	t5,224(sp)
    1814:	6662                	ld	a2,24(sp)
    1816:	0600                	addi	s0,sp,768
    1818:	b7b9                	j	1766 <_ftext-0xe89a>
    181a:	0002                	0x2
    181c:	1800                	addi	s0,sp,48
    181e:	0001c80b          	custom0	a6,3,0,0
    1822:	0600                	addi	s0,sp,768
    1824:	37ba                	fld	fa5,424(sp)
    1826:	0000                	unimp
    1828:	2800                	fld	fs0,16(s0)
    182a:	0002260b          	custom0	12,tp,0,0
    182e:	0600                	addi	s0,sp,768
    1830:	1bc1                	addi	s7,s7,-16
    1832:	0001                	nop
    1834:	3000                	fld	fs0,32(s0)
    1836:	0002b60b          	custom0	12,t0,zero,0
    183a:	0600                	addi	s0,sp,768
    183c:	00056fc3          	fmadd.s	ft11,fa0,ft0,ft0,unknown
    1840:	3800                	fld	fs0,48(s0)
    1842:	00032e0b          	custom0	28,t1,0,0
    1846:	0600                	addi	s0,sp,768
    1848:	9ec5                	0x9ec5
    184a:	0005                	0x5
    184c:	4000                	lw	s0,0(s0)
    184e:	0004400b          	custom0	zero,8,0,0
    1852:	0600                	addi	s0,sp,768
    1854:	c2c8                	sw	a0,4(a3)
    1856:	0005                	0x5
    1858:	4800                	lw	s0,16(s0)
    185a:	00051e0b          	0x51e0b
    185e:	0600                	addi	s0,sp,768
    1860:	dcc9                	beqz	s1,17fa <_ftext-0xe806>
    1862:	0005                	0x5
    1864:	5000                	lw	s0,32(s0)
    1866:	5f0e                	lw	t5,224(sp)
    1868:	6275                	lui	tp,0x1d
    186a:	0600                	addi	s0,sp,768
    186c:	b7cc                	fsd	fa1,168(a5)
    186e:	0002                	0x2
    1870:	5800                	lw	s0,48(s0)
    1872:	5f0e                	lw	t5,224(sp)
    1874:	7075                	0x7075
    1876:	0600                	addi	s0,sp,768
    1878:	dccd                	beqz	s1,1832 <_ftext-0xe7ce>
    187a:	0002                	0x2
    187c:	6800                	ld	s0,16(s0)
    187e:	5f0e                	lw	t5,224(sp)
    1880:	7275                	lui	tp,0xffffd
    1882:	0600                	addi	s0,sp,768
    1884:	37ce                	fld	fa5,240(sp)
    1886:	0000                	unimp
    1888:	7000                	ld	s0,32(s0)
    188a:	0001fd0b          	custom0	s10,gp,zero,0
    188e:	0600                	addi	s0,sp,768
    1890:	e2d1                	bnez	a3,1914 <_ftext-0xe6ec>
    1892:	0005                	0x5
    1894:	7400                	ld	s0,40(s0)
    1896:	0004f60b          	custom0	a2,s1,zero,0
    189a:	0600                	addi	s0,sp,768
    189c:	f2d2                	sd	s4,352(sp)
    189e:	0005                	0x5
    18a0:	7700                	ld	s0,40(a4)
    18a2:	5f0e                	lw	t5,224(sp)
    18a4:	626c                	ld	a1,192(a2)
    18a6:	0600                	addi	s0,sp,768
    18a8:	b7d5                	j	188c <_ftext-0xe774>
    18aa:	0002                	0x2
    18ac:	7800                	ld	s0,48(s0)
    18ae:	000a1d0b          	0xa1d0b
    18b2:	0600                	addi	s0,sp,768
    18b4:	37d8                	fld	fa4,168(a5)
    18b6:	0000                	unimp
    18b8:	8800                	0x8800
    18ba:	0002540b          	0x2540b
    18be:	0600                	addi	s0,sp,768
    18c0:	76d9                	lui	a3,0xffff6
    18c2:	0000                	unimp
    18c4:	9000                	0x9000
    18c6:	0005e50b          	custom0	a0,a1,0,0
    18ca:	0600                	addi	s0,sp,768
    18cc:	2adc                	fld	fa5,144(a3)
    18ce:	0004                	addi	s1,sp,0
    18d0:	9800                	0x9800
    18d2:	0007f00b          	custom0	zero,a5,zero,0
    18d6:	0600                	addi	s0,sp,768
    18d8:	10e0                	addi	s0,sp,108
    18da:	0001                	nop
    18dc:	a000                	fsd	fs0,0(s0)
    18de:	0003d60b          	0x3d60b
    18e2:	0600                	addi	s0,sp,768
    18e4:	05e2                	slli	a1,a1,0x18
    18e6:	0001                	nop
    18e8:	a400                	fsd	fs0,8(s0)
    18ea:	0003260b          	custom0	12,t1,0,0
    18ee:	0600                	addi	s0,sp,768
    18f0:	000037e3          	0x37e3
    18f4:	ac00                	fsd	fs0,24(s0)
    18f6:	1300                	addi	s0,sp,416
    18f8:	008c                	addi	a1,sp,64
    18fa:	0000                	unimp
    18fc:	042a                	slli	s0,s0,0xa
    18fe:	0000                	unimp
    1900:	2a14                	fld	fa3,16(a2)
    1902:	0004                	addi	s1,sp,0
    1904:	1400                	addi	s0,sp,544
    1906:	0000011b          	sext.w	sp,zero
    190a:	6214                	ld	a3,0(a2)
    190c:	0005                	0x5
    190e:	1400                	addi	s0,sp,544
    1910:	00000037          	lui	zero,0x0
    1914:	0f00                	addi	s0,sp,912
    1916:	3008                	fld	fa0,32(s0)
    1918:	0004                	addi	s1,sp,0
    191a:	1500                	addi	s0,sp,672
    191c:	00000423          	sb	zero,8(zero) # 8 <_ftext-0xfff8>
    1920:	0748                	addi	a0,sp,900
    1922:	3906                	fld	fs2,96(sp)
    1924:	6202                	ld	tp,0(sp)
    1926:	0005                	0x5
    1928:	1600                	addi	s0,sp,800
    192a:	0862                	slli	a6,a6,0x18
    192c:	0000                	unimp
    192e:	3b06                	fld	fs6,96(sp)
    1930:	3702                	fld	fa4,32(sp)
    1932:	0000                	unimp
    1934:	0000                	unimp
    1936:	4516                	lw	a0,68(sp)
    1938:	0002                	0x2
    193a:	0600                	addi	s0,sp,768
    193c:	0240                	addi	s0,sp,260
    193e:	0649                	addi	a2,a2,18
    1940:	0000                	unimp
    1942:	1608                	addi	a0,sp,800
    1944:	02d2                	slli	t0,t0,0x14
    1946:	0000                	unimp
    1948:	4006                	0x4006
    194a:	4902                	lw	s2,0(sp)
    194c:	0006                	0x6
    194e:	1000                	addi	s0,sp,32
    1950:	9716                	add	a4,a4,t0
    1952:	0002                	0x2
    1954:	0600                	addi	s0,sp,768
    1956:	0240                	addi	s0,sp,260
    1958:	0649                	addi	a2,a2,18
    195a:	0000                	unimp
    195c:	1618                	addi	a4,sp,800
    195e:	000003f7          	0x3f7
    1962:	4206                	lw	tp,64(sp)
    1964:	3702                	fld	fa4,32(sp)
    1966:	0000                	unimp
    1968:	2000                	fld	fs0,0(s0)
    196a:	3f16                	fld	ft10,352(sp)
    196c:	0001                	nop
    196e:	0600                	addi	s0,sp,768
    1970:	082d0243          	fmadd.s	ft4,fs10,ft2,ft1,rne
    1974:	0000                	unimp
    1976:	1624                	addi	s1,sp,808
    1978:	04a0                	addi	s0,sp,584
    197a:	0000                	unimp
    197c:	4506                	lw	a0,64(sp)
    197e:	3702                	fld	fa4,32(sp)
    1980:	0000                	unimp
    1982:	4000                	lw	s0,0(s0)
    1984:	0116                	slli	sp,sp,0x5
    1986:	0004                	addi	s1,sp,0
    1988:	0600                	addi	s0,sp,768
    198a:	0246                	slli	tp,tp,0x11
    198c:	00000593          	li	a1,0
    1990:	1648                	addi	a0,sp,804
    1992:	0358                	addi	a4,sp,388
    1994:	0000                	unimp
    1996:	4806                	lw	a6,64(sp)
    1998:	3702                	fld	fa4,32(sp)
    199a:	0000                	unimp
    199c:	5000                	lw	s0,32(s0)
    199e:	1116                	slli	sp,sp,0x25
    19a0:	0004                	addi	s1,sp,0
    19a2:	0600                	addi	s0,sp,768
    19a4:	024a                	slli	tp,tp,0x12
    19a6:	0848                	addi	a0,sp,20
    19a8:	0000                	unimp
    19aa:	1658                	addi	a4,sp,804
    19ac:	0311                	addi	t1,t1,4
    19ae:	0000                	unimp
    19b0:	4d06                	lw	s10,64(sp)
    19b2:	7b02                	ld	s6,32(sp)
    19b4:	0001                	nop
    19b6:	6000                	ld	s0,0(s0)
    19b8:	bc16                	fsd	ft5,56(sp)
    19ba:	0002                	0x2
    19bc:	0600                	addi	s0,sp,768
    19be:	024e                	slli	tp,tp,0x13
    19c0:	00000037          	lui	zero,0x0
    19c4:	1668                	addi	a0,sp,812
    19c6:	0538                	addi	a4,sp,648
    19c8:	0000                	unimp
    19ca:	4f06                	lw	t5,64(sp)
    19cc:	7b02                	ld	s6,32(sp)
    19ce:	0001                	nop
    19d0:	7000                	ld	s0,32(s0)
    19d2:	7b16                	ld	s6,352(sp)
    19d4:	06000003          	lb	zero,96(zero) # 60 <_ftext-0xffa0>
    19d8:	0250                	addi	a2,sp,260
    19da:	084e                	slli	a6,a6,0x13
    19dc:	0000                	unimp
    19de:	1678                	addi	a4,sp,812
    19e0:	02da                	slli	t0,t0,0x16
    19e2:	0000                	unimp
    19e4:	5306                	lw	t1,96(sp)
    19e6:	3702                	fld	fa4,32(sp)
    19e8:	0000                	unimp
    19ea:	8000                	0x8000
    19ec:	4c16                	lw	s8,68(sp)
    19ee:	0002                	0x2
    19f0:	0600                	addi	s0,sp,768
    19f2:	0254                	addi	a3,sp,260
    19f4:	0562                	slli	a0,a0,0x18
    19f6:	0000                	unimp
    19f8:	1688                	addi	a0,sp,864
    19fa:	00000397          	auipc	t2,0x0
    19fe:	7706                	ld	a4,96(sp)
    1a00:	0a02                	slli	s4,s4,0x0
    1a02:	0008                	addi	a0,sp,0
    1a04:	9000                	0x9000
    1a06:	0000c217          	auipc	tp,0xc
    1a0a:	0600                	addi	s0,sp,768
    1a0c:	029a027b          	custom3	4,20,9,1
    1a10:	0000                	unimp
    1a12:	01f8                	addi	a4,sp,204
    1a14:	0002ef17          	auipc	t5,0x2e
    1a18:	0600                	addi	s0,sp,768
    1a1a:	027c                	addi	a5,sp,268
    1a1c:	0000025b          	custom2	4,0,0,0
    1a20:	0200                	addi	s0,sp,256
    1a22:	0004ec17          	auipc	s8,0x4e
    1a26:	0600                	addi	s0,sp,768
    1a28:	0280                	addi	s0,sp,320
    1a2a:	085f 0000 0518      	0x5180000085f
    1a30:	00022e17          	auipc	t3,0x22
    1a34:	0600                	addi	s0,sp,768
    1a36:	0285                	addi	t0,t0,1
    1a38:	060e                	slli	a2,a2,0x3
    1a3a:	0000                	unimp
    1a3c:	0520                	addi	s0,sp,648
    1a3e:	00021317          	auipc	t1,0x21
    1a42:	0600                	addi	s0,sp,768
    1a44:	0286                	slli	t0,t0,0x1
    1a46:	0000086b          	0x86b
    1a4a:	0538                	addi	a4,sp,648
    1a4c:	0f00                	addi	s0,sp,912
    1a4e:	6808                	ld	a0,16(s0)
    1a50:	0005                	0x5
    1a52:	0200                	addi	s0,sp,256
    1a54:	0801                	addi	a6,a6,0
    1a56:	00b9                	addi	ra,ra,14
    1a58:	0000                	unimp
    1a5a:	040c080f          	0x40c080f
    1a5e:	0000                	unimp
    1a60:	00008c13          	mv	s8,ra
    1a64:	9300                	0x9300
    1a66:	0005                	0x5
    1a68:	1400                	addi	s0,sp,544
    1a6a:	042a                	slli	s0,s0,0xa
    1a6c:	0000                	unimp
    1a6e:	1b14                	addi	a3,sp,432
    1a70:	0001                	nop
    1a72:	1400                	addi	s0,sp,544
    1a74:	00000593          	li	a1,0
    1a78:	3714                	fld	fa3,40(a4)
    1a7a:	0000                	unimp
    1a7c:	0000                	unimp
    1a7e:	0599080f          	0x599080f
    1a82:	0000                	unimp
    1a84:	6818                	ld	a4,16(s0)
    1a86:	0005                	0x5
    1a88:	0f00                	addi	s0,sp,912
    1a8a:	7508                	ld	a0,40(a0)
    1a8c:	0005                	0x5
    1a8e:	1300                	addi	s0,sp,416
    1a90:	0081                	addi	ra,ra,0
    1a92:	0000                	unimp
    1a94:	05c2                	slli	a1,a1,0x10
    1a96:	0000                	unimp
    1a98:	2a14                	fld	fa3,16(a2)
    1a9a:	0004                	addi	s1,sp,0
    1a9c:	1400                	addi	s0,sp,544
    1a9e:	0000011b          	sext.w	sp,zero
    1aa2:	8114                	0x8114
    1aa4:	0000                	unimp
    1aa6:	1400                	addi	s0,sp,544
    1aa8:	00000037          	lui	zero,0x0
    1aac:	0f00                	addi	s0,sp,912
    1aae:	a408                	fsd	fa0,8(s0)
    1ab0:	0005                	0x5
    1ab2:	1300                	addi	s0,sp,416
    1ab4:	00000037          	lui	zero,0x0
    1ab8:	05dc                	addi	a5,sp,708
    1aba:	0000                	unimp
    1abc:	2a14                	fld	fa3,16(a2)
    1abe:	0004                	addi	s1,sp,0
    1ac0:	1400                	addi	s0,sp,544
    1ac2:	0000011b          	sext.w	sp,zero
    1ac6:	0f00                	addi	s0,sp,912
    1ac8:	c808                	sw	a0,16(s0)
    1aca:	0005                	0x5
    1acc:	0800                	addi	s0,sp,16
    1ace:	00000053          	fadd.s	ft0,ft0,ft0,rne
    1ad2:	05f2                	slli	a1,a1,0x1c
    1ad4:	0000                	unimp
    1ad6:	dd09                	beqz	a0,19f0 <_ftext-0xe610>
    1ad8:	0000                	unimp
    1ada:	0200                	addi	s0,sp,256
    1adc:	0800                	addi	s0,sp,16
    1ade:	00000053          	fadd.s	ft0,ft0,ft0,rne
    1ae2:	0602                	slli	a2,a2,0x0
    1ae4:	0000                	unimp
    1ae6:	dd09                	beqz	a0,1a00 <_ftext-0xe600>
    1ae8:	0000                	unimp
    1aea:	0000                	unimp
    1aec:	0500                	addi	s0,sp,640
    1aee:	03bc                	addi	a5,sp,456
    1af0:	0000                	unimp
    1af2:	1d06                	slli	s10,s10,0x21
    1af4:	e201                	bnez	a2,1af4 <_ftext-0xe50c>
    1af6:	0002                	0x2
    1af8:	1900                	addi	s0,sp,176
    1afa:	000004d3          	fadd.s	fs1,ft0,ft0,rne
    1afe:	0618                	addi	a4,sp,768
    1b00:	0121                	addi	sp,sp,8
    1b02:	00000643          	fmadd.s	fa2,ft0,ft0,ft0,rne
    1b06:	e416                	sd	t0,8(sp)
    1b08:	06000003          	lb	zero,96(zero) # 60 <_ftext-0xffa0>
    1b0c:	06430123          	sb	tp,98(t1) # 22aa0 <_gp+0x10d80>
    1b10:	0000                	unimp
    1b12:	1600                	addi	s0,sp,800
    1b14:	02e8                	addi	a0,sp,332
    1b16:	0000                	unimp
    1b18:	2406                	fld	fs0,64(sp)
    1b1a:	3701                	addiw	a4,a4,-32
    1b1c:	0000                	unimp
    1b1e:	0800                	addi	s0,sp,16
    1b20:	b616                	fsd	ft5,296(sp)
    1b22:	06000003          	lb	zero,96(zero)
    1b26:	0125                	addi	sp,sp,9
    1b28:	0649                	addi	a2,a2,18
    1b2a:	0000                	unimp
    1b2c:	0010                	addi	a2,sp,0
    1b2e:	060e080f          	0x60e080f
    1b32:	0000                	unimp
    1b34:	0602080f          	0x602080f
    1b38:	0000                	unimp
    1b3a:	3719                	addiw	a4,a4,-26
    1b3c:	0001                	nop
    1b3e:	0e00                	addi	s0,sp,784
    1b40:	3d06                	fld	fs10,96(sp)
    1b42:	8401                	srai	s0,s0,0x0
    1b44:	0006                	0x6
    1b46:	1600                	addi	s0,sp,800
    1b48:	042a                	slli	s0,s0,0xa
    1b4a:	0000                	unimp
    1b4c:	3e06                	fld	ft8,96(sp)
    1b4e:	8401                	srai	s0,s0,0x0
    1b50:	0006                	0x6
    1b52:	0000                	unimp
    1b54:	5716                	lw	a4,100(sp)
    1b56:	0004                	addi	s1,sp,0
    1b58:	0600                	addi	s0,sp,768
    1b5a:	0684013f 16060000 	0x160600000684013f
    1b62:	00000473          	0x473
    1b66:	4006                	0x4006
    1b68:	6101                	addi	sp,sp,0
    1b6a:	0000                	unimp
    1b6c:	0c00                	addi	s0,sp,528
    1b6e:	0800                	addi	s0,sp,16
    1b70:	0061                	0x61
    1b72:	0000                	unimp
    1b74:	0694                	addi	a3,sp,832
    1b76:	0000                	unimp
    1b78:	dd09                	beqz	a0,1a92 <_ftext-0xe56e>
    1b7a:	0000                	unimp
    1b7c:	0200                	addi	s0,sp,256
    1b7e:	1a00                	addi	s0,sp,304
    1b80:	06d8                	addi	a4,sp,836
    1b82:	0258                	addi	a4,sp,260
    1b84:	0795                	addi	a5,a5,5
    1b86:	0000                	unimp
    1b88:	b716                	fsd	ft5,424(sp)
    1b8a:	0004                	addi	s1,sp,0
    1b8c:	0600                	addi	s0,sp,768
    1b8e:	025a                	slli	tp,tp,0x16
    1b90:	0068                	addi	a0,sp,12
    1b92:	0000                	unimp
    1b94:	1600                	addi	s0,sp,800
    1b96:	045d                	addi	s0,s0,23
    1b98:	0000                	unimp
    1b9a:	5b06                	lw	s6,96(sp)
    1b9c:	6202                	ld	tp,0(sp)
    1b9e:	0005                	0x5
    1ba0:	0800                	addi	s0,sp,16
    1ba2:	0416                	slli	s0,s0,0x5
    1ba4:	06000003          	lb	zero,96(zero)
    1ba8:	025c                	addi	a5,sp,260
    1baa:	0795                	addi	a5,a5,5
    1bac:	0000                	unimp
    1bae:	1610                	addi	a2,sp,800
    1bb0:	0000050f          	0x50f
    1bb4:	5d06                	lw	s10,96(sp)
    1bb6:	9102                	jalr	sp
    1bb8:	0001                	nop
    1bba:	2c00                	fld	fs0,24(s0)
    1bbc:	a716                	fsd	ft5,392(sp)
    1bbe:	0002                	0x2
    1bc0:	0600                	addi	s0,sp,768
    1bc2:	025e                	slli	tp,tp,0x17
    1bc4:	00000037          	lui	zero,0x0
    1bc8:	1650                	addi	a2,sp,804
    1bca:	03df 0000 5f06      	0x5f06000003df
    1bd0:	6f02                	ld	t5,0(sp)
    1bd2:	0000                	unimp
    1bd4:	5800                	lw	s0,48(s0)
    1bd6:	2516                	fld	fa0,320(sp)
    1bd8:	0005                	0x5
    1bda:	0600                	addi	s0,sp,768
    1bdc:	0260                	addi	s0,sp,268
    1bde:	0000064f          	fnmadd.s	fa2,ft0,ft0,ft0,rne
    1be2:	1660                	addi	s0,sp,812
    1be4:	03ea                	slli	t2,t2,0x1a
    1be6:	0000                	unimp
    1be8:	6106                	ld	sp,64(sp)
    1bea:	0502                	slli	a0,a0,0x0
    1bec:	0001                	nop
    1bee:	7000                	ld	s0,32(s0)
    1bf0:	2a16                	fld	fs4,320(sp)
    1bf2:	0005                	0x5
    1bf4:	0600                	addi	s0,sp,768
    1bf6:	0262                	slli	tp,tp,0x18
    1bf8:	0105                	addi	sp,sp,1
    1bfa:	0000                	unimp
    1bfc:	1678                	addi	a4,sp,812
    1bfe:	01e0                	addi	s0,sp,204
    1c00:	0000                	unimp
    1c02:	6306                	ld	t1,64(sp)
    1c04:	0502                	slli	a0,a0,0x0
    1c06:	0001                	nop
    1c08:	8000                	0x8000
    1c0a:	e216                	sd	t0,256(sp)
    1c0c:	0004                	addi	s1,sp,0
    1c0e:	0600                	addi	s0,sp,768
    1c10:	0264                	addi	s1,sp,268
    1c12:	07a5                	addi	a5,a5,9
    1c14:	0000                	unimp
    1c16:	1688                	addi	a0,sp,864
    1c18:	02f8                	addi	a4,sp,332
    1c1a:	0000                	unimp
    1c1c:	6506                	ld	a0,64(sp)
    1c1e:	b502                	fsd	ft0,168(sp)
    1c20:	90000007          	0x90000007
    1c24:	8016                	0x8016
    1c26:	0004                	addi	s1,sp,0
    1c28:	0600                	addi	s0,sp,768
    1c2a:	0266                	slli	tp,tp,0x19
    1c2c:	00000037          	lui	zero,0x0
    1c30:	16a8                	addi	a0,sp,872
    1c32:	026d                	addi	tp,tp,27
    1c34:	0000                	unimp
    1c36:	6706                	ld	a4,64(sp)
    1c38:	0502                	slli	a0,a0,0x0
    1c3a:	0001                	nop
    1c3c:	ac00                	fsd	fs0,24(s0)
    1c3e:	d116                	sw	t0,160(sp)
    1c40:	0001                	nop
    1c42:	0600                	addi	s0,sp,768
    1c44:	0268                	addi	a0,sp,268
    1c46:	0105                	addi	sp,sp,1
    1c48:	0000                	unimp
    1c4a:	16b4                	addi	a3,sp,872
    1c4c:	025c                	addi	a5,sp,260
    1c4e:	0000                	unimp
    1c50:	6906                	ld	s2,64(sp)
    1c52:	0502                	slli	a0,a0,0x0
    1c54:	0001                	nop
    1c56:	bc00                	fsd	fs0,56(s0)
    1c58:	4a16                	lw	s4,68(sp)
    1c5a:	0001                	nop
    1c5c:	0600                	addi	s0,sp,768
    1c5e:	026a                	slli	tp,tp,0x1a
    1c60:	0105                	addi	sp,sp,1
    1c62:	0000                	unimp
    1c64:	16c4                	addi	s1,sp,868
    1c66:	0159                	addi	sp,sp,22
    1c68:	0000                	unimp
    1c6a:	6b06                	ld	s6,64(sp)
    1c6c:	0502                	slli	a0,a0,0x0
    1c6e:	0001                	nop
    1c70:	cc00                	sw	s0,24(s0)
    1c72:	9c16                	add	s8,s8,t0
    1c74:	06000003          	lb	zero,96(zero) # 60 <_ftext-0xffa0>
    1c78:	026c                	addi	a1,sp,268
    1c7a:	00000037          	lui	zero,0x0
    1c7e:	00d4                	addi	a3,sp,68
    1c80:	6808                	ld	a0,16(s0)
    1c82:	0005                	0x5
    1c84:	a500                	fsd	fs0,8(a0)
    1c86:	09000007          	0x9000007
    1c8a:	00dd                	addi	ra,ra,23
    1c8c:	0000                	unimp
    1c8e:	0019                	0x19
    1c90:	6808                	ld	a0,16(s0)
    1c92:	0005                	0x5
    1c94:	b500                	fsd	fs0,40(a0)
    1c96:	09000007          	0x9000007
    1c9a:	00dd                	addi	ra,ra,23
    1c9c:	0000                	unimp
    1c9e:	68080007          	0x68080007
    1ca2:	0005                	0x5
    1ca4:	c500                	sw	s0,8(a0)
    1ca6:	09000007          	0x9000007
    1caa:	00dd                	addi	ra,ra,23
    1cac:	0000                	unimp
    1cae:	681b0017          	auipc	zero,0x681b0
    1cb2:	0601                	addi	a2,a2,0
    1cb4:	0271                	addi	tp,tp,28
    1cb6:	07ea                	slli	a5,a5,0x1a
    1cb8:	0000                	unimp
    1cba:	4816                	lw	a6,68(sp)
    1cbc:	06000003          	lb	zero,96(zero) # 681b1d0e <_gp+0x6819ffee>
    1cc0:	0274                	addi	a3,sp,268
    1cc2:	07ea                	slli	a5,a5,0x1a
    1cc4:	0000                	unimp
    1cc6:	1600                	addi	s0,sp,800
    1cc8:	0000033f fa027506 	0xfa0275060000033f
    1cd0:	f0000007          	0xf0000007
    1cd4:	0800                	addi	s0,sp,16
    1cd6:	02dc                	addi	a5,sp,324
    1cd8:	0000                	unimp
    1cda:	07fa                	slli	a5,a5,0x1e
    1cdc:	0000                	unimp
    1cde:	dd09                	beqz	a0,1bf8 <_ftext-0xe408>
    1ce0:	0000                	unimp
    1ce2:	1d00                	addi	s0,sp,688
    1ce4:	0800                	addi	s0,sp,16
    1ce6:	0068                	addi	a0,sp,12
    1ce8:	0000                	unimp
    1cea:	080a                	slli	a6,a6,0x2
    1cec:	0000                	unimp
    1cee:	dd09                	beqz	a0,1c08 <_ftext-0xe3f8>
    1cf0:	0000                	unimp
    1cf2:	1d00                	addi	s0,sp,688
    1cf4:	1c00                	addi	s0,sp,560
    1cf6:	0168                	addi	a0,sp,140
    1cf8:	5606                	lw	a2,96(sp)
    1cfa:	2d02                	fld	fs10,0(sp)
    1cfc:	0008                	addi	a0,sp,0
    1cfe:	1d00                	addi	s0,sp,688
    1d00:	00000423          	sb	zero,8(zero)
    1d04:	6d06                	ld	s10,64(sp)
    1d06:	9402                	jalr	s0
    1d08:	0006                	0x6
    1d0a:	1d00                	addi	s0,sp,688
    1d0c:	04fc                	addi	a5,sp,588
    1d0e:	0000                	unimp
    1d10:	7606                	ld	a2,96(sp)
    1d12:	c502                	sw	zero,136(sp)
    1d14:	00000007          	0x7
    1d18:	6808                	ld	a0,16(s0)
    1d1a:	0005                	0x5
    1d1c:	3d00                	fld	fs0,56(a0)
    1d1e:	0008                	addi	a0,sp,0
    1d20:	0900                	addi	s0,sp,144
    1d22:	00dd                	addi	ra,ra,23
    1d24:	0000                	unimp
    1d26:	0018                	addi	a4,sp,0
    1d28:	481e                	lw	a6,196(sp)
    1d2a:	0008                	addi	a0,sp,0
    1d2c:	1400                	addi	s0,sp,544
    1d2e:	042a                	slli	s0,s0,0xa
    1d30:	0000                	unimp
    1d32:	0f00                	addi	s0,sp,912
    1d34:	3d08                	fld	fa0,56(a0)
    1d36:	0008                	addi	a0,sp,0
    1d38:	0f00                	addi	s0,sp,912
    1d3a:	7b08                	ld	a0,48(a4)
    1d3c:	0001                	nop
    1d3e:	1e00                	addi	s0,sp,816
    1d40:	085f 0000 3714      	0x37140000085f
    1d46:	0000                	unimp
    1d48:	0000                	unimp
    1d4a:	0865080f          	0x865080f
    1d4e:	0000                	unimp
    1d50:	0854080f          	0x854080f
    1d54:	0000                	unimp
    1d56:	0208                	addi	a0,sp,256
    1d58:	0006                	0x6
    1d5a:	7b00                	ld	s0,48(a4)
    1d5c:	0008                	addi	a0,sp,0
    1d5e:	0900                	addi	s0,sp,144
    1d60:	00dd                	addi	ra,ra,23
    1d62:	0000                	unimp
    1d64:	0002                	0x2
    1d66:	211f 0000 0400      	0x4000000211f
    1d6c:	0068                	addi	a0,sp,12
    1d6e:	0000                	unimp
    1d70:	089e0507          	0x89e0507
    1d74:	0000                	unimp
    1d76:	be20                	fsd	fs0,120(a2)
    1d78:	0000                	unimp
    1d7a:	0000                	unimp
    1d7c:	de20                	sw	s0,120(a2)
    1d7e:	0000                	unimp
    1d80:	0100                	addi	s0,sp,128
    1d82:	a720                	fsd	fs0,72(a4)
    1d84:	0000                	unimp
    1d86:	0200                	addi	s0,sp,256
    1d88:	2100                	fld	fs0,0(a0)
    1d8a:	00ca                	slli	ra,ra,0x12
    1d8c:	0000                	unimp
    1d8e:	4201                	li	tp,0
    1d90:	00000037          	lui	zero,0x0
    1d94:	02f4                	addi	a3,sp,332
    1d96:	0001                	nop
    1d98:	0000                	unimp
    1d9a:	0000                	unimp
    1d9c:	0114                	addi	a3,sp,128
    1d9e:	0000                	unimp
    1da0:	0000                	unimp
    1da2:	0000                	unimp
    1da4:	9c01                	subw	s0,s0,s0
    1da6:	092a                	slli	s2,s2,0xa
    1da8:	0000                	unimp
    1daa:	2622                	fld	fa2,8(sp)
    1dac:	0001                	nop
    1dae:	0100                	addi	s0,sp,128
    1db0:	3742                	fld	fa4,48(sp)
    1db2:	0000                	unimp
    1db4:	d400                	sw	s0,40(s0)
    1db6:	0001                	nop
    1db8:	2300                	fld	fs0,0(a4)
    1dba:	6e66                	ld	t3,88(sp)
    1dbc:	0100                	addi	s0,sp,128
    1dbe:	b042                	fsd	fa6,32(sp)
    1dc0:	0002                	0x2
    1dc2:	3300                	fld	fs0,32(a4)
    1dc4:	0002                	0x2
    1dc6:	2300                	fld	fs0,0(a4)
    1dc8:	7261                	lui	tp,0xffff8
    1dca:	42010067          	jr	sp,1056
    1dce:	0000011b          	sext.w	sp,zero
    1dd2:	02b8                	addi	a4,sp,328
    1dd4:	0000                	unimp
    1dd6:	01006423          	0x1006423
    1dda:	1b42                	slli	s6,s6,0x30
    1ddc:	0001                	nop
    1dde:	3d00                	fld	fs0,56(a0)
    1de0:	24000003          	lb	zero,576(zero) # 240 <_ftext-0xfdc0>
    1de4:	0221                	addi	tp,tp,8
    1de6:	0000                	unimp
    1de8:	4901                	li	s2,0
    1dea:	092a                	slli	s2,s2,0xa
    1dec:	0000                	unimp
    1dee:	03c2                	slli	t2,t2,0x10
    1df0:	0000                	unimp
    1df2:	7025                	0x7025
    1df4:	0100                	addi	s0,sp,128
    1df6:	9a4a                	add	s4,s4,s2
    1df8:	0002                	0x2
    1dfa:	e800                	sd	s0,16(s0)
    1dfc:	26000003          	lb	zero,608(zero)
    1e00:	0354                	addi	a3,sp,388
    1e02:	0001                	nop
    1e04:	0000                	unimp
    1e06:	0000                	unimp
    1e08:	0941                	addi	s2,s2,16
    1e0a:	0000                	unimp
    1e0c:	035a0127          	0x35a0127
    1e10:	180a                	slli	a6,a6,0x22
    1e12:	0f000003          	lb	zero,240(zero)
    1e16:	0a08                	addi	a0,sp,272
    1e18:	0002                	0x2
    1e1a:	2800                	fld	fs0,16(s0)
    1e1c:	048d                	addi	s1,s1,3
    1e1e:	0000                	unimp
    1e20:	fb06                	sd	ra,432(sp)
    1e22:	3c02                	fld	fs8,32(sp)
    1e24:	0009                	0x9
    1e26:	1800                	addi	s0,sp,48
    1e28:	042a                	slli	s0,s0,0xa
    1e2a:	0000                	unimp
    1e2c:	4129                	li	sp,10
    1e2e:	41000003          	lb	zero,1040(zero)
    1e32:	08000003          	lb	zero,128(zero)
    1e36:	0061                	0x61
    1e38:	097d                	addi	s2,s2,31
    1e3a:	0000                	unimp
    1e3c:	0004                	addi	s1,sp,0
    1e3e:	07a1                	addi	a5,a5,8
    1e40:	0000                	unimp
    1e42:	0108                	addi	a0,sp,128
    1e44:	0100                	addi	s0,sp,128
    1e46:	0000                	unimp
    1e48:	6e0c                	ld	a1,24(a2)
    1e4a:	08000007          	0x8000007
    1e4e:	0104                	addi	s1,sp,128
    1e50:	0000                	unimp
    1e52:	0000                	unimp
    1e54:	9400                	0x9400
    1e56:	0001                	nop
    1e58:	0000                	unimp
    1e5a:	0000                	unimp
    1e5c:	f400                	sd	s0,40(s0)
    1e5e:	000c                	addi	a1,sp,0
    1e60:	0200                	addi	s0,sp,256
    1e62:	0708                	addi	a0,sp,896
    1e64:	0095                	addi	ra,ra,5
    1e66:	0000                	unimp
    1e68:	69050403          	lb	s0,1680(a0)
    1e6c:	746e                	ld	s0,248(sp)
    1e6e:	0200                	addi	s0,sp,256
    1e70:	0508                	addi	a0,sp,640
    1e72:	0005                	0x5
    1e74:	0000                	unimp
    1e76:	0802                	slli	a6,a6,0x0
    1e78:	0005                	0x5
    1e7a:	0000                	unimp
    1e7c:	0200                	addi	s0,sp,256
    1e7e:	0408                	addi	a0,sp,512
    1e80:	00ea                	slli	ra,ra,0x1a
    1e82:	0000                	unimp
    1e84:	0102                	slli	sp,sp,0x0
    1e86:	b206                	fsd	ft1,288(sp)
    1e88:	0000                	unimp
    1e8a:	0200                	addi	s0,sp,256
    1e8c:	0801                	addi	a6,a6,0
    1e8e:	00b0                	addi	a2,sp,72
    1e90:	0000                	unimp
    1e92:	0202                	slli	tp,tp,0x0
    1e94:	f605                	bnez	a2,1dbc <_ftext-0xe244>
    1e96:	0000                	unimp
    1e98:	0200                	addi	s0,sp,256
    1e9a:	0702                	slli	a4,a4,0x0
    1e9c:	000e                	0xe
    1e9e:	0000                	unimp
    1ea0:	0402                	slli	s0,s0,0x0
    1ea2:	00009a07          	0x9a07
    1ea6:	0200                	addi	s0,sp,256
    1ea8:	0708                	addi	a0,sp,896
    1eaa:	0090                	addi	a2,sp,64
    1eac:	0000                	unimp
    1eae:	6304                	ld	s1,0(a4)
    1eb0:	02000003          	lb	zero,32(zero)
    1eb4:	3e10                	fld	fa2,56(a2)
    1eb6:	0000                	unimp
    1eb8:	0400                	addi	s0,sp,512
    1eba:	0446                	slli	s0,s0,0x11
    1ebc:	0000                	unimp
    1ebe:	1302                	slli	t1,t1,0x20
    1ec0:	0000006f          	j	1ec0 <_ftext-0xe140>
    1ec4:	d904                	sw	s1,48(a0)
    1ec6:	0004                	addi	s1,sp,0
    1ec8:	0200                	addi	s0,sp,256
    1eca:	371f 0000 0400      	0x4000000371f
    1ed0:	0385                	addi	t2,t2,1
    1ed2:	0000                	unimp
    1ed4:	00300703          	lb	a4,3(zero)
    1ed8:	0000                	unimp
    1eda:	1f05                	addi	t5,t5,-31
    1edc:	04000003          	lb	zero,64(zero)
    1ee0:	0165                	addi	sp,sp,25
    1ee2:	0068                	addi	a0,sp,12
    1ee4:	0000                	unimp
    1ee6:	0406                	slli	s0,s0,0x1
    1ee8:	4a05                	li	s4,1
    1eea:	00cd                	addi	ra,ra,19
    1eec:	0000                	unimp
    1eee:	00031907          	0x31907
    1ef2:	0500                	addi	s0,sp,640
    1ef4:	a24c                	fsd	fa1,128(a2)
    1ef6:	0000                	unimp
    1ef8:	0700                	addi	s0,sp,896
    1efa:	000002cb          	fnmsub.s	ft5,ft0,ft0,ft0,rne
    1efe:	4d05                	li	s10,1
    1f00:	00cd                	addi	ra,ra,19
    1f02:	0000                	unimp
    1f04:	0800                	addi	s0,sp,16
    1f06:	00000053          	fadd.s	ft0,ft0,ft0,rne
    1f0a:	00dd                	addi	ra,ra,23
    1f0c:	0000                	unimp
    1f0e:	dd09                	beqz	a0,1e28 <_ftext-0xe1d8>
    1f10:	0000                	unimp
    1f12:	0300                	addi	s0,sp,384
    1f14:	0200                	addi	s0,sp,256
    1f16:	0708                	addi	a0,sp,896
    1f18:	0122                	slli	sp,sp,0x8
    1f1a:	0000                	unimp
    1f1c:	080a                	slli	a6,a6,0x2
    1f1e:	4705                	li	a4,1
    1f20:	0105                	addi	sp,sp,1
    1f22:	0000                	unimp
    1f24:	0004300b          	custom0	0,s0,zero,0
    1f28:	0500                	addi	s0,sp,640
    1f2a:	3049                	0x3049
    1f2c:	0000                	unimp
    1f2e:	0000                	unimp
    1f30:	0004380b          	custom0	16,s0,zero,0
    1f34:	0500                	addi	s0,sp,640
    1f36:	ae4e                	fsd	fs3,280(sp)
    1f38:	0000                	unimp
    1f3a:	0400                	addi	s0,sp,512
    1f3c:	0400                	addi	s0,sp,512
    1f3e:	000003c3          	fmadd.s	ft7,ft0,ft0,ft0,rne
    1f42:	4f05                	li	t5,1
    1f44:	00e4                	addi	s1,sp,76
    1f46:	0000                	unimp
    1f48:	8e04                	0x8e04
    1f4a:	0002                	0x2
    1f4c:	0500                	addi	s0,sp,640
    1f4e:	00009753          	fadd.s	fa4,ft1,ft0,rtz
    1f52:	0c00                	addi	s0,sp,528
    1f54:	0408                	addi	a0,sp,512
    1f56:	0478                	addi	a4,sp,524
    1f58:	0000                	unimp
    1f5a:	1906                	slli	s2,s2,0x21
    1f5c:	0068                	addi	a0,sp,12
    1f5e:	0000                	unimp
    1f60:	9f0d                	subw	a4,a4,a1
    1f62:	0002                	0x2
    1f64:	2000                	fld	fs0,0(s0)
    1f66:	2d06                	fld	fs10,64(sp)
    1f68:	0000017b          	custom3	2,0,0,0
    1f6c:	0003e40b          	custom0	s0,t2,0,0
    1f70:	0600                	addi	s0,sp,768
    1f72:	00017b2f          	0x17b2f
    1f76:	0000                	unimp
    1f78:	5f0e                	lw	t5,224(sp)
    1f7a:	3006006b          	0x3006006b
    1f7e:	0030                	addi	a2,sp,8
    1f80:	0000                	unimp
    1f82:	0b08                	addi	a0,sp,400
    1f84:	0000041b          	sext.w	s0,zero
    1f88:	3006                	fld	ft0,96(sp)
    1f8a:	0030                	addi	a2,sp,8
    1f8c:	0000                	unimp
    1f8e:	0b0c                	addi	a1,sp,400
    1f90:	0288                	addi	a0,sp,320
    1f92:	0000                	unimp
    1f94:	3006                	fld	ft0,96(sp)
    1f96:	0030                	addi	a2,sp,8
    1f98:	0000                	unimp
    1f9a:	0b10                	addi	a2,sp,400
    1f9c:	04c4                	addi	s1,sp,580
    1f9e:	0000                	unimp
    1fa0:	3006                	fld	ft0,96(sp)
    1fa2:	0030                	addi	a2,sp,8
    1fa4:	0000                	unimp
    1fa6:	0e14                	addi	a3,sp,784
    1fa8:	785f 0600 8131      	0x81310600785f
    1fae:	0001                	nop
    1fb0:	1800                	addi	s0,sp,48
    1fb2:	0f00                	addi	s0,sp,912
    1fb4:	2808                	fld	fa0,16(s0)
    1fb6:	0001                	nop
    1fb8:	0800                	addi	s0,sp,16
    1fba:	011d                	addi	sp,sp,7
    1fbc:	0000                	unimp
    1fbe:	0191                	addi	gp,gp,4
    1fc0:	0000                	unimp
    1fc2:	dd09                	beqz	a0,1edc <_ftext-0xe124>
    1fc4:	0000                	unimp
    1fc6:	0000                	unimp
    1fc8:	0d00                	addi	s0,sp,656
    1fca:	02c6                	slli	t0,t0,0x11
    1fcc:	0000                	unimp
    1fce:	0624                	addi	s1,sp,776
    1fd0:	0a35                	addi	s4,s4,13
    1fd2:	0002                	0x2
    1fd4:	0b00                	addi	s0,sp,400
    1fd6:	01ee                	slli	gp,gp,0x1b
    1fd8:	0000                	unimp
    1fda:	3706                	fld	fa4,96(sp)
    1fdc:	0030                	addi	a2,sp,8
    1fde:	0000                	unimp
    1fe0:	0b00                	addi	s0,sp,400
    1fe2:	044e                	slli	s0,s0,0x13
    1fe4:	0000                	unimp
    1fe6:	3806                	fld	fa6,96(sp)
    1fe8:	0030                	addi	a2,sp,8
    1fea:	0000                	unimp
    1fec:	0b04                	addi	s1,sp,400
    1fee:	0209                	addi	tp,tp,2
    1ff0:	0000                	unimp
    1ff2:	3906                	fld	fs2,96(sp)
    1ff4:	0030                	addi	a2,sp,8
    1ff6:	0000                	unimp
    1ff8:	0b08                	addi	a0,sp,400
    1ffa:	053d                	addi	a0,a0,15
    1ffc:	0000                	unimp
    1ffe:	3a06                	fld	fs4,96(sp)
    2000:	0030                	addi	a2,sp,8
    2002:	0000                	unimp
    2004:	0b0c                	addi	a1,sp,400
    2006:	0000034f          	fnmadd.s	ft6,ft0,ft0,ft0,rne
    200a:	3b06                	fld	fs6,96(sp)
    200c:	0030                	addi	a2,sp,8
    200e:	0000                	unimp
    2010:	0b10                	addi	a2,sp,400
    2012:	0335                	addi	t1,t1,13
    2014:	0000                	unimp
    2016:	3c06                	fld	fs8,96(sp)
    2018:	0030                	addi	a2,sp,8
    201a:	0000                	unimp
    201c:	0b14                	addi	a3,sp,400
    201e:	04c9                	addi	s1,s1,18
    2020:	0000                	unimp
    2022:	3d06                	fld	fs10,96(sp)
    2024:	0030                	addi	a2,sp,8
    2026:	0000                	unimp
    2028:	0b18                	addi	a4,sp,400
    202a:	03a5                	addi	t2,t2,9
    202c:	0000                	unimp
    202e:	3e06                	fld	ft8,96(sp)
    2030:	0030                	addi	a2,sp,8
    2032:	0000                	unimp
    2034:	0b1c                	addi	a5,sp,400
    2036:	0504                	addi	s1,sp,640
    2038:	0000                	unimp
    203a:	3f06                	fld	ft10,96(sp)
    203c:	0030                	addi	a2,sp,8
    203e:	0000                	unimp
    2040:	0020                	addi	s0,sp,8
    2042:	1810                	addi	a2,sp,48
    2044:	0002                	0x2
    2046:	0800                	addi	s0,sp,16
    2048:	0602                	slli	a2,a2,0x0
    204a:	4b48                	lw	a0,20(a4)
    204c:	0002                	0x2
    204e:	0b00                	addi	s0,sp,400
    2050:	0000027b          	custom3	4,0,0,0
    2054:	4906                	lw	s2,64(sp)
    2056:	0000024b          	fnmsub.s	ft4,ft0,ft0,ft0,rne
    205a:	1100                	addi	s0,sp,160
    205c:	0000012b          	custom1	2,0,0,0
    2060:	4a06                	lw	s4,64(sp)
    2062:	0000024b          	fnmsub.s	ft4,ft0,ft0,ft0,rne
    2066:	0100                	addi	s0,sp,128
    2068:	6a11                	lui	s4,0x4
    206a:	0004                	addi	s1,sp,0
    206c:	0600                	addi	s0,sp,768
    206e:	1d4c                	addi	a1,sp,692
    2070:	0001                	nop
    2072:	0000                	unimp
    2074:	1102                	slli	sp,sp,0x20
    2076:	023d                	addi	tp,tp,15
    2078:	0000                	unimp
    207a:	4f06                	lw	t5,64(sp)
    207c:	011d                	addi	sp,sp,7
    207e:	0000                	unimp
    2080:	0204                	addi	s1,sp,256
    2082:	0800                	addi	s0,sp,16
    2084:	0000011b          	sext.w	sp,zero
    2088:	0000025b          	custom2	4,0,0,0
    208c:	dd09                	beqz	a0,1fa6 <_ftext-0xe05a>
    208e:	0000                	unimp
    2090:	1f00                	addi	s0,sp,944
    2092:	1000                	addi	s0,sp,32
    2094:	00c2                	slli	ra,ra,0x10
    2096:	0000                	unimp
    2098:	0318                	addi	a4,sp,384
    209a:	5b06                	lw	s6,96(sp)
    209c:	029a                	slli	t0,t0,0x6
    209e:	0000                	unimp
    20a0:	0003e40b          	custom0	s0,t2,0,0
    20a4:	0600                	addi	s0,sp,768
    20a6:	9a5c                	0x9a5c
    20a8:	0002                	0x2
    20aa:	0000                	unimp
    20ac:	0003fc0b          	custom0	s8,t2,zero,0
    20b0:	0600                	addi	s0,sp,768
    20b2:	305d                	0x305d
    20b4:	0000                	unimp
    20b6:	0800                	addi	s0,sp,16
    20b8:	0002830b          	custom0	6,5,0,0
    20bc:	0600                	addi	s0,sp,768
    20be:	a05f 0002 1000      	0x10000002a05f
    20c4:	1811                	addi	a6,a6,-28
    20c6:	0002                	0x2
    20c8:	0600                	addi	s0,sp,768
    20ca:	0a60                	addi	s0,sp,284
    20cc:	0002                	0x2
    20ce:	1000                	addi	s0,sp,32
    20d0:	0001                	nop
    20d2:	025b080f          	0x25b080f
    20d6:	0000                	unimp
    20d8:	b008                	fsd	fa0,32(s0)
    20da:	0002                	0x2
    20dc:	b000                	fsd	fs0,32(s0)
    20de:	0002                	0x2
    20e0:	0900                	addi	s0,sp,144
    20e2:	00dd                	addi	ra,ra,23
    20e4:	0000                	unimp
    20e6:	001f 080f 02b6      	0x2b6080f001f
    20ec:	0000                	unimp
    20ee:	0d12                	slli	s10,s10,0x4
    20f0:	000003af          	0x3af
    20f4:	0610                	addi	a2,sp,768
    20f6:	0002dc73          	csrrw	s8,0x0,5
    20fa:	0b00                	addi	s0,sp,400
    20fc:	00000203          	lb	tp,0(zero)
    2100:	7406                	ld	s0,96(sp)
    2102:	02dc                	addi	a5,sp,324
    2104:	0000                	unimp
    2106:	0b00                	addi	s0,sp,400
    2108:	09a9                	addi	s3,s3,10
    210a:	0000                	unimp
    210c:	7506                	ld	a0,96(sp)
    210e:	0030                	addi	a2,sp,8
    2110:	0000                	unimp
    2112:	0008                	addi	a0,sp,0
    2114:	0053080f          	0x53080f
    2118:	0000                	unimp
    211a:	ce0d                	beqz	a2,2154 <_ftext-0xdeac>
    211c:	b0000003          	lb	zero,-1280(zero)
    2120:	b306                	fsd	ft1,416(sp)
    2122:	040c                	addi	a1,sp,512
    2124:	0000                	unimp
    2126:	5f0e                	lw	t5,224(sp)
    2128:	0070                	addi	a2,sp,12
    212a:	b406                	fsd	ft1,40(sp)
    212c:	02dc                	addi	a5,sp,324
    212e:	0000                	unimp
    2130:	0e00                	addi	s0,sp,784
    2132:	725f 0600 30b5      	0x30b50600725f
    2138:	0000                	unimp
    213a:	0800                	addi	s0,sp,16
    213c:	5f0e                	lw	t5,224(sp)
    213e:	b6060077          	0xb6060077
    2142:	0030                	addi	a2,sp,8
    2144:	0000                	unimp
    2146:	0b0c                	addi	a1,sp,400
    2148:	0236                	slli	tp,tp,0xd
    214a:	0000                	unimp
    214c:	b706                	fsd	ft1,424(sp)
    214e:	005a                	0x5a
    2150:	0000                	unimp
    2152:	0b10                	addi	a2,sp,400
    2154:	02e2                	slli	t0,t0,0x18
    2156:	0000                	unimp
    2158:	b806                	fsd	ft1,48(sp)
    215a:	005a                	0x5a
    215c:	0000                	unimp
    215e:	0e12                	slli	t3,t3,0x4
    2160:	625f 0066 b906      	0xb9060066625f
    2166:	000002b7          	lui	t0,0x0
    216a:	0b18                	addi	a4,sp,400
    216c:	01c8                	addi	a0,sp,196
    216e:	0000                	unimp
    2170:	ba06                	fsd	ft1,304(sp)
    2172:	0030                	addi	a2,sp,8
    2174:	0000                	unimp
    2176:	0b28                	addi	a0,sp,408
    2178:	0226                	slli	tp,tp,0x9
    217a:	0000                	unimp
    217c:	c106                	sw	ra,128(sp)
    217e:	0000011b          	sext.w	sp,zero
    2182:	0b30                	addi	a2,sp,408
    2184:	02b6                	slli	t0,t0,0xd
    2186:	0000                	unimp
    2188:	c306                	sw	ra,132(sp)
    218a:	0000056f          	jal	a0,218a <_ftext-0xde76>
    218e:	0b38                	addi	a4,sp,408
    2190:	032e                	slli	t1,t1,0xb
    2192:	0000                	unimp
    2194:	c506                	sw	ra,136(sp)
    2196:	059e                	slli	a1,a1,0x7
    2198:	0000                	unimp
    219a:	0b40                	addi	s0,sp,404
    219c:	0440                	addi	s0,sp,516
    219e:	0000                	unimp
    21a0:	c806                	sw	ra,16(sp)
    21a2:	05c2                	slli	a1,a1,0x10
    21a4:	0000                	unimp
    21a6:	0b48                	addi	a0,sp,404
    21a8:	051e                	slli	a0,a0,0x7
    21aa:	0000                	unimp
    21ac:	c906                	sw	ra,144(sp)
    21ae:	05dc                	addi	a5,sp,708
    21b0:	0000                	unimp
    21b2:	0e50                	addi	a2,sp,788
    21b4:	755f 0062 cc06      	0xcc060062755f
    21ba:	000002b7          	lui	t0,0x0
    21be:	0e58                	addi	a4,sp,788
    21c0:	755f 0070 cd06      	0xcd060070755f
    21c6:	02dc                	addi	a5,sp,324
    21c8:	0000                	unimp
    21ca:	0e68                	addi	a0,sp,796
    21cc:	755f 0072 ce06      	0xce060072755f
    21d2:	0030                	addi	a2,sp,8
    21d4:	0000                	unimp
    21d6:	0b70                	addi	a2,sp,412
    21d8:	01fd                	addi	gp,gp,31
    21da:	0000                	unimp
    21dc:	d106                	sw	ra,160(sp)
    21de:	05e2                	slli	a1,a1,0x18
    21e0:	0000                	unimp
    21e2:	0b74                	addi	a3,sp,412
    21e4:	04f6                	slli	s1,s1,0x1d
    21e6:	0000                	unimp
    21e8:	d206                	sw	ra,36(sp)
    21ea:	05f2                	slli	a1,a1,0x1c
    21ec:	0000                	unimp
    21ee:	6c5f0e77          	0x6c5f0e77
    21f2:	0062                	0x62
    21f4:	d506                	sw	ra,168(sp)
    21f6:	000002b7          	lui	t0,0x0
    21fa:	0b78                	addi	a4,sp,412
    21fc:	0a1d                	addi	s4,s4,7
    21fe:	0000                	unimp
    2200:	d806                	sw	ra,48(sp)
    2202:	0030                	addi	a2,sp,8
    2204:	0000                	unimp
    2206:	0b88                	addi	a0,sp,464
    2208:	0254                	addi	a3,sp,260
    220a:	0000                	unimp
    220c:	d906                	sw	ra,176(sp)
    220e:	0076                	0x76
    2210:	0000                	unimp
    2212:	0b90                	addi	a2,sp,464
    2214:	05e5                	addi	a1,a1,25
    2216:	0000                	unimp
    2218:	dc06                	sw	ra,56(sp)
    221a:	042a                	slli	s0,s0,0xa
    221c:	0000                	unimp
    221e:	0b98                	addi	a4,sp,464
    2220:	07f0                	addi	a2,sp,972
    2222:	0000                	unimp
    2224:	e006                	sd	ra,0(sp)
    2226:	0110                	addi	a2,sp,128
    2228:	0000                	unimp
    222a:	0ba0                	addi	s0,sp,472
    222c:	03d6                	slli	t2,t2,0x15
    222e:	0000                	unimp
    2230:	e206                	sd	ra,256(sp)
    2232:	0105                	addi	sp,sp,1
    2234:	0000                	unimp
    2236:	0ba4                	addi	s1,sp,472
    2238:	0326                	slli	t1,t1,0x9
    223a:	0000                	unimp
    223c:	e306                	sd	ra,384(sp)
    223e:	0030                	addi	a2,sp,8
    2240:	0000                	unimp
    2242:	00ac                	addi	a1,sp,72
    2244:	00008c13          	mv	s8,ra
    2248:	2a00                	fld	fs0,16(a2)
    224a:	0004                	addi	s1,sp,0
    224c:	1400                	addi	s0,sp,544
    224e:	042a                	slli	s0,s0,0xa
    2250:	0000                	unimp
    2252:	1b14                	addi	a3,sp,432
    2254:	0001                	nop
    2256:	1400                	addi	s0,sp,544
    2258:	0562                	slli	a0,a0,0x18
    225a:	0000                	unimp
    225c:	3014                	fld	fa3,32(s0)
    225e:	0000                	unimp
    2260:	0000                	unimp
    2262:	0430080f          	0x430080f
    2266:	0000                	unimp
    2268:	2315                	addiw	t1,t1,5
    226a:	0004                	addi	s1,sp,0
    226c:	4800                	lw	s0,16(s0)
    226e:	02390607          	0x2390607
    2272:	0562                	slli	a0,a0,0x18
    2274:	0000                	unimp
    2276:	6216                	ld	tp,320(sp)
    2278:	0008                	addi	a0,sp,0
    227a:	0600                	addi	s0,sp,768
    227c:	0030023b          	addw	tp,zero,gp
    2280:	0000                	unimp
    2282:	1600                	addi	s0,sp,800
    2284:	0245                	addi	tp,tp,17
    2286:	0000                	unimp
    2288:	4006                	0x4006
    228a:	4902                	lw	s2,0(sp)
    228c:	0006                	0x6
    228e:	0800                	addi	s0,sp,16
    2290:	d216                	sw	t0,36(sp)
    2292:	0002                	0x2
    2294:	0600                	addi	s0,sp,768
    2296:	0240                	addi	s0,sp,260
    2298:	0649                	addi	a2,a2,18
    229a:	0000                	unimp
    229c:	1610                	addi	a2,sp,800
    229e:	00000297          	auipc	t0,0x0
    22a2:	4006                	0x4006
    22a4:	4902                	lw	s2,0(sp)
    22a6:	0006                	0x6
    22a8:	1800                	addi	s0,sp,48
    22aa:	f716                	sd	t0,424(sp)
    22ac:	06000003          	lb	zero,96(zero)
    22b0:	0242                	slli	tp,tp,0x10
    22b2:	0030                	addi	a2,sp,8
    22b4:	0000                	unimp
    22b6:	1620                	addi	s0,sp,808
    22b8:	0000013f 2d024306 	0x2d0243060000013f
    22c0:	0008                	addi	a0,sp,0
    22c2:	2400                	fld	fs0,8(s0)
    22c4:	a016                	fsd	ft5,0(sp)
    22c6:	0004                	addi	s1,sp,0
    22c8:	0600                	addi	s0,sp,768
    22ca:	0245                	addi	tp,tp,17
    22cc:	0030                	addi	a2,sp,8
    22ce:	0000                	unimp
    22d0:	1640                	addi	s0,sp,804
    22d2:	0401                	addi	s0,s0,0
    22d4:	0000                	unimp
    22d6:	4606                	lw	a2,64(sp)
    22d8:	9302                	jalr	t1
    22da:	0005                	0x5
    22dc:	4800                	lw	s0,16(s0)
    22de:	5816                	lw	a6,100(sp)
    22e0:	06000003          	lb	zero,96(zero)
    22e4:	0248                	addi	a0,sp,260
    22e6:	0030                	addi	a2,sp,8
    22e8:	0000                	unimp
    22ea:	1650                	addi	a2,sp,804
    22ec:	0411                	addi	s0,s0,4
    22ee:	0000                	unimp
    22f0:	4a06                	lw	s4,64(sp)
    22f2:	4802                	lw	a6,0(sp)
    22f4:	0008                	addi	a0,sp,0
    22f6:	5800                	lw	s0,48(s0)
    22f8:	1116                	slli	sp,sp,0x25
    22fa:	06000003          	lb	zero,96(zero)
    22fe:	024d                	addi	tp,tp,19
    2300:	0000017b          	custom3	2,0,0,0
    2304:	1660                	addi	s0,sp,812
    2306:	02bc                	addi	a5,sp,328
    2308:	0000                	unimp
    230a:	4e06                	lw	t3,64(sp)
    230c:	3002                	fld	ft0,32(sp)
    230e:	0000                	unimp
    2310:	6800                	ld	s0,16(s0)
    2312:	3816                	fld	fa6,352(sp)
    2314:	0005                	0x5
    2316:	0600                	addi	s0,sp,768
    2318:	017b024f          	fnmadd.s	ft4,fs6,fs7,ft0,rne
    231c:	0000                	unimp
    231e:	1670                	addi	a2,sp,812
    2320:	0000037b          	custom3	6,0,0,0
    2324:	5006                	0x5006
    2326:	4e02                	lw	t3,0(sp)
    2328:	0008                	addi	a0,sp,0
    232a:	7800                	ld	s0,48(s0)
    232c:	da16                	sw	t0,52(sp)
    232e:	0002                	0x2
    2330:	0600                	addi	s0,sp,768
    2332:	00300253          	fadd.s	ft4,ft0,ft3,rne
    2336:	0000                	unimp
    2338:	1680                	addi	s0,sp,864
    233a:	024c                	addi	a1,sp,260
    233c:	0000                	unimp
    233e:	5406                	lw	s0,96(sp)
    2340:	6202                	ld	tp,0(sp)
    2342:	0005                	0x5
    2344:	8800                	0x8800
    2346:	9716                	add	a4,a4,t0
    2348:	06000003          	lb	zero,96(zero)
    234c:	080a0277          	0x80a0277
    2350:	0000                	unimp
    2352:	1790                	addi	a2,sp,992
    2354:	00c2                	slli	ra,ra,0x10
    2356:	0000                	unimp
    2358:	7b06                	ld	s6,96(sp)
    235a:	9a02                	jalr	s4
    235c:	0002                	0x2
    235e:	f800                	sd	s0,48(s0)
    2360:	1701                	addi	a4,a4,-32
    2362:	000002ef          	jal	t0,2362 <_ftext-0xdc9e>
    2366:	7c06                	ld	s8,96(sp)
    2368:	5b02                	lw	s6,32(sp)
    236a:	0002                	0x2
    236c:	0000                	unimp
    236e:	1702                	slli	a4,a4,0x20
    2370:	04ec                	addi	a1,sp,588
    2372:	0000                	unimp
    2374:	8006                	0x8006
    2376:	5f02                	lw	t5,32(sp)
    2378:	0008                	addi	a0,sp,0
    237a:	1800                	addi	s0,sp,48
    237c:	1705                	addi	a4,a4,-31
    237e:	022e                	slli	tp,tp,0xb
    2380:	0000                	unimp
    2382:	8506                	mv	a0,ra
    2384:	0e02                	slli	t3,t3,0x0
    2386:	0006                	0x6
    2388:	2000                	fld	fs0,0(s0)
    238a:	1705                	addi	a4,a4,-31
    238c:	00000213          	li	tp,0
    2390:	8606                	mv	a2,ra
    2392:	6b02                	ld	s6,0(sp)
    2394:	0008                	addi	a0,sp,0
    2396:	3800                	fld	fs0,48(s0)
    2398:	0005                	0x5
    239a:	0568080f          	0x568080f
    239e:	0000                	unimp
    23a0:	0102                	slli	sp,sp,0x0
    23a2:	b908                	fsd	fa0,48(a0)
    23a4:	0000                	unimp
    23a6:	0f00                	addi	s0,sp,912
    23a8:	0c08                	addi	a0,sp,528
    23aa:	0004                	addi	s1,sp,0
    23ac:	1300                	addi	s0,sp,416
    23ae:	008c                	addi	a1,sp,64
    23b0:	0000                	unimp
    23b2:	00000593          	li	a1,0
    23b6:	2a14                	fld	fa3,16(a2)
    23b8:	0004                	addi	s1,sp,0
    23ba:	1400                	addi	s0,sp,544
    23bc:	0000011b          	sext.w	sp,zero
    23c0:	9314                	0x9314
    23c2:	0005                	0x5
    23c4:	1400                	addi	s0,sp,544
    23c6:	0030                	addi	a2,sp,8
    23c8:	0000                	unimp
    23ca:	0f00                	addi	s0,sp,912
    23cc:	9908                	0x9908
    23ce:	0005                	0x5
    23d0:	1800                	addi	s0,sp,48
    23d2:	0568                	addi	a0,sp,652
    23d4:	0000                	unimp
    23d6:	0575080f          	0x575080f
    23da:	0000                	unimp
    23dc:	00008113          	mv	sp,ra
    23e0:	c200                	sw	s0,0(a2)
    23e2:	0005                	0x5
    23e4:	1400                	addi	s0,sp,544
    23e6:	042a                	slli	s0,s0,0xa
    23e8:	0000                	unimp
    23ea:	1b14                	addi	a3,sp,432
    23ec:	0001                	nop
    23ee:	1400                	addi	s0,sp,544
    23f0:	0081                	addi	ra,ra,0
    23f2:	0000                	unimp
    23f4:	3014                	fld	fa3,32(s0)
    23f6:	0000                	unimp
    23f8:	0000                	unimp
    23fa:	05a4080f          	0x5a4080f
    23fe:	0000                	unimp
    2400:	00003013          	sltiu	zero,zero,0
    2404:	dc00                	sw	s0,56(s0)
    2406:	0005                	0x5
    2408:	1400                	addi	s0,sp,544
    240a:	042a                	slli	s0,s0,0xa
    240c:	0000                	unimp
    240e:	1b14                	addi	a3,sp,432
    2410:	0001                	nop
    2412:	0000                	unimp
    2414:	05c8080f          	0x5c8080f
    2418:	0000                	unimp
    241a:	5308                	lw	a0,32(a4)
    241c:	0000                	unimp
    241e:	f200                	sd	s0,32(a2)
    2420:	0005                	0x5
    2422:	0900                	addi	s0,sp,144
    2424:	00dd                	addi	ra,ra,23
    2426:	0000                	unimp
    2428:	0002                	0x2
    242a:	5308                	lw	a0,32(a4)
    242c:	0000                	unimp
    242e:	0200                	addi	s0,sp,256
    2430:	0006                	0x6
    2432:	0900                	addi	s0,sp,144
    2434:	00dd                	addi	ra,ra,23
    2436:	0000                	unimp
    2438:	0000                	unimp
    243a:	bc05                	j	1e6a <_ftext-0xe196>
    243c:	06000003          	lb	zero,96(zero)
    2440:	011d                	addi	sp,sp,7
    2442:	02e2                	slli	t0,t0,0x18
    2444:	0000                	unimp
    2446:	d319                	beqz	a4,234c <_ftext-0xdcb4>
    2448:	0004                	addi	s1,sp,0
    244a:	1800                	addi	s0,sp,48
    244c:	2106                	fld	ft2,64(sp)
    244e:	4301                	li	t1,0
    2450:	0006                	0x6
    2452:	1600                	addi	s0,sp,800
    2454:	03e4                	addi	s1,sp,460
    2456:	0000                	unimp
    2458:	2306                	fld	ft6,64(sp)
    245a:	4301                	li	t1,0
    245c:	0006                	0x6
    245e:	0000                	unimp
    2460:	e816                	sd	t0,16(sp)
    2462:	0002                	0x2
    2464:	0600                	addi	s0,sp,768
    2466:	0124                	addi	s1,sp,136
    2468:	0030                	addi	a2,sp,8
    246a:	0000                	unimp
    246c:	1608                	addi	a0,sp,800
    246e:	03b6                	slli	t2,t2,0xd
    2470:	0000                	unimp
    2472:	2506                	fld	fa0,64(sp)
    2474:	4901                	li	s2,0
    2476:	0006                	0x6
    2478:	1000                	addi	s0,sp,32
    247a:	0f00                	addi	s0,sp,912
    247c:	0e08                	addi	a0,sp,784
    247e:	0006                	0x6
    2480:	0f00                	addi	s0,sp,912
    2482:	0208                	addi	a0,sp,256
    2484:	0006                	0x6
    2486:	1900                	addi	s0,sp,176
    2488:	00000137          	lui	sp,0x0
    248c:	060e                	slli	a2,a2,0x3
    248e:	013d                	addi	sp,sp,15
    2490:	0684                	addi	s1,sp,832
    2492:	0000                	unimp
    2494:	2a16                	fld	fs4,320(sp)
    2496:	0004                	addi	s1,sp,0
    2498:	0600                	addi	s0,sp,768
    249a:	013e                	slli	sp,sp,0xf
    249c:	0684                	addi	s1,sp,832
    249e:	0000                	unimp
    24a0:	1600                	addi	s0,sp,800
    24a2:	00000457          	0x457
    24a6:	3f06                	fld	ft10,96(sp)
    24a8:	8401                	srai	s0,s0,0x0
    24aa:	0006                	0x6
    24ac:	0600                	addi	s0,sp,768
    24ae:	7316                	ld	t1,352(sp)
    24b0:	0004                	addi	s1,sp,0
    24b2:	0600                	addi	s0,sp,768
    24b4:	0140                	addi	s0,sp,132
    24b6:	0061                	0x61
    24b8:	0000                	unimp
    24ba:	000c                	addi	a1,sp,0
    24bc:	6108                	ld	a0,0(a0)
    24be:	0000                	unimp
    24c0:	9400                	0x9400
    24c2:	0006                	0x6
    24c4:	0900                	addi	s0,sp,144
    24c6:	00dd                	addi	ra,ra,23
    24c8:	0000                	unimp
    24ca:	0002                	0x2
    24cc:	d81a                	sw	t1,48(sp)
    24ce:	5806                	lw	a6,96(sp)
    24d0:	9502                	jalr	a0
    24d2:	16000007          	0x16000007
    24d6:	000004b7          	lui	s1,0x0
    24da:	5a06                	lw	s4,96(sp)
    24dc:	6802                	ld	a6,0(sp)
    24de:	0000                	unimp
    24e0:	0000                	unimp
    24e2:	5d16                	lw	s10,100(sp)
    24e4:	0004                	addi	s1,sp,0
    24e6:	0600                	addi	s0,sp,768
    24e8:	0562025b          	custom2	4,4,22,2
    24ec:	0000                	unimp
    24ee:	1608                	addi	a0,sp,800
    24f0:	0304                	addi	s1,sp,384
    24f2:	0000                	unimp
    24f4:	5c06                	lw	s8,96(sp)
    24f6:	9502                	jalr	a0
    24f8:	10000007          	0x10000007
    24fc:	0f16                	slli	t5,t5,0x5
    24fe:	0005                	0x5
    2500:	0600                	addi	s0,sp,768
    2502:	025d                	addi	tp,tp,23
    2504:	0191                	addi	gp,gp,4
    2506:	0000                	unimp
    2508:	162c                	addi	a1,sp,808
    250a:	000002a7          	0x2a7
    250e:	5e06                	lw	t3,96(sp)
    2510:	3002                	fld	ft0,32(sp)
    2512:	0000                	unimp
    2514:	5000                	lw	s0,32(s0)
    2516:	df16                	sw	t0,188(sp)
    2518:	06000003          	lb	zero,96(zero)
    251c:	025f 006f 0000      	0x6f025f
    2522:	1658                	addi	a4,sp,804
    2524:	0525                	addi	a0,a0,9
    2526:	0000                	unimp
    2528:	6006                	0x6006
    252a:	4f02                	lw	t5,0(sp)
    252c:	0006                	0x6
    252e:	6000                	ld	s0,0(s0)
    2530:	ea16                	sd	t0,272(sp)
    2532:	06000003          	lb	zero,96(zero)
    2536:	0261                	addi	tp,tp,24
    2538:	0105                	addi	sp,sp,1
    253a:	0000                	unimp
    253c:	1670                	addi	a2,sp,812
    253e:	052a                	slli	a0,a0,0xa
    2540:	0000                	unimp
    2542:	6206                	ld	tp,64(sp)
    2544:	0502                	slli	a0,a0,0x0
    2546:	0001                	nop
    2548:	7800                	ld	s0,48(s0)
    254a:	e016                	sd	t0,0(sp)
    254c:	0001                	nop
    254e:	0600                	addi	s0,sp,768
    2550:	01050263          	beq	a0,a6,2554 <_ftext-0xdaac>
    2554:	0000                	unimp
    2556:	1680                	addi	s0,sp,864
    2558:	04e2                	slli	s1,s1,0x18
    255a:	0000                	unimp
    255c:	6406                	ld	s0,64(sp)
    255e:	a502                	fsd	ft0,136(sp)
    2560:	88000007          	0x88000007
    2564:	f816                	sd	t0,48(sp)
    2566:	0002                	0x2
    2568:	0600                	addi	s0,sp,768
    256a:	0265                	addi	tp,tp,25
    256c:	07b5                	addi	a5,a5,13
    256e:	0000                	unimp
    2570:	1690                	addi	a2,sp,864
    2572:	0480                	addi	s0,sp,576
    2574:	0000                	unimp
    2576:	6606                	ld	a2,64(sp)
    2578:	3002                	fld	ft0,32(sp)
    257a:	0000                	unimp
    257c:	a800                	fsd	fs0,16(s0)
    257e:	6d16                	ld	s10,320(sp)
    2580:	0002                	0x2
    2582:	0600                	addi	s0,sp,768
    2584:	01050267          	jalr	tp,a0,16
    2588:	0000                	unimp
    258a:	16ac                	addi	a1,sp,872
    258c:	01d1                	addi	gp,gp,20
    258e:	0000                	unimp
    2590:	6806                	ld	a6,64(sp)
    2592:	0502                	slli	a0,a0,0x0
    2594:	0001                	nop
    2596:	b400                	fsd	fs0,40(s0)
    2598:	5c16                	lw	s8,100(sp)
    259a:	0002                	0x2
    259c:	0600                	addi	s0,sp,768
    259e:	0269                	addi	tp,tp,26
    25a0:	0105                	addi	sp,sp,1
    25a2:	0000                	unimp
    25a4:	16bc                	addi	a5,sp,872
    25a6:	014a                	slli	sp,sp,0x12
    25a8:	0000                	unimp
    25aa:	6a06                	ld	s4,64(sp)
    25ac:	0502                	slli	a0,a0,0x0
    25ae:	0001                	nop
    25b0:	c400                	sw	s0,8(s0)
    25b2:	5916                	lw	s2,100(sp)
    25b4:	0001                	nop
    25b6:	0600                	addi	s0,sp,768
    25b8:	0105026b          	0x105026b
    25bc:	0000                	unimp
    25be:	16cc                	addi	a1,sp,868
    25c0:	039c                	addi	a5,sp,448
    25c2:	0000                	unimp
    25c4:	6c06                	ld	s8,64(sp)
    25c6:	3002                	fld	ft0,32(sp)
    25c8:	0000                	unimp
    25ca:	d400                	sw	s0,40(s0)
    25cc:	0800                	addi	s0,sp,16
    25ce:	0568                	addi	a0,sp,652
    25d0:	0000                	unimp
    25d2:	07a5                	addi	a5,a5,9
    25d4:	0000                	unimp
    25d6:	dd09                	beqz	a0,24f0 <_ftext-0xdb10>
    25d8:	0000                	unimp
    25da:	1900                	addi	s0,sp,176
    25dc:	0800                	addi	s0,sp,16
    25de:	0568                	addi	a0,sp,652
    25e0:	0000                	unimp
    25e2:	07b5                	addi	a5,a5,13
    25e4:	0000                	unimp
    25e6:	dd09                	beqz	a0,2500 <_ftext-0xdb00>
    25e8:	0000                	unimp
    25ea:	0700                	addi	s0,sp,896
    25ec:	0800                	addi	s0,sp,16
    25ee:	0568                	addi	a0,sp,652
    25f0:	0000                	unimp
    25f2:	07c5                	addi	a5,a5,17
    25f4:	0000                	unimp
    25f6:	dd09                	beqz	a0,2510 <_ftext-0xdaf0>
    25f8:	0000                	unimp
    25fa:	1700                	addi	s0,sp,928
    25fc:	1b00                	addi	s0,sp,432
    25fe:	0168                	addi	a0,sp,140
    2600:	7106                	ld	sp,96(sp)
    2602:	ea02                	sd	zero,272(sp)
    2604:	16000007          	0x16000007
    2608:	0348                	addi	a0,sp,388
    260a:	0000                	unimp
    260c:	7406                	ld	s0,96(sp)
    260e:	ea02                	sd	zero,272(sp)
    2610:	00000007          	0x7
    2614:	3f16                	fld	ft10,352(sp)
    2616:	06000003          	lb	zero,96(zero)
    261a:	0275                	addi	tp,tp,29
    261c:	07fa                	slli	a5,a5,0x1e
    261e:	0000                	unimp
    2620:	00f0                	addi	a2,sp,76
    2622:	dc08                	sw	a0,56(s0)
    2624:	0002                	0x2
    2626:	fa00                	sd	s0,48(a2)
    2628:	09000007          	0x9000007
    262c:	00dd                	addi	ra,ra,23
    262e:	0000                	unimp
    2630:	001d                	0x1d
    2632:	6808                	ld	a0,16(s0)
    2634:	0000                	unimp
    2636:	0a00                	addi	s0,sp,272
    2638:	0008                	addi	a0,sp,0
    263a:	0900                	addi	s0,sp,144
    263c:	00dd                	addi	ra,ra,23
    263e:	0000                	unimp
    2640:	001d                	0x1d
    2642:	681c                	ld	a5,16(s0)
    2644:	0601                	addi	a2,a2,0
    2646:	0256                	slli	tp,tp,0x15
    2648:	082d                	addi	a6,a6,11
    264a:	0000                	unimp
    264c:	231d                	addiw	t1,t1,7
    264e:	0004                	addi	s1,sp,0
    2650:	0600                	addi	s0,sp,768
    2652:	026d                	addi	tp,tp,27
    2654:	0694                	addi	a3,sp,832
    2656:	0000                	unimp
    2658:	fc1d                	bnez	s0,2596 <_ftext-0xda6a>
    265a:	0004                	addi	s1,sp,0
    265c:	0600                	addi	s0,sp,768
    265e:	0276                	slli	tp,tp,0x1d
    2660:	07c5                	addi	a5,a5,17
    2662:	0000                	unimp
    2664:	0800                	addi	s0,sp,16
    2666:	0568                	addi	a0,sp,652
    2668:	0000                	unimp
    266a:	083d                	addi	a6,a6,15
    266c:	0000                	unimp
    266e:	dd09                	beqz	a0,2588 <_ftext-0xda78>
    2670:	0000                	unimp
    2672:	1800                	addi	s0,sp,48
    2674:	1e00                	addi	s0,sp,816
    2676:	0848                	addi	a0,sp,20
    2678:	0000                	unimp
    267a:	2a14                	fld	fa3,16(a2)
    267c:	0004                	addi	s1,sp,0
    267e:	0000                	unimp
    2680:	083d080f          	0x83d080f
    2684:	0000                	unimp
    2686:	017b080f          	0x17b080f
    268a:	0000                	unimp
    268c:	5f1e                	lw	t5,228(sp)
    268e:	0008                	addi	a0,sp,0
    2690:	1400                	addi	s0,sp,544
    2692:	0030                	addi	a2,sp,8
    2694:	0000                	unimp
    2696:	0f00                	addi	s0,sp,912
    2698:	6508                	ld	a0,8(a0)
    269a:	0008                	addi	a0,sp,0
    269c:	0f00                	addi	s0,sp,912
    269e:	5408                	lw	a0,40(s0)
    26a0:	0008                	addi	a0,sp,0
    26a2:	0800                	addi	s0,sp,16
    26a4:	0602                	slli	a2,a2,0x0
    26a6:	0000                	unimp
    26a8:	0000087b          	custom3	16,0,0,0
    26ac:	dd09                	beqz	a0,25c6 <_ftext-0xda3a>
    26ae:	0000                	unimp
    26b0:	0200                	addi	s0,sp,256
    26b2:	1f00                	addi	s0,sp,944
    26b4:	036a                	slli	t1,t1,0x1a
    26b6:	0000                	unimp
    26b8:	4201                	li	tp,0
    26ba:	0408                	addi	a0,sp,512
    26bc:	0001                	nop
    26be:	0000                	unimp
    26c0:	0000                	unimp
    26c2:	0194                	addi	a3,sp,192
    26c4:	0000                	unimp
    26c6:	0000                	unimp
    26c8:	0000                	unimp
    26ca:	9c01                	subw	s0,s0,s0
    26cc:	094c                	addi	a1,sp,148
    26ce:	0000                	unimp
    26d0:	b220                	fsd	fs0,96(a2)
    26d2:	0004                	addi	s1,sp,0
    26d4:	0100                	addi	s0,sp,128
    26d6:	3042                	fld	ft0,48(sp)
    26d8:	0000                	unimp
    26da:	3100                	fld	fs0,32(a0)
    26dc:	0004                	addi	s1,sp,0
    26de:	2100                	fld	fs0,0(a0)
    26e0:	0064                	addi	s1,sp,12
    26e2:	4201                	li	tp,0
    26e4:	0000011b          	sext.w	sp,zero
    26e8:	0490                	addi	a2,sp,576
    26ea:	0000                	unimp
    26ec:	7022                	0x7022
    26ee:	0100                	addi	s0,sp,128
    26f0:	9a45                	andi	a2,a2,-15
    26f2:	0002                	0x2
    26f4:	ef00                	sd	s0,24(a4)
    26f6:	0004                	addi	s1,sp,0
    26f8:	2300                	fld	fs0,0(a4)
    26fa:	07da                	slli	a5,a5,0x16
    26fc:	0000                	unimp
    26fe:	4601                	li	a2,0
    2700:	094c                	addi	a1,sp,148
    2702:	0000                	unimp
    2704:	0586                	slli	a1,a1,0x1
    2706:	0000                	unimp
    2708:	00022123          	sw	zero,2(tp) # ffffffffffff8002 <_gp+0xfffffffffffe62e2>
    270c:	0100                	addi	s0,sp,128
    270e:	00095247          	fmsub.s	ft4,fs2,ft0,ft0,unknown
    2712:	bc00                	fsd	fs0,56(s0)
    2714:	0005                	0x5
    2716:	2200                	fld	fs0,0(a2)
    2718:	006e                	0x6e
    271a:	4801                	li	a6,0
    271c:	0030                	addi	a2,sp,8
    271e:	0000                	unimp
    2720:	063d                	addi	a2,a2,15
    2722:	0000                	unimp
    2724:	6922                	ld	s2,8(sp)
    2726:	0100                	addi	s0,sp,128
    2728:	3049                	0x3049
    272a:	0000                	unimp
    272c:	7300                	ld	s0,32(a4)
    272e:	0006                	0x6
    2730:	2200                	fld	fs0,0(a2)
    2732:	6e66                	ld	t3,88(sp)
    2734:	0100                	addi	s0,sp,128
    2736:	b04a                	fsd	fs2,32(sp)
    2738:	0002                	0x2
    273a:	f600                	sd	s0,40(a2)
    273c:	0006                	0x6
    273e:	2400                	fld	fs0,8(s0)
    2740:	07e0                	addi	s0,sp,972
    2742:	0000                	unimp
    2744:	5101                	li	sp,-32
    2746:	0025                	0x25
    2748:	0000                	unimp
    274a:	3700                	fld	fs0,40(a4)
    274c:	0009                	0x9
    274e:	2200                	fld	fs0,0(a2)
    2750:	6e69                	lui	t3,0x1a
    2752:	0064                	addi	s1,sp,12
    2754:	5e01                	li	t3,-32
    2756:	0030                	addi	a2,sp,8
    2758:	0000                	unimp
    275a:	0000073f 0104e826 	0x104e8260000073f
    2762:	0000                	unimp
    2764:	0000                	unimp
    2766:	2700                	fld	fs0,8(a4)
    2768:	5a01                	li	s4,-32
    276a:	8202                	jr	tp
    276c:	0000                	unimp
    276e:	2800                	fld	fs0,16(s0)
    2770:	0524                	addi	s1,sp,648
    2772:	0001                	nop
    2774:	0000                	unimp
    2776:	0000                	unimp
    2778:	0975                	addi	s2,s2,29
    277a:	0000                	unimp
    277c:	025a0127          	0x25a0127
    2780:	0086                	slli	ra,ra,0x1
    2782:	0000                	unimp
    2784:	029a080f          	0x29a080f
    2788:	0000                	unimp
    278a:	020a080f          	0x20a080f
    278e:	0000                	unimp
    2790:	e829                	bnez	s0,27e2 <_ftext-0xd81e>
    2792:	01000007          	0x1000007
    2796:	300e                	fld	ft0,224(sp)
    2798:	0000                	unimp
    279a:	0000                	unimp
    279c:	8d2a                	mv	s10,a0
    279e:	0004                	addi	s1,sp,0
    27a0:	0600                	addi	s0,sp,768
    27a2:	097002fb          	custom3	5,0,23,4
    27a6:	0000                	unimp
    27a8:	2a18                	fld	fa4,16(a2)
    27aa:	0004                	addi	s1,sp,0
    27ac:	2b00                	fld	fs0,16(a4)
    27ae:	07d5                	addi	a5,a5,21
    27b0:	0000                	unimp
    27b2:	07d5                	addi	a5,a5,21
    27b4:	0000                	unimp
    27b6:	7e005607          	0x7e005607
    27ba:	0016                	0x16
    27bc:	0400                	addi	s0,sp,512
    27be:	cb00                	sw	s0,16(a4)
    27c0:	0009                	0x9
    27c2:	0800                	addi	s0,sp,16
    27c4:	3001                	0x3001
    27c6:	000a                	0xa
    27c8:	0c00                	addi	s0,sp,528
    27ca:	0949                	addi	s2,s2,18
    27cc:	0000                	unimp
    27ce:	059c                	addi	a5,sp,704
    27d0:	0001                	nop
    27d2:	0000                	unimp
    27d4:	0000                	unimp
    27d6:	03d0                	addi	a2,sp,452
    27d8:	0000                	unimp
    27da:	0000                	unimp
    27dc:	0000                	unimp
    27de:	1172                	slli	sp,sp,0x3c
    27e0:	0000                	unimp
    27e2:	af02                	fsd	ft0,408(sp)
    27e4:	0009                	0x9
    27e6:	0300                	addi	s0,sp,384
    27e8:	3495                	addiw	s1,s1,-27
    27ea:	0000                	unimp
    27ec:	0300                	addi	s0,sp,384
    27ee:	0508                	addi	a0,sp,640
    27f0:	0005                	0x5
    27f2:	0000                	unimp
    27f4:	db02                	sw	zero,180(sp)
    27f6:	0004                	addi	s1,sp,0
    27f8:	0300                	addi	s0,sp,384
    27fa:	46d8                	lw	a4,12(a3)
    27fc:	0000                	unimp
    27fe:	0300                	addi	s0,sp,384
    2800:	0708                	addi	a0,sp,896
    2802:	0095                	addi	ra,ra,5
    2804:	0000                	unimp
    2806:	0404                	addi	s1,sp,512
    2808:	6905                	lui	s2,0x1
    280a:	746e                	ld	s0,248(sp)
    280c:	0300                	addi	s0,sp,384
    280e:	0508                	addi	a0,sp,640
    2810:	0000                	unimp
    2812:	0000                	unimp
    2814:	ea040803          	lb	a6,-352(s0) # fffffffffffdfea0 <_gp+0xfffffffffffce180>
    2818:	0000                	unimp
    281a:	0300                	addi	s0,sp,384
    281c:	0601                	addi	a2,a2,0
    281e:	00b2                	slli	ra,ra,0xc
    2820:	0000                	unimp
    2822:	b0080103          	lb	sp,-1280(a6) # 5b00 <_ftext-0xa500>
    2826:	0000                	unimp
    2828:	0300                	addi	s0,sp,384
    282a:	0502                	slli	a0,a0,0x0
    282c:	00f6                	slli	ra,ra,0x1d
    282e:	0000                	unimp
    2830:	0e070203          	lb	tp,224(a4) # 30e0 <_ftext-0xcf20>
    2834:	0000                	unimp
    2836:	0300                	addi	s0,sp,384
    2838:	0704                	addi	s1,sp,896
    283a:	009a                	slli	ra,ra,0x6
    283c:	0000                	unimp
    283e:	bf02                	fsd	ft0,440(sp)
    2840:	0008                	addi	a0,sp,0
    2842:	0400                	addi	s0,sp,512
    2844:	00009007          	0x9007
    2848:	0300                	addi	s0,sp,384
    284a:	0708                	addi	a0,sp,896
    284c:	0090                	addi	a2,sp,64
    284e:	0000                	unimp
    2850:	8102                	jr	sp
    2852:	000a                	0xa
    2854:	0400                	addi	s0,sp,512
    2856:	7e0a                	ld	t3,160(sp)
    2858:	0000                	unimp
    285a:	0200                	addi	s0,sp,256
    285c:	07fd                	addi	a5,a5,31
    285e:	0000                	unimp
    2860:	0d04                	addi	s1,sp,656
    2862:	007e                	0x7e
    2864:	0000                	unimp
    2866:	6302                	ld	t1,0(sp)
    2868:	04000003          	lb	zero,64(zero)
    286c:	5410                	lw	a2,40(s0)
    286e:	0000                	unimp
    2870:	0200                	addi	s0,sp,256
    2872:	000009f3          	0x9f3
    2876:	1604                	addi	s1,sp,800
    2878:	0090                	addi	a2,sp,64
    287a:	0000                	unimp
    287c:	4e02                	lw	t3,0(sp)
    287e:	000a                	0xa
    2880:	0400                	addi	s0,sp,512
    2882:	9019                	c.srli	s0,0x26
    2884:	0000                	unimp
    2886:	0200                	addi	s0,sp,256
    2888:	0921                	addi	s2,s2,8
    288a:	0000                	unimp
    288c:	1c04                	addi	s1,sp,560
    288e:	007e                	0x7e
    2890:	0000                	unimp
    2892:	d902                	sw	zero,176(sp)
    2894:	0004                	addi	s1,sp,0
    2896:	0400                	addi	s0,sp,512
    2898:	341f 0000 0300      	0x3000000341f
    289e:	0708                	addi	a0,sp,896
    28a0:	0122                	slli	sp,sp,0x8
    28a2:	0000                	unimp
    28a4:	0805                	addi	a6,a6,1
    28a6:	0806                	slli	a6,a6,0x1
    28a8:	000000f3          	0xf3
    28ac:	b9080103          	lb	sp,-1136(a6)
    28b0:	0000                	unimp
    28b2:	0600                	addi	s0,sp,768
    28b4:	0008                	addi	a0,sp,0
    28b6:	0001                	nop
    28b8:	0700                	addi	s0,sp,896
    28ba:	000000f3          	0xf3
    28be:	9202                	jalr	tp
    28c0:	0008                	addi	a0,sp,0
    28c2:	0500                	addi	s0,sp,640
    28c4:	4675                	li	a2,29
    28c6:	0000                	unimp
    28c8:	0200                	addi	s0,sp,256
    28ca:	0a50                	addi	a2,sp,276
    28cc:	0000                	unimp
    28ce:	9705                	srai	a4,a4,0x21
    28d0:	000000c3          	fmadd.s	ft1,ft0,ft0,ft0,rne
    28d4:	6402                	ld	s0,0(sp)
    28d6:	05000003          	lb	zero,80(zero)
    28da:	adbc                	fsd	fa5,88(a1)
    28dc:	0000                	unimp
    28de:	0200                	addi	s0,sp,256
    28e0:	08c1                	addi	a7,a7,16
    28e2:	0000                	unimp
    28e4:	bd05                	j	2714 <_ftext-0xd8ec>
    28e6:	0085                	addi	ra,ra,1
    28e8:	0000                	unimp
    28ea:	8302                	jr	t1
    28ec:	000a                	0xa
    28ee:	0500                	addi	s0,sp,640
    28f0:	97be                	add	a5,a5,a5
    28f2:	0000                	unimp
    28f4:	0200                	addi	s0,sp,256
    28f6:	07ff                	0x7ff
    28f8:	0000                	unimp
    28fa:	bf05                	j	282a <_ftext-0xd7d6>
    28fc:	00a2                	slli	ra,ra,0x8
    28fe:	0000                	unimp
    2900:	ca02                	sw	zero,20(sp)
    2902:	000a                	0xa
    2904:	0500                	addi	s0,sp,640
    2906:	4dc5                	li	s11,17
    2908:	0000                	unimp
    290a:	0200                	addi	s0,sp,256
    290c:	04da                	slli	s1,s1,0x16
    290e:	0000                	unimp
    2910:	d205                	beqz	a2,2830 <_ftext-0xd7d0>
    2912:	00d9                	addi	ra,ra,22
    2914:	0000                	unimp
    2916:	b002                	fsd	ft0,32(sp)
    2918:	000a                	0xa
    291a:	0500                	addi	s0,sp,640
    291c:	7ee0                	ld	s0,248(a3)
    291e:	0000                	unimp
    2920:	0200                	addi	s0,sp,256
    2922:	00000923          	sb	zero,18(zero)
    2926:	e705                	bnez	a4,294e <_ftext-0xd6b2>
    2928:	00ce                	slli	ra,ra,0x13
    292a:	0000                	unimp
    292c:	b308                	fsd	fa0,32(a4)
    292e:	0008                	addi	a0,sp,0
    2930:	0500                	addi	s0,sp,640
    2932:	0129                	addi	sp,sp,10
    2934:	0034                	addi	a3,sp,8
    2936:	0000                	unimp
    2938:	c509                	beqz	a0,2942 <_ftext-0xd6be>
    293a:	000a                	0xa
    293c:	8000                	0x8000
    293e:	1a06                	slli	s4,s4,0x21
    2940:	0258                	addi	a4,sp,260
    2942:	0000                	unimp
    2944:	b70a                	fsd	ft2,424(sp)
    2946:	000a                	0xa
    2948:	0600                	addi	s0,sp,768
    294a:	261c                	fld	fa5,8(a2)
    294c:	0001                	nop
    294e:	0000                	unimp
    2950:	4f0a                	lw	t5,128(sp)
    2952:	0008                	addi	a0,sp,0
    2954:	0600                	addi	s0,sp,768
    2956:	101d                	0x101d
    2958:	0001                	nop
    295a:	0800                	addi	s0,sp,16
    295c:	bf0a                	fsd	ft2,440(sp)
    295e:	0009                	0x9
    2960:	0600                	addi	s0,sp,768
    2962:	5d1e                	lw	s10,228(sp)
    2964:	0001                	nop
    2966:	1000                	addi	s0,sp,32
    2968:	060a                	slli	a2,a2,0x2
    296a:	000a                	0xa
    296c:	0600                	addi	s0,sp,768
    296e:	681f 0001 1400      	0x14000001681f
    2974:	d70a                	sw	sp,172(sp)
    2976:	0008                	addi	a0,sp,0
    2978:	0600                	addi	s0,sp,768
    297a:	3120                	fld	fs0,96(a0)
    297c:	0001                	nop
    297e:	1800                	addi	s0,sp,48
    2980:	920a                	add	tp,tp,sp
    2982:	000a                	0xa
    2984:	0600                	addi	s0,sp,768
    2986:	3c21                	addiw	s8,s8,-24
    2988:	0001                	nop
    298a:	1c00                	addi	s0,sp,560
    298c:	640a                	ld	s0,128(sp)
    298e:	000a                	0xa
    2990:	0600                	addi	s0,sp,768
    2992:	2622                	fld	fa2,8(sp)
    2994:	0001                	nop
    2996:	2000                	fld	fs0,0(s0)
    2998:	a70a                	fsd	ft2,392(sp)
    299a:	0009                	0x9
    299c:	0600                	addi	s0,sp,768
    299e:	00011b23          	sh	zero,22(sp) # 16 <_ftext-0xffea>
    29a2:	2800                	fld	fs0,16(s0)
    29a4:	380a                	fld	fa6,160(sp)
    29a6:	0009                	0x9
    29a8:	0600                	addi	s0,sp,768
    29aa:	b831                	j	21c6 <_ftext-0xde3a>
    29ac:	0000                	unimp
    29ae:	3000                	fld	fs0,32(s0)
    29b0:	de0a                	sw	sp,60(sp)
    29b2:	0008                	addi	a0,sp,0
    29b4:	0600                	addi	s0,sp,768
    29b6:	3432                	fld	fs0,296(sp)
    29b8:	0000                	unimp
    29ba:	3800                	fld	fs0,48(s0)
    29bc:	d50a                	sw	sp,168(sp)
    29be:	000a                	0xa
    29c0:	0600                	addi	s0,sp,768
    29c2:	0000b833          	sltu	a6,ra,zero
    29c6:	4000                	lw	s0,0(s0)
    29c8:	e80a                	sd	sp,16(sp)
    29ca:	0008                	addi	a0,sp,0
    29cc:	0600                	addi	s0,sp,768
    29ce:	3434                	fld	fa3,104(s0)
    29d0:	0000                	unimp
    29d2:	4800                	lw	s0,16(s0)
    29d4:	450a                	lw	a0,128(sp)
    29d6:	000a                	0xa
    29d8:	0600                	addi	s0,sp,768
    29da:	b835                	j	2216 <_ftext-0xddea>
    29dc:	0000                	unimp
    29de:	5000                	lw	s0,32(s0)
    29e0:	f20a                	sd	sp,288(sp)
    29e2:	0008                	addi	a0,sp,0
    29e4:	0600                	addi	s0,sp,768
    29e6:	3436                	fld	fs0,360(sp)
    29e8:	0000                	unimp
    29ea:	5800                	lw	s0,48(s0)
    29ec:	1b0a                	slli	s6,s6,0x22
    29ee:	000a                	0xa
    29f0:	0600                	addi	s0,sp,768
    29f2:	00003437          	lui	s0,0x3
    29f6:	6000                	ld	s0,0(s0)
    29f8:	2d0a                	fld	fs10,128(sp)
    29fa:	0008                	addi	a0,sp,0
    29fc:	0600                	addi	s0,sp,768
    29fe:	3438                	fld	fa4,104(s0)
    2a00:	0000                	unimp
    2a02:	6800                	ld	s0,16(s0)
    2a04:	fc0a                	sd	sp,56(sp)
    2a06:	0008                	addi	a0,sp,0
    2a08:	0600                	addi	s0,sp,768
    2a0a:	5839                	li	a6,-18
    2a0c:	0002                	0x2
    2a0e:	7000                	ld	s0,32(s0)
    2a10:	0b00                	addi	s0,sp,400
    2a12:	0034                	addi	a3,sp,8
    2a14:	0000                	unimp
    2a16:	0268                	addi	a0,sp,268
    2a18:	0000                	unimp
    2a1a:	e40c                	sd	a1,8(s0)
    2a1c:	0000                	unimp
    2a1e:	0100                	addi	s0,sp,128
    2a20:	0d00                	addi	s0,sp,656
    2a22:	6d74                	ld	a3,216(a0)
    2a24:	07200073          	0x7200073
    2a28:	a510                	fsd	fa2,8(a0)
    2a2a:	0002                	0x2
    2a2c:	0a00                	addi	s0,sp,272
    2a2e:	0a26                	slli	s4,s4,0x9
    2a30:	0000                	unimp
    2a32:	01051107          	0x1051107
    2a36:	0000                	unimp
    2a38:	0a00                	addi	s0,sp,272
    2a3a:	0871                	addi	a6,a6,28
    2a3c:	0000                	unimp
    2a3e:	01051207          	0x1051207
    2a42:	0000                	unimp
    2a44:	0a08                	addi	a0,sp,272
    2a46:	00000837          	lui	a6,0x0
    2a4a:	01051307          	0x1051307
    2a4e:	0000                	unimp
    2a50:	0a10                	addi	a2,sp,272
    2a52:	0a99                	addi	s5,s5,6
    2a54:	0000                	unimp
    2a56:	01051407          	0x1051407
    2a5a:	0000                	unimp
    2a5c:	0018                	addi	a4,sp,0
    2a5e:	4109                	li	sp,2
    2a60:	0009                	0x9
    2a62:	1000                	addi	s0,sp,32
    2a64:	1108                	addi	a0,sp,160
    2a66:	02ca                	slli	t0,t0,0x12
    2a68:	0000                	unimp
    2a6a:	da0a                	sw	sp,52(sp)
    2a6c:	0009                	0x9
    2a6e:	0800                	addi	s0,sp,16
    2a70:	b812                	fsd	ft4,48(sp)
    2a72:	0000                	unimp
    2a74:	0000                	unimp
    2a76:	560a                	lw	a2,160(sp)
    2a78:	000a                	0xa
    2a7a:	0800                	addi	s0,sp,16
    2a7c:	00017313          	andi	t1,sp,0
    2a80:	0800                	addi	s0,sp,16
    2a82:	0900                	addi	s0,sp,144
    2a84:	0aaa                	slli	s5,s5,0xa
    2a86:	0000                	unimp
    2a88:	0910                	addi	a2,sp,144
    2a8a:	0719                	addi	a4,a4,6
    2a8c:	0a000003          	lb	zero,160(zero)
    2a90:	093c                	addi	a5,sp,152
    2a92:	0000                	unimp
    2a94:	1b09                	addi	s6,s6,-30
    2a96:	00b8                	addi	a4,sp,72
    2a98:	0000                	unimp
    2a9a:	0a00                	addi	s0,sp,272
    2a9c:	000008ab          	custom1	17,0,0,0
    2aa0:	1c09                	addi	s8,s8,-30
    2aa2:	00000077          	0x77
    2aa6:	0a08                	addi	a0,sp,272
    2aa8:	08a2                	slli	a7,a7,0x8
    2aaa:	0000                	unimp
    2aac:	1d09                	addi	s10,s10,-30
    2aae:	0070                	addi	a2,sp,12
    2ab0:	0000                	unimp
    2ab2:	0a0a                	slli	s4,s4,0x2
    2ab4:	0842                	slli	a6,a6,0x10
    2ab6:	0000                	unimp
    2ab8:	1e09                	addi	t3,t3,-30
    2aba:	0070                	addi	a2,sp,12
    2abc:	0000                	unimp
    2abe:	000c                	addi	a1,sp,0
    2ac0:	1209                	addi	tp,tp,-30
    2ac2:	0009                	0x9
    2ac4:	1000                	addi	s0,sp,32
    2ac6:	0c0a                	slli	s8,s8,0x2
    2ac8:	032c                	addi	a1,sp,392
    2aca:	0000                	unimp
    2acc:	f60a                	sd	sp,296(sp)
    2ace:	0a000007          	0xa000007
    2ad2:	b80e                	fsd	ft3,48(sp)
    2ad4:	0000                	unimp
    2ad6:	0000                	unimp
    2ad8:	720a                	ld	tp,160(sp)
    2ada:	000a                	0xa
    2adc:	0a00                	addi	s0,sp,272
    2ade:	0000b80f          	0xb80f
    2ae2:	0800                	addi	s0,sp,16
    2ae4:	0e00                	addi	s0,sp,784
    2ae6:	0000080f          	0x80f
    2aea:	2f02                	fld	ft10,0(sp)
    2aec:	0034                	addi	a3,sp,8
    2aee:	0000                	unimp
    2af0:	0003a403          	lw	s0,0(t2) # 19fa <_ftext-0xe606>
    2af4:	0f00                	addi	s0,sp,912
    2af6:	006e                	0x6e
    2af8:	2f02                	fld	ft10,0(sp)
    2afa:	0034                	addi	a3,sp,8
    2afc:	0000                	unimp
    2afe:	30615f0f          	0x30615f0f
    2b02:	0200                	addi	s0,sp,256
    2b04:	0000342f          	amoadd.d	s0,zero,(zero)
    2b08:	0f00                	addi	s0,sp,912
    2b0a:	615f 0031 2f02      	0x2f020031615f
    2b10:	0034                	addi	a3,sp,8
    2b12:	0000                	unimp
    2b14:	32615f0f          	0x32615f0f
    2b18:	0200                	addi	s0,sp,256
    2b1a:	0000342f          	amoadd.d	s0,zero,(zero)
    2b1e:	0f00                	addi	s0,sp,912
    2b20:	615f 0033 2f02      	0x2f020033615f
    2b26:	0034                	addi	a3,sp,8
    2b28:	0000                	unimp
    2b2a:	6110                	ld	a2,0(a0)
    2b2c:	0030                	addi	a2,sp,8
    2b2e:	3102                	fld	ft2,32(sp)
    2b30:	0034                	addi	a3,sp,8
    2b32:	0000                	unimp
    2b34:	6110                	ld	a2,0(a0)
    2b36:	0031                	0x31
    2b38:	3202                	fld	ft4,32(sp)
    2b3a:	0034                	addi	a3,sp,8
    2b3c:	0000                	unimp
    2b3e:	6110                	ld	a2,0(a0)
    2b40:	0032                	0x32
    2b42:	3302                	fld	ft6,32(sp)
    2b44:	0034                	addi	a3,sp,8
    2b46:	0000                	unimp
    2b48:	6110                	ld	a2,0(a0)
    2b4a:	34020033          	0x34020033
    2b4e:	0034                	addi	a3,sp,8
    2b50:	0000                	unimp
    2b52:	6110                	ld	a2,0(a0)
    2b54:	35020037          	lui	zero,0x35020
    2b58:	0034                	addi	a3,sp,8
    2b5a:	0000                	unimp
    2b5c:	1100                	addi	s0,sp,160
    2b5e:	0ac4                	addi	s1,sp,340
    2b60:	0000                	unimp
    2b62:	9406                	add	s0,s0,ra
    2b64:	004d                	0x4d
    2b66:	0000                	unimp
    2b68:	ca01                	beqz	a2,2b78 <_ftext-0xd488>
    2b6a:	12000003          	lb	zero,288(zero) # 35020120 <_gp+0x3500e400>
    2b6e:	000002e3          	beqz	zero,3372 <_ftext-0xcc8e>
    2b72:	9601                	srai	a2,a2,0x20
    2b74:	004d                	0x4d
    2b76:	0000                	unimp
    2b78:	0074730f          	0x74730f
    2b7c:	9601                	srai	a2,a2,0x20
    2b7e:	03ca                	slli	t2,t2,0x12
    2b80:	0000                	unimp
    2b82:	0600                	addi	s0,sp,768
    2b84:	7f08                	ld	a0,56(a4)
    2b86:	0001                	nop
    2b88:	1100                	addi	s0,sp,160
    2b8a:	0000092b          	custom1	18,0,0,0
    2b8e:	4d08                	lw	a0,24(a0)
    2b90:	004d                	0x4d
    2b92:	0000                	unimp
    2b94:	f801                	bnez	s0,2aa4 <_ftext-0xd55c>
    2b96:	13000003          	lb	zero,304(zero)
    2b9a:	7074                	ld	a3,224(s0)
    2b9c:	0100                	addi	s0,sp,128
    2b9e:	03f8015b          	custom2	2,16,31,1
    2ba2:	0000                	unimp
    2ba4:	707a7413          	andi	s0,s4,1799
    2ba8:	0100                	addi	s0,sp,128
    2baa:	00eb015b          	custom2	2,22,14,0
    2bae:	0000                	unimp
    2bb0:	0600                	addi	s0,sp,768
    2bb2:	a508                	fsd	fa0,8(a0)
    2bb4:	0002                	0x2
    2bb6:	1400                	addi	s0,sp,544
    2bb8:	000008c7          	fmsub.s	fa7,ft0,ft0,ft0,rne
    2bbc:	5e01                	li	t3,-32
    2bbe:	0034                	addi	a3,sp,8
    2bc0:	0000                	unimp
    2bc2:	059c                	addi	a5,sp,704
    2bc4:	0001                	nop
    2bc6:	0000                	unimp
    2bc8:	0000                	unimp
    2bca:	0030                	addi	a2,sp,8
    2bcc:	0000                	unimp
    2bce:	0000                	unimp
    2bd0:	0000                	unimp
    2bd2:	9c01                	subw	s0,s0,s0
    2bd4:	0000043b          	addw	s0,zero,zero
    2bd8:	6115                	addi	sp,sp,288
    2bda:	0030                	addi	a2,sp,8
    2bdc:	5e01                	li	t3,-32
    2bde:	0034                	addi	a3,sp,8
    2be0:	0000                	unimp
    2be2:	0788                	addi	a0,sp,960
    2be4:	0000                	unimp
    2be6:	b016                	fsd	ft5,32(sp)
    2be8:	0105                	addi	sp,sp,1
    2bea:	0000                	unimp
    2bec:	0000                	unimp
    2bee:	7600                	ld	s0,40(a2)
    2bf0:	0016                	0x16
    2bf2:	0000                	unimp
    2bf4:	d514                	sw	a3,40(a0)
    2bf6:	0009                	0x9
    2bf8:	0100                	addi	s0,sp,128
    2bfa:	4d64                	lw	s1,92(a0)
    2bfc:	0000                	unimp
    2bfe:	cc00                	sw	s0,24(s0)
    2c00:	0105                	addi	sp,sp,1
    2c02:	0000                	unimp
    2c04:	0000                	unimp
    2c06:	1800                	addi	s0,sp,48
    2c08:	0000                	unimp
    2c0a:	0000                	unimp
    2c0c:	0000                	unimp
    2c0e:	0100                	addi	s0,sp,128
    2c10:	009c                	addi	a5,sp,64
    2c12:	0005                	0x5
    2c14:	1700                	addi	s0,sp,928
    2c16:	09e5                	addi	s3,s3,25
    2c18:	0000                	unimp
    2c1a:	6401                	lui	s0,0x0
    2c1c:	00fa                	slli	ra,ra,0x1e
    2c1e:	0000                	unimp
    2c20:	07d4                	addi	a3,sp,964
    2c22:	0000                	unimp
    2c24:	3718                	fld	fa4,40(a4)
    2c26:	0002                	0x2
    2c28:	0100                	addi	s0,sp,128
    2c2a:	4d64                	lw	s1,92(a0)
    2c2c:	0000                	unimp
    2c2e:	0100                	addi	s0,sp,128
    2c30:	09c2185b          	0x9c2185b
    2c34:	0000                	unimp
    2c36:	6401                	lui	s0,0x0
    2c38:	004d                	0x4d
    2c3a:	0000                	unimp
    2c3c:	5c01                	li	s8,-32
    2c3e:	2c19                	addiw	s8,s8,6
    2c40:	cc000003          	lb	zero,-832(zero)
    2c44:	0105                	addi	sp,sp,1
    2c46:	0000                	unimp
    2c48:	0000                	unimp
    2c4a:	1000                	addi	s0,sp,32
    2c4c:	0000                	unimp
    2c4e:	0000                	unimp
    2c50:	0000                	unimp
    2c52:	0100                	addi	s0,sp,128
    2c54:	1a66                	slli	s4,s4,0x39
    2c56:	0366                	slli	t1,t1,0x19
    2c58:	0000                	unimp
    2c5a:	080d                	addi	a6,a6,3
    2c5c:	0000                	unimp
    2c5e:	5b1a                	lw	s6,164(sp)
    2c60:	31000003          	lb	zero,784(zero)
    2c64:	0008                	addi	a0,sp,0
    2c66:	1a00                	addi	s0,sp,304
    2c68:	0350                	addi	a2,sp,388
    2c6a:	0000                	unimp
    2c6c:	085c                	addi	a5,sp,20
    2c6e:	0000                	unimp
    2c70:	451a                	lw	a0,132(sp)
    2c72:	87000003          	lb	zero,-1936(zero)
    2c76:	0008                	addi	a0,sp,0
    2c78:	1a00                	addi	s0,sp,304
    2c7a:	033c                	addi	a5,sp,392
    2c7c:	0000                	unimp
    2c7e:	08aa                	slli	a7,a7,0xa
    2c80:	0000                	unimp
    2c82:	0105cc1b          	0x105cc1b
    2c86:	0000                	unimp
    2c88:	0000                	unimp
    2c8a:	1000                	addi	s0,sp,32
    2c8c:	0000                	unimp
    2c8e:	0000                	unimp
    2c90:	0000                	unimp
    2c92:	1c00                	addi	s0,sp,560
    2c94:	0371                	addi	t1,t1,28
    2c96:	0000                	unimp
    2c98:	5a01                	li	s4,-32
    2c9a:	7b1c                	ld	a5,48(a4)
    2c9c:	01000003          	lb	zero,16(zero)
    2ca0:	03851c5b          	0x3851c5b
    2ca4:	0000                	unimp
    2ca6:	5c01                	li	s8,-32
    2ca8:	8f1c                	0x8f1c
    2caa:	01000003          	lb	zero,16(zero)
    2cae:	1c5d                	addi	s8,s8,-9
    2cb0:	0399                	addi	t2,t2,6
    2cb2:	0000                	unimp
    2cb4:	6101                	addi	sp,sp,0
    2cb6:	0000                	unimp
    2cb8:	1400                	addi	s0,sp,544
    2cba:	09fa                	slli	s3,s3,0x1e
    2cbc:	0000                	unimp
    2cbe:	6d01                	lui	s10,0x0
    2cc0:	004d                	0x4d
    2cc2:	0000                	unimp
    2cc4:	05e4                	addi	s1,sp,716
    2cc6:	0001                	nop
    2cc8:	0000                	unimp
    2cca:	0000                	unimp
    2ccc:	0014                	addi	a3,sp,0
    2cce:	0000                	unimp
    2cd0:	0000                	unimp
    2cd2:	0000                	unimp
    2cd4:	9c01                	subw	s0,s0,s0
    2cd6:	05d2                	slli	a1,a1,0x14
    2cd8:	0000                	unimp
    2cda:	000a6c17          	auipc	s8,0xa6
    2cde:	0100                	addi	s0,sp,128
    2ce0:	4d6d                	li	s10,27
    2ce2:	0000                	unimp
    2ce4:	d000                	sw	s0,32(s0)
    2ce6:	0008                	addi	a0,sp,0
    2ce8:	1800                	addi	s0,sp,48
    2cea:	09e5                	addi	s3,s3,25
    2cec:	0000                	unimp
    2cee:	6d01                	lui	s10,0x0
    2cf0:	00fa                	slli	ra,ra,0x1e
    2cf2:	0000                	unimp
    2cf4:	5b01                	li	s6,-32
    2cf6:	3718                	fld	fa4,40(a4)
    2cf8:	0002                	0x2
    2cfa:	0100                	addi	s0,sp,128
    2cfc:	4d6d                	li	s10,27
    2cfe:	0000                	unimp
    2d00:	0100                	addi	s0,sp,128
    2d02:	185c                	addi	a5,sp,52
    2d04:	09c2                	slli	s3,s3,0x10
    2d06:	0000                	unimp
    2d08:	6d01                	lui	s10,0x0
    2d0a:	004d                	0x4d
    2d0c:	0000                	unimp
    2d0e:	5d01                	li	s10,-32
    2d10:	2c19                	addiw	s8,s8,6
    2d12:	e4000003          	lb	zero,-448(zero)
    2d16:	0105                	addi	sp,sp,1
    2d18:	0000                	unimp
    2d1a:	0000                	unimp
    2d1c:	0c00                	addi	s0,sp,528
    2d1e:	0000                	unimp
    2d20:	0000                	unimp
    2d22:	0000                	unimp
    2d24:	0100                	addi	s0,sp,128
    2d26:	03661a6f          	jal	s4,63d5c <_gp+0x5203c>
    2d2a:	0000                	unimp
    2d2c:	0909                	addi	s2,s2,2
    2d2e:	0000                	unimp
    2d30:	5b1a                	lw	s6,164(sp)
    2d32:	34000003          	lb	zero,832(zero)
    2d36:	0009                	0x9
    2d38:	1a00                	addi	s0,sp,304
    2d3a:	0350                	addi	a2,sp,388
    2d3c:	0000                	unimp
    2d3e:	095f 0000 451a      	0x451a0000095f
    2d44:	82000003          	lb	zero,-2016(zero)
    2d48:	0009                	0x9
    2d4a:	1a00                	addi	s0,sp,304
    2d4c:	033c                	addi	a5,sp,392
    2d4e:	0000                	unimp
    2d50:	09ad                	addi	s3,s3,11
    2d52:	0000                	unimp
    2d54:	0105e41b          	0x105e41b
    2d58:	0000                	unimp
    2d5a:	0000                	unimp
    2d5c:	0c00                	addi	s0,sp,528
    2d5e:	0000                	unimp
    2d60:	0000                	unimp
    2d62:	0000                	unimp
    2d64:	1c00                	addi	s0,sp,560
    2d66:	0371                	addi	t1,t1,28
    2d68:	0000                	unimp
    2d6a:	5a01                	li	s4,-32
    2d6c:	7b1c                	ld	a5,48(a4)
    2d6e:	01000003          	lb	zero,16(zero)
    2d72:	03851c5b          	0x3851c5b
    2d76:	0000                	unimp
    2d78:	5c01                	li	s8,-32
    2d7a:	8f1c                	0x8f1c
    2d7c:	01000003          	lb	zero,16(zero)
    2d80:	1c5d                	addi	s8,s8,-9
    2d82:	0399                	addi	t2,t2,6
    2d84:	0000                	unimp
    2d86:	6101                	addi	sp,sp,0
    2d88:	0000                	unimp
    2d8a:	1400                	addi	s0,sp,544
    2d8c:	0aa4                	addi	s1,sp,344
    2d8e:	0000                	unimp
    2d90:	011b810b          	custom0	2,23,17,0
    2d94:	0000                	unimp
    2d96:	05f8                	addi	a4,sp,716
    2d98:	0001                	nop
    2d9a:	0000                	unimp
    2d9c:	0000                	unimp
    2d9e:	0014                	addi	a3,sp,0
    2da0:	0000                	unimp
    2da2:	0000                	unimp
    2da4:	0000                	unimp
    2da6:	9c01                	subw	s0,s0,s0
    2da8:	00000697          	auipc	a3,0x0
    2dac:	0002e317          	auipc	t1,0x2e
    2db0:	0100                	addi	s0,sp,128
    2db2:	00004d77          	0x4d77
    2db6:	d200                	sw	s0,32(a2)
    2db8:	0009                	0x9
    2dba:	1d00                	addi	s0,sp,688
    2dbc:	7470                	ld	a2,232(s0)
    2dbe:	0072                	0x72
    2dc0:	7701                	lui	a4,0xfffe0
    2dc2:	0000011b          	sext.w	sp,zero
    2dc6:	5b01                	li	s6,-32
    2dc8:	641d                	lui	s0,0x7
    2dca:	7269                	lui	tp,0xffffa
    2dcc:	0100                	addi	s0,sp,128
    2dce:	00004d77          	0x4d77
    2dd2:	0100                	addi	s0,sp,128
    2dd4:	195c                	addi	a5,sp,180
    2dd6:	032c                	addi	a1,sp,392
    2dd8:	0000                	unimp
    2dda:	05f8                	addi	a4,sp,716
    2ddc:	0001                	nop
    2dde:	0000                	unimp
    2de0:	0000                	unimp
    2de2:	0010                	addi	a2,sp,0
    2de4:	0000                	unimp
    2de6:	0000                	unimp
    2de8:	0000                	unimp
    2dea:	7901                	lui	s2,0xfffe0
    2dec:	661a                	ld	a2,384(sp)
    2dee:	0b000003          	lb	zero,176(zero)
    2df2:	000a                	0xa
    2df4:	1a00                	addi	s0,sp,304
    2df6:	0000035b          	custom2	6,0,0,0
    2dfa:	00000a2f          	0xa2f
    2dfe:	501a                	0x501a
    2e00:	5a000003          	lb	zero,1440(zero)
    2e04:	000a                	0xa
    2e06:	1a00                	addi	s0,sp,304
    2e08:	0345                	addi	t1,t1,17
    2e0a:	0000                	unimp
    2e0c:	0a7d                	addi	s4,s4,31
    2e0e:	0000                	unimp
    2e10:	3c1a                	fld	fs8,416(sp)
    2e12:	a8000003          	lb	zero,-1408(zero)
    2e16:	000a                	0xa
    2e18:	1b00                	addi	s0,sp,432
    2e1a:	05f8                	addi	a4,sp,716
    2e1c:	0001                	nop
    2e1e:	0000                	unimp
    2e20:	0000                	unimp
    2e22:	0010                	addi	a2,sp,0
    2e24:	0000                	unimp
    2e26:	0000                	unimp
    2e28:	0000                	unimp
    2e2a:	711c                	ld	a5,32(a0)
    2e2c:	01000003          	lb	zero,16(zero)
    2e30:	1c5a                	slli	s8,s8,0x36
    2e32:	0000037b          	custom3	6,0,0,0
    2e36:	5b01                	li	s6,-32
    2e38:	851c                	0x851c
    2e3a:	01000003          	lb	zero,16(zero)
    2e3e:	1c5c                	addi	a5,sp,564
    2e40:	0000038f          	0x38f
    2e44:	5d01                	li	s10,-32
    2e46:	991c                	0x991c
    2e48:	01000003          	lb	zero,16(zero)
    2e4c:	0061                	0x61
    2e4e:	0000                	unimp
    2e50:	b714                	fsd	fa3,40(a4)
    2e52:	0002                	0x2
    2e54:	0b00                	addi	s0,sp,400
    2e56:	5295                	li	t0,-27
    2e58:	0001                	nop
    2e5a:	0c00                	addi	s0,sp,528
    2e5c:	0106                	slli	sp,sp,0x1
    2e5e:	0000                	unimp
    2e60:	0000                	unimp
    2e62:	1400                	addi	s0,sp,544
    2e64:	0000                	unimp
    2e66:	0000                	unimp
    2e68:	0000                	unimp
    2e6a:	0100                	addi	s0,sp,128
    2e6c:	5c9c                	lw	a5,56(s1)
    2e6e:	17000007          	0x17000007
    2e72:	000002e3          	beqz	zero,3676 <_ftext-0xc98a>
    2e76:	8101                	srli	a0,a0,0x0
    2e78:	004d                	0x4d
    2e7a:	0000                	unimp
    2e7c:	0acd                	addi	s5,s5,19
    2e7e:	0000                	unimp
    2e80:	701d                	0x701d
    2e82:	7274                	ld	a3,224(a2)
    2e84:	0100                	addi	s0,sp,128
    2e86:	eb81                	bnez	a5,2e96 <_ftext-0xd16a>
    2e88:	0000                	unimp
    2e8a:	0100                	addi	s0,sp,128
    2e8c:	656c1d5b          	0x656c1d5b
    2e90:	006e                	0x6e
    2e92:	8101                	srli	a0,a0,0x0
    2e94:	0000003b          	addw	zero,zero,zero
    2e98:	5c01                	li	s8,-32
    2e9a:	2c19                	addiw	s8,s8,6
    2e9c:	0c000003          	lb	zero,192(zero)
    2ea0:	0106                	slli	sp,sp,0x1
    2ea2:	0000                	unimp
    2ea4:	0000                	unimp
    2ea6:	1000                	addi	s0,sp,32
    2ea8:	0000                	unimp
    2eaa:	0000                	unimp
    2eac:	0000                	unimp
    2eae:	0100                	addi	s0,sp,128
    2eb0:	03661a83          	lh	s5,54(a2) # fffffffffffe1036 <_gp+0xfffffffffffcf316>
    2eb4:	0000                	unimp
    2eb6:	0b06                	slli	s6,s6,0x1
    2eb8:	0000                	unimp
    2eba:	5b1a                	lw	s6,164(sp)
    2ebc:	2a000003          	lb	zero,672(zero)
    2ec0:	1a00000b          	custom0	0,0,0,13
    2ec4:	0350                	addi	a2,sp,388
    2ec6:	0000                	unimp
    2ec8:	0b4d                	addi	s6,s6,19
    2eca:	0000                	unimp
    2ecc:	451a                	lw	a0,132(sp)
    2ece:	70000003          	lb	zero,1792(zero)
    2ed2:	1a00000b          	custom0	0,0,0,13
    2ed6:	033c                	addi	a5,sp,392
    2ed8:	0000                	unimp
    2eda:	00000b9b          	sext.w	s7,zero
    2ede:	01060c1b          	addiw	s8,a2,16
    2ee2:	0000                	unimp
    2ee4:	0000                	unimp
    2ee6:	1000                	addi	s0,sp,32
    2ee8:	0000                	unimp
    2eea:	0000                	unimp
    2eec:	0000                	unimp
    2eee:	1c00                	addi	s0,sp,560
    2ef0:	0371                	addi	t1,t1,28
    2ef2:	0000                	unimp
    2ef4:	5a01                	li	s4,-32
    2ef6:	7b1c                	ld	a5,48(a4)
    2ef8:	01000003          	lb	zero,16(zero)
    2efc:	03851c5b          	0x3851c5b
    2f00:	0000                	unimp
    2f02:	5c01                	li	s8,-32
    2f04:	8f1c                	0x8f1c
    2f06:	01000003          	lb	zero,16(zero)
    2f0a:	1c5d                	addi	s8,s8,-9
    2f0c:	0399                	addi	t2,t2,6
    2f0e:	0000                	unimp
    2f10:	6101                	addi	sp,sp,0
    2f12:	0000                	unimp
    2f14:	1400                	addi	s0,sp,544
    2f16:	0000032f          	0x32f
    2f1a:	0152c50b          	custom0	a0,5,21,0
    2f1e:	0000                	unimp
    2f20:	0620                	addi	s0,sp,776
    2f22:	0001                	nop
    2f24:	0000                	unimp
    2f26:	0000                	unimp
    2f28:	0014                	addi	a3,sp,0
    2f2a:	0000                	unimp
    2f2c:	0000                	unimp
    2f2e:	0000                	unimp
    2f30:	9c01                	subw	s0,s0,s0
    2f32:	0821                	addi	a6,a6,8
    2f34:	0000                	unimp
    2f36:	0002e317          	auipc	t1,0x2e
    2f3a:	0100                	addi	s0,sp,128
    2f3c:	00004d8b          	custom0	s11,0,0,0
    2f40:	c000                	sw	s0,0(s0)
    2f42:	1d00000b          	custom0	0,0,16,14
    2f46:	7470                	ld	a2,232(s0)
    2f48:	0072                	0x72
    2f4a:	8b01                	andi	a4,a4,0
    2f4c:	0821                	addi	a6,a6,8
    2f4e:	0000                	unimp
    2f50:	5b01                	li	s6,-32
    2f52:	6c1d                	lui	s8,0x7
    2f54:	6e65                	lui	t3,0x19
    2f56:	0100                	addi	s0,sp,128
    2f58:	00003b8b          	custom0	23,zero,zero,0
    2f5c:	0100                	addi	s0,sp,128
    2f5e:	195c                	addi	a5,sp,180
    2f60:	032c                	addi	a1,sp,392
    2f62:	0000                	unimp
    2f64:	0620                	addi	s0,sp,776
    2f66:	0001                	nop
    2f68:	0000                	unimp
    2f6a:	0000                	unimp
    2f6c:	0010                	addi	a2,sp,0
    2f6e:	0000                	unimp
    2f70:	0000                	unimp
    2f72:	0000                	unimp
    2f74:	8d01                	sub	a0,a0,s0
    2f76:	661a                	ld	a2,384(sp)
    2f78:	f9000003          	lb	zero,-112(zero)
    2f7c:	1a00000b          	custom0	0,0,0,13
    2f80:	0000035b          	custom2	6,0,0,0
    2f84:	0c1d                	addi	s8,s8,7
    2f86:	0000                	unimp
    2f88:	501a                	0x501a
    2f8a:	40000003          	lb	zero,1024(zero)
    2f8e:	000c                	addi	a1,sp,0
    2f90:	1a00                	addi	s0,sp,304
    2f92:	0345                	addi	t1,t1,17
    2f94:	0000                	unimp
    2f96:	00000c63          	beqz	zero,2fae <_ftext-0xd052>
    2f9a:	3c1a                	fld	fs8,416(sp)
    2f9c:	8e000003          	lb	zero,-1824(zero)
    2fa0:	000c                	addi	a1,sp,0
    2fa2:	1b00                	addi	s0,sp,432
    2fa4:	0620                	addi	s0,sp,776
    2fa6:	0001                	nop
    2fa8:	0000                	unimp
    2faa:	0000                	unimp
    2fac:	0010                	addi	a2,sp,0
    2fae:	0000                	unimp
    2fb0:	0000                	unimp
    2fb2:	0000                	unimp
    2fb4:	711c                	ld	a5,32(a0)
    2fb6:	01000003          	lb	zero,16(zero)
    2fba:	1c5a                	slli	s8,s8,0x36
    2fbc:	0000037b          	custom3	6,0,0,0
    2fc0:	5b01                	li	s6,-32
    2fc2:	851c                	0x851c
    2fc4:	01000003          	lb	zero,16(zero)
    2fc8:	1c5c                	addi	a5,sp,564
    2fca:	0000038f          	0x38f
    2fce:	5d01                	li	s10,-32
    2fd0:	991c                	0x991c
    2fd2:	01000003          	lb	zero,16(zero)
    2fd6:	0061                	0x61
    2fd8:	0000                	unimp
    2fda:	0806                	slli	a6,a6,0x1
    2fdc:	00000827          	0x827
    2fe0:	1f1e                	slli	t5,t5,0x27
    2fe2:	03a4                	addi	s1,sp,456
    2fe4:	0000                	unimp
    2fe6:	0634                	addi	a3,sp,776
    2fe8:	0001                	nop
    2fea:	0000                	unimp
    2fec:	0000                	unimp
    2fee:	001c                	addi	a5,sp,0
    2ff0:	0000                	unimp
    2ff2:	0000                	unimp
    2ff4:	0000                	unimp
    2ff6:	9c01                	subw	s0,s0,s0
    2ff8:	08ce                	slli	a7,a7,0x13
    2ffa:	0000                	unimp
    2ffc:	b41a                	fsd	ft6,40(sp)
    2ffe:	b3000003          	lb	zero,-1232(zero)
    3002:	000c                	addi	a1,sp,0
    3004:	2000                	fld	fs0,0(s0)
    3006:	000003bf 2c195b01 	0x2c195b01000003bf
    300e:	34000003          	lb	zero,832(zero)
    3012:	0106                	slli	sp,sp,0x1
    3014:	0000                	unimp
    3016:	0000                	unimp
    3018:	1400                	addi	s0,sp,544
    301a:	0000                	unimp
    301c:	0000                	unimp
    301e:	0000                	unimp
    3020:	0100                	addi	s0,sp,128
    3022:	1a98                	addi	a4,sp,368
    3024:	0366                	slli	t1,t1,0x19
    3026:	0000                	unimp
    3028:	0cec                	addi	a1,sp,604
    302a:	0000                	unimp
    302c:	5b1a                	lw	s6,164(sp)
    302e:	ec000003          	lb	zero,-320(zero)
    3032:	000c                	addi	a1,sp,0
    3034:	1a00                	addi	s0,sp,304
    3036:	0350                	addi	a2,sp,388
    3038:	0000                	unimp
    303a:	0d10                	addi	a2,sp,656
    303c:	0000                	unimp
    303e:	451a                	lw	a0,132(sp)
    3040:	33000003          	lb	zero,816(zero)
    3044:	000d                	0xd
    3046:	1a00                	addi	s0,sp,304
    3048:	033c                	addi	a5,sp,392
    304a:	0000                	unimp
    304c:	0d5e                	slli	s10,s10,0x17
    304e:	0000                	unimp
    3050:	0106341b          	0x106341b
    3054:	0000                	unimp
    3056:	0000                	unimp
    3058:	1400                	addi	s0,sp,544
    305a:	0000                	unimp
    305c:	0000                	unimp
    305e:	0000                	unimp
    3060:	1c00                	addi	s0,sp,560
    3062:	0371                	addi	t1,t1,28
    3064:	0000                	unimp
    3066:	5a01                	li	s4,-32
    3068:	7b1c                	ld	a5,48(a4)
    306a:	01000003          	lb	zero,16(zero)
    306e:	03851c5b          	0x3851c5b
    3072:	0000                	unimp
    3074:	5c01                	li	s8,-32
    3076:	8f1c                	0x8f1c
    3078:	01000003          	lb	zero,16(zero)
    307c:	1c5d                	addi	s8,s8,-9
    307e:	0399                	addi	t2,t2,6
    3080:	0000                	unimp
    3082:	6101                	addi	sp,sp,0
    3084:	0000                	unimp
    3086:	1400                	addi	s0,sp,544
    3088:	0ac5                	addi	s5,s5,17
    308a:	0000                	unimp
    308c:	9706                	add	a4,a4,ra
    308e:	004d                	0x4d
    3090:	0000                	unimp
    3092:	0650                	addi	a2,sp,772
    3094:	0001                	nop
    3096:	0000                	unimp
    3098:	0000                	unimp
    309a:	001c                	addi	a5,sp,0
    309c:	0000                	unimp
    309e:	0000                	unimp
    30a0:	0000                	unimp
    30a2:	9c01                	subw	s0,s0,s0
    30a4:	0985                	addi	s3,s3,1
    30a6:	0000                	unimp
    30a8:	0002e317          	auipc	t1,0x2e
    30ac:	0100                	addi	s0,sp,128
    30ae:	faa0                	sd	s0,112(a3)
    30b0:	0000                	unimp
    30b2:	8300                	0x8300
    30b4:	000d                	0xd
    30b6:	1d00                	addi	s0,sp,688
    30b8:	01007473          	csrrc	s0,0x10,0
    30bc:	caa0                	sw	s0,80(a3)
    30be:	01000003          	lb	zero,16(zero)
    30c2:	032c195b          	0x32c195b
    30c6:	0000                	unimp
    30c8:	0650                	addi	a2,sp,772
    30ca:	0001                	nop
    30cc:	0000                	unimp
    30ce:	0000                	unimp
    30d0:	0014                	addi	a3,sp,0
    30d2:	0000                	unimp
    30d4:	0000                	unimp
    30d6:	0000                	unimp
    30d8:	a201                	j	31d8 <_ftext-0xce28>
    30da:	661a                	ld	a2,384(sp)
    30dc:	bc000003          	lb	zero,-1088(zero)
    30e0:	000d                	0xd
    30e2:	1a00                	addi	s0,sp,304
    30e4:	0000035b          	custom2	6,0,0,0
    30e8:	0dbc                	addi	a5,sp,728
    30ea:	0000                	unimp
    30ec:	501a                	0x501a
    30ee:	e0000003          	lb	zero,-512(zero)
    30f2:	000d                	0xd
    30f4:	1a00                	addi	s0,sp,304
    30f6:	0345                	addi	t1,t1,17
    30f8:	0000                	unimp
    30fa:	00000e03          	lb	t3,0(zero)
    30fe:	3c1a                	fld	fs8,416(sp)
    3100:	26000003          	lb	zero,608(zero)
    3104:	000e                	0xe
    3106:	1b00                	addi	s0,sp,432
    3108:	0650                	addi	a2,sp,772
    310a:	0001                	nop
    310c:	0000                	unimp
    310e:	0000                	unimp
    3110:	0014                	addi	a3,sp,0
    3112:	0000                	unimp
    3114:	0000                	unimp
    3116:	0000                	unimp
    3118:	711c                	ld	a5,32(a0)
    311a:	01000003          	lb	zero,16(zero)
    311e:	1c5a                	slli	s8,s8,0x36
    3120:	0000037b          	custom3	6,0,0,0
    3124:	5b01                	li	s6,-32
    3126:	851c                	0x851c
    3128:	01000003          	lb	zero,16(zero)
    312c:	1c5c                	addi	a5,sp,564
    312e:	0000038f          	0x38f
    3132:	5d01                	li	s10,-32
    3134:	991c                	0x991c
    3136:	01000003          	lb	zero,16(zero)
    313a:	0061                	0x61
    313c:	0000                	unimp
    313e:	b914                	fsd	fa3,48(a0)
    3140:	0009                	0x9
    3142:	0100                	addi	s0,sp,128
    3144:	4daa                	lw	s11,136(sp)
    3146:	0000                	unimp
    3148:	6c00                	ld	s0,24(s0)
    314a:	0106                	slli	sp,sp,0x1
    314c:	0000                	unimp
    314e:	0000                	unimp
    3150:	1c00                	addi	s0,sp,560
    3152:	0000                	unimp
    3154:	0000                	unimp
    3156:	0000                	unimp
    3158:	0100                	addi	s0,sp,128
    315a:	3c9c                	fld	fa5,56(s1)
    315c:	000a                	0xa
    315e:	1700                	addi	s0,sp,928
    3160:	000002e3          	beqz	zero,3964 <_ftext-0xc69c>
    3164:	aa01                	j	3274 <_ftext-0xcd8c>
    3166:	00fa                	slli	ra,ra,0x1e
    3168:	0000                	unimp
    316a:	0e4c                	addi	a1,sp,788
    316c:	0000                	unimp
    316e:	731d                	lui	t1,0xfffe7
    3170:	0074                	addi	a3,sp,12
    3172:	aa01                	j	3282 <_ftext-0xcd7e>
    3174:	03ca                	slli	t2,t2,0x12
    3176:	0000                	unimp
    3178:	5b01                	li	s6,-32
    317a:	2c19                	addiw	s8,s8,6
    317c:	6c000003          	lb	zero,1728(zero)
    3180:	0106                	slli	sp,sp,0x1
    3182:	0000                	unimp
    3184:	0000                	unimp
    3186:	1400                	addi	s0,sp,544
    3188:	0000                	unimp
    318a:	0000                	unimp
    318c:	0000                	unimp
    318e:	0100                	addi	s0,sp,128
    3190:	1aac                	addi	a1,sp,376
    3192:	0366                	slli	t1,t1,0x19
    3194:	0000                	unimp
    3196:	0e85                	addi	t4,t4,1
    3198:	0000                	unimp
    319a:	5b1a                	lw	s6,164(sp)
    319c:	85000003          	lb	zero,-1968(zero)
    31a0:	000e                	0xe
    31a2:	1a00                	addi	s0,sp,304
    31a4:	0350                	addi	a2,sp,388
    31a6:	0000                	unimp
    31a8:	0ea9                	addi	t4,t4,10
    31aa:	0000                	unimp
    31ac:	451a                	lw	a0,132(sp)
    31ae:	cc000003          	lb	zero,-832(zero)
    31b2:	000e                	0xe
    31b4:	1a00                	addi	s0,sp,304
    31b6:	033c                	addi	a5,sp,392
    31b8:	0000                	unimp
    31ba:	00000eef          	jal	t4,31ba <_ftext-0xce46>
    31be:	01066c1b          	0x1066c1b
    31c2:	0000                	unimp
    31c4:	0000                	unimp
    31c6:	1400                	addi	s0,sp,544
    31c8:	0000                	unimp
    31ca:	0000                	unimp
    31cc:	0000                	unimp
    31ce:	1c00                	addi	s0,sp,560
    31d0:	0371                	addi	t1,t1,28
    31d2:	0000                	unimp
    31d4:	5a01                	li	s4,-32
    31d6:	7b1c                	ld	a5,48(a4)
    31d8:	01000003          	lb	zero,16(zero)
    31dc:	03851c5b          	0x3851c5b
    31e0:	0000                	unimp
    31e2:	5c01                	li	s8,-32
    31e4:	8f1c                	0x8f1c
    31e6:	01000003          	lb	zero,16(zero)
    31ea:	1c5d                	addi	s8,s8,-9
    31ec:	0399                	addi	t2,t2,6
    31ee:	0000                	unimp
    31f0:	6101                	addi	sp,sp,0
    31f2:	0000                	unimp
    31f4:	1400                	addi	s0,sp,544
    31f6:	089a                	slli	a7,a7,0x6
    31f8:	0000                	unimp
    31fa:	a306                	fsd	ft1,384(sp)
    31fc:	004d                	0x4d
    31fe:	0000                	unimp
    3200:	0688                	addi	a0,sp,832
    3202:	0001                	nop
    3204:	0000                	unimp
    3206:	0000                	unimp
    3208:	0014                	addi	a3,sp,0
    320a:	0000                	unimp
    320c:	0000                	unimp
    320e:	0000                	unimp
    3210:	9c01                	subw	s0,s0,s0
    3212:	0b0d                	addi	s6,s6,3
    3214:	0000                	unimp
    3216:	000a6c17          	auipc	s8,0xa6
    321a:	0100                	addi	s0,sp,128
    321c:	4db4                	lw	a3,88(a1)
    321e:	0000                	unimp
    3220:	1500                	addi	s0,sp,672
    3222:	1800000f          	0x1800000f
    3226:	000002e3          	beqz	zero,3a2a <_ftext-0xc5d6>
    322a:	b401                	j	2c2a <_ftext-0xd3d6>
    322c:	00fa                	slli	ra,ra,0x1e
    322e:	0000                	unimp
    3230:	5b01                	li	s6,-32
    3232:	731d                	lui	t1,0xfffe7
    3234:	0074                	addi	a3,sp,12
    3236:	b401                	j	2c36 <_ftext-0xd3ca>
    3238:	03ca                	slli	t2,t2,0x12
    323a:	0000                	unimp
    323c:	5c01                	li	s8,-32
    323e:	3718                	fld	fa4,40(a4)
    3240:	0002                	0x2
    3242:	0100                	addi	s0,sp,128
    3244:	4db4                	lw	a3,88(a1)
    3246:	0000                	unimp
    3248:	0100                	addi	s0,sp,128
    324a:	195d                	addi	s2,s2,-9
    324c:	032c                	addi	a1,sp,392
    324e:	0000                	unimp
    3250:	0688                	addi	a0,sp,832
    3252:	0001                	nop
    3254:	0000                	unimp
    3256:	0000                	unimp
    3258:	000c                	addi	a1,sp,0
    325a:	0000                	unimp
    325c:	0000                	unimp
    325e:	0000                	unimp
    3260:	b601                	j	2d60 <_ftext-0xd2a0>
    3262:	661a                	ld	a2,384(sp)
    3264:	4e000003          	lb	zero,1248(zero)
    3268:	1a00000f          	0x1a00000f
    326c:	0000035b          	custom2	6,0,0,0
    3270:	0f79                	addi	t5,t5,30
    3272:	0000                	unimp
    3274:	501a                	0x501a
    3276:	9c000003          	lb	zero,-1600(zero)
    327a:	1a00000f          	0x1a00000f
    327e:	0345                	addi	t1,t1,17
    3280:	0000                	unimp
    3282:	00000fbf 00033c1a 	0x33c1a00000fbf
    328a:	ea00                	sd	s0,16(a2)
    328c:	1b00000f          	0x1b00000f
    3290:	0688                	addi	a0,sp,832
    3292:	0001                	nop
    3294:	0000                	unimp
    3296:	0000                	unimp
    3298:	000c                	addi	a1,sp,0
    329a:	0000                	unimp
    329c:	0000                	unimp
    329e:	0000                	unimp
    32a0:	711c                	ld	a5,32(a0)
    32a2:	01000003          	lb	zero,16(zero)
    32a6:	1c5a                	slli	s8,s8,0x36
    32a8:	0000037b          	custom3	6,0,0,0
    32ac:	5b01                	li	s6,-32
    32ae:	851c                	0x851c
    32b0:	01000003          	lb	zero,16(zero)
    32b4:	1c5c                	addi	a5,sp,564
    32b6:	0000038f          	0x38f
    32ba:	5d01                	li	s10,-32
    32bc:	991c                	0x991c
    32be:	01000003          	lb	zero,16(zero)
    32c2:	0061                	0x61
    32c4:	0000                	unimp
    32c6:	1a14                	addi	a3,sp,304
    32c8:	0009                	0x9
    32ca:	0b00                	addi	s0,sp,400
    32cc:	4d14                	lw	a3,24(a0)
    32ce:	0000                	unimp
    32d0:	9c00                	0x9c00
    32d2:	0106                	slli	sp,sp,0x1
    32d4:	0000                	unimp
    32d6:	0000                	unimp
    32d8:	1c00                	addi	s0,sp,560
    32da:	0000                	unimp
    32dc:	0000                	unimp
    32de:	0000                	unimp
    32e0:	0100                	addi	s0,sp,128
    32e2:	c59c                	sw	a5,8(a1)
    32e4:	1700000b          	custom0	0,0,16,11
    32e8:	000002e3          	beqz	zero,3aec <_ftext-0xc514>
    32ec:	be01                	j	2dfc <_ftext-0xd204>
    32ee:	00fa                	slli	ra,ra,0x1e
    32f0:	0000                	unimp
    32f2:	0000100f          	fence.i
    32f6:	c218                	sw	a4,0(a2)
    32f8:	0009                	0x9
    32fa:	0100                	addi	s0,sp,128
    32fc:	4dbe                	lw	s11,204(sp)
    32fe:	0000                	unimp
    3300:	0100                	addi	s0,sp,128
    3302:	032c195b          	0x32c195b
    3306:	0000                	unimp
    3308:	069c                	addi	a5,sp,832
    330a:	0001                	nop
    330c:	0000                	unimp
    330e:	0000                	unimp
    3310:	0014                	addi	a3,sp,0
    3312:	0000                	unimp
    3314:	0000                	unimp
    3316:	0000                	unimp
    3318:	c001                	beqz	s0,3318 <_ftext-0xcce8>
    331a:	661a                	ld	a2,384(sp)
    331c:	48000003          	lb	zero,1152(zero)
    3320:	0010                	addi	a2,sp,0
    3322:	1a00                	addi	s0,sp,304
    3324:	0000035b          	custom2	6,0,0,0
    3328:	1048                	addi	a0,sp,36
    332a:	0000                	unimp
    332c:	501a                	0x501a
    332e:	6c000003          	lb	zero,1728(zero)
    3332:	0010                	addi	a2,sp,0
    3334:	1a00                	addi	s0,sp,304
    3336:	0345                	addi	t1,t1,17
    3338:	0000                	unimp
    333a:	00001097          	auipc	ra,0x1
    333e:	3c1a                	fld	fs8,416(sp)
    3340:	ba000003          	lb	zero,-1120(zero)
    3344:	0010                	addi	a2,sp,0
    3346:	1b00                	addi	s0,sp,432
    3348:	069c                	addi	a5,sp,832
    334a:	0001                	nop
    334c:	0000                	unimp
    334e:	0000                	unimp
    3350:	0014                	addi	a3,sp,0
    3352:	0000                	unimp
    3354:	0000                	unimp
    3356:	0000                	unimp
    3358:	711c                	ld	a5,32(a0)
    335a:	01000003          	lb	zero,16(zero)
    335e:	1c5a                	slli	s8,s8,0x36
    3360:	0000037b          	custom3	6,0,0,0
    3364:	5b01                	li	s6,-32
    3366:	851c                	0x851c
    3368:	01000003          	lb	zero,16(zero)
    336c:	1c5c                	addi	a5,sp,564
    336e:	0000038f          	0x38f
    3372:	5d01                	li	s10,-32
    3374:	991c                	0x991c
    3376:	01000003          	lb	zero,16(zero)
    337a:	0061                	0x61
    337c:	0000                	unimp
    337e:	0514                	addi	a3,sp,640
    3380:	0008                	addi	a0,sp,0
    3382:	0b00                	addi	s0,sp,400
    3384:	4d3c                	lw	a5,88(a0)
    3386:	0000                	unimp
    3388:	b800                	fsd	fs0,48(s0)
    338a:	0106                	slli	sp,sp,0x1
    338c:	0000                	unimp
    338e:	0000                	unimp
    3390:	1400                	addi	s0,sp,544
    3392:	0000                	unimp
    3394:	0000                	unimp
    3396:	0000                	unimp
    3398:	0100                	addi	s0,sp,128
    339a:	979c                	0x979c
    339c:	000c                	addi	a1,sp,0
    339e:	1700                	addi	s0,sp,928
    33a0:	0a6c                	addi	a1,sp,284
    33a2:	0000                	unimp
    33a4:	c801                	beqz	s0,33b4 <_ftext-0xcc4c>
    33a6:	004d                	0x4d
    33a8:	0000                	unimp
    33aa:	10e0                	addi	s0,sp,108
    33ac:	0000                	unimp
    33ae:	e318                	sd	a4,0(a4)
    33b0:	0002                	0x2
    33b2:	0100                	addi	s0,sp,128
    33b4:	fac8                	sd	a0,176(a3)
    33b6:	0000                	unimp
    33b8:	0100                	addi	s0,sp,128
    33ba:	09c2185b          	0x9c2185b
    33be:	0000                	unimp
    33c0:	c801                	beqz	s0,33d0 <_ftext-0xcc30>
    33c2:	004d                	0x4d
    33c4:	0000                	unimp
    33c6:	5c01                	li	s8,-32
    33c8:	3718                	fld	fa4,40(a4)
    33ca:	0002                	0x2
    33cc:	0100                	addi	s0,sp,128
    33ce:	4dc8                	lw	a0,28(a1)
    33d0:	0000                	unimp
    33d2:	0100                	addi	s0,sp,128
    33d4:	195d                	addi	s2,s2,-9
    33d6:	032c                	addi	a1,sp,392
    33d8:	0000                	unimp
    33da:	06b8                	addi	a4,sp,840
    33dc:	0001                	nop
    33de:	0000                	unimp
    33e0:	0000                	unimp
    33e2:	000c                	addi	a1,sp,0
    33e4:	0000                	unimp
    33e6:	0000                	unimp
    33e8:	0000                	unimp
    33ea:	ca01                	beqz	a2,33fa <_ftext-0xcc06>
    33ec:	661a                	ld	a2,384(sp)
    33ee:	19000003          	lb	zero,400(zero)
    33f2:	0011                	0x11
    33f4:	1a00                	addi	s0,sp,304
    33f6:	0000035b          	custom2	6,0,0,0
    33fa:	1144                	addi	s1,sp,164
    33fc:	0000                	unimp
    33fe:	501a                	0x501a
    3400:	6f000003          	lb	zero,1776(zero)
    3404:	0011                	0x11
    3406:	1a00                	addi	s0,sp,304
    3408:	0345                	addi	t1,t1,17
    340a:	0000                	unimp
    340c:	1192                	slli	gp,gp,0x24
    340e:	0000                	unimp
    3410:	3c1a                	fld	fs8,416(sp)
    3412:	bd000003          	lb	zero,-1072(zero)
    3416:	0011                	0x11
    3418:	1b00                	addi	s0,sp,432
    341a:	06b8                	addi	a4,sp,840
    341c:	0001                	nop
    341e:	0000                	unimp
    3420:	0000                	unimp
    3422:	000c                	addi	a1,sp,0
    3424:	0000                	unimp
    3426:	0000                	unimp
    3428:	0000                	unimp
    342a:	711c                	ld	a5,32(a0)
    342c:	01000003          	lb	zero,16(zero)
    3430:	1c5a                	slli	s8,s8,0x36
    3432:	0000037b          	custom3	6,0,0,0
    3436:	5b01                	li	s6,-32
    3438:	851c                	0x851c
    343a:	01000003          	lb	zero,16(zero)
    343e:	1c5c                	addi	a5,sp,564
    3440:	0000038f          	0x38f
    3444:	5d01                	li	s10,-32
    3446:	991c                	0x991c
    3448:	01000003          	lb	zero,16(zero)
    344c:	0061                	0x61
    344e:	0000                	unimp
    3450:	1f14                	addi	a3,sp,944
    3452:	0005                	0x5
    3454:	0b00                	addi	s0,sp,400
    3456:	4d1e                	lw	s10,196(sp)
    3458:	0000                	unimp
    345a:	cc00                	sw	s0,24(s0)
    345c:	0106                	slli	sp,sp,0x1
    345e:	0000                	unimp
    3460:	0000                	unimp
    3462:	2000                	fld	fs0,0(s0)
    3464:	0000                	unimp
    3466:	0000                	unimp
    3468:	0000                	unimp
    346a:	0100                	addi	s0,sp,128
    346c:	429c                	lw	a5,0(a3)
    346e:	000d                	0xd
    3470:	1700                	addi	s0,sp,928
    3472:	000002e3          	beqz	zero,3c76 <_ftext-0xc38a>
    3476:	d201                	beqz	a2,3376 <_ftext-0xcc8a>
    3478:	004d                	0x4d
    347a:	0000                	unimp
    347c:	11e2                	slli	gp,gp,0x38
    347e:	0000                	unimp
    3480:	2c19                	addiw	s8,s8,6
    3482:	cc000003          	lb	zero,-832(zero)
    3486:	0106                	slli	sp,sp,0x1
    3488:	0000                	unimp
    348a:	0000                	unimp
    348c:	1800                	addi	s0,sp,48
    348e:	0000                	unimp
    3490:	0000                	unimp
    3492:	0000                	unimp
    3494:	0100                	addi	s0,sp,128
    3496:	1ad4                	addi	a3,sp,372
    3498:	0366                	slli	t1,t1,0x19
    349a:	0000                	unimp
    349c:	0000121b          	slliw	tp,zero,0x0
    34a0:	5b1a                	lw	s6,164(sp)
    34a2:	1b000003          	lb	zero,432(zero)
    34a6:	0012                	0x12
    34a8:	1a00                	addi	s0,sp,304
    34aa:	0350                	addi	a2,sp,388
    34ac:	0000                	unimp
    34ae:	0000121b          	slliw	tp,zero,0x0
    34b2:	451a                	lw	a0,132(sp)
    34b4:	3f000003          	lb	zero,1008(zero)
    34b8:	0012                	0x12
    34ba:	1a00                	addi	s0,sp,304
    34bc:	033c                	addi	a5,sp,392
    34be:	0000                	unimp
    34c0:	126a                	slli	tp,tp,0x3a
    34c2:	0000                	unimp
    34c4:	0106cc1b          	0x106cc1b
    34c8:	0000                	unimp
    34ca:	0000                	unimp
    34cc:	1800                	addi	s0,sp,48
    34ce:	0000                	unimp
    34d0:	0000                	unimp
    34d2:	0000                	unimp
    34d4:	1c00                	addi	s0,sp,560
    34d6:	0371                	addi	t1,t1,28
    34d8:	0000                	unimp
    34da:	5a01                	li	s4,-32
    34dc:	7b1c                	ld	a5,48(a4)
    34de:	01000003          	lb	zero,16(zero)
    34e2:	03851c5b          	0x3851c5b
    34e6:	0000                	unimp
    34e8:	5c01                	li	s8,-32
    34ea:	8f1c                	0x8f1c
    34ec:	01000003          	lb	zero,16(zero)
    34f0:	1c5d                	addi	s8,s8,-9
    34f2:	0399                	addi	t2,t2,6
    34f4:	0000                	unimp
    34f6:	6101                	addi	sp,sp,0
    34f8:	0000                	unimp
    34fa:	1400                	addi	s0,sp,544
    34fc:	0a0a                	slli	s4,s4,0x2
    34fe:	0000                	unimp
    3500:	004d7b0b          	custom0	s6,s10,tp,0
    3504:	0000                	unimp
    3506:	06ec                	addi	a1,sp,844
    3508:	0001                	nop
    350a:	0000                	unimp
    350c:	0000                	unimp
    350e:	001c                	addi	a5,sp,0
    3510:	0000                	unimp
    3512:	0000                	unimp
    3514:	0000                	unimp
    3516:	9c01                	subw	s0,s0,s0
    3518:	0dfa                	slli	s11,s11,0x1e
    351a:	0000                	unimp
    351c:	0009e117          	auipc	sp,0x9e
    3520:	0100                	addi	s0,sp,128
    3522:	fadc                	sd	a5,176(a3)
    3524:	0000                	unimp
    3526:	8f00                	0x8f00
    3528:	0012                	0x12
    352a:	1800                	addi	s0,sp,48
    352c:	0a89                	addi	s5,s5,2
    352e:	0000                	unimp
    3530:	dc01                	beqz	s0,3448 <_ftext-0xcbb8>
    3532:	00fa                	slli	ra,ra,0x1e
    3534:	0000                	unimp
    3536:	5b01                	li	s6,-32
    3538:	2c19                	addiw	s8,s8,6
    353a:	ec000003          	lb	zero,-320(zero)
    353e:	0106                	slli	sp,sp,0x1
    3540:	0000                	unimp
    3542:	0000                	unimp
    3544:	1400                	addi	s0,sp,544
    3546:	0000                	unimp
    3548:	0000                	unimp
    354a:	0000                	unimp
    354c:	0100                	addi	s0,sp,128
    354e:	1ade                	slli	s5,s5,0x37
    3550:	0366                	slli	t1,t1,0x19
    3552:	0000                	unimp
    3554:	12c8                	addi	a0,sp,356
    3556:	0000                	unimp
    3558:	5b1a                	lw	s6,164(sp)
    355a:	c8000003          	lb	zero,-896(zero)
    355e:	0012                	0x12
    3560:	1a00                	addi	s0,sp,304
    3562:	0350                	addi	a2,sp,388
    3564:	0000                	unimp
    3566:	12ec                	addi	a1,sp,364
    3568:	0000                	unimp
    356a:	451a                	lw	a0,132(sp)
    356c:	0f000003          	lb	zero,240(zero)
    3570:	1a000013          	li	zero,416
    3574:	033c                	addi	a5,sp,392
    3576:	0000                	unimp
    3578:	1332                	slli	t1,t1,0x2c
    357a:	0000                	unimp
    357c:	0106ec1b          	0x106ec1b
    3580:	0000                	unimp
    3582:	0000                	unimp
    3584:	1400                	addi	s0,sp,544
    3586:	0000                	unimp
    3588:	0000                	unimp
    358a:	0000                	unimp
    358c:	1c00                	addi	s0,sp,560
    358e:	0371                	addi	t1,t1,28
    3590:	0000                	unimp
    3592:	5a01                	li	s4,-32
    3594:	7b1c                	ld	a5,48(a4)
    3596:	01000003          	lb	zero,16(zero)
    359a:	03851c5b          	0x3851c5b
    359e:	0000                	unimp
    35a0:	5c01                	li	s8,-32
    35a2:	8f1c                	0x8f1c
    35a4:	01000003          	lb	zero,16(zero)
    35a8:	1c5d                	addi	s8,s8,-9
    35aa:	0399                	addi	t2,t2,6
    35ac:	0000                	unimp
    35ae:	6101                	addi	sp,sp,0
    35b0:	0000                	unimp
    35b2:	1400                	addi	s0,sp,544
    35b4:	09ce                	slli	s3,s3,0x13
    35b6:	0000                	unimp
    35b8:	004dc20b          	custom0	tp,27,4,0
    35bc:	0000                	unimp
    35be:	0708                	addi	a0,sp,896
    35c0:	0001                	nop
    35c2:	0000                	unimp
    35c4:	0000                	unimp
    35c6:	0020                	addi	s0,sp,8
    35c8:	0000                	unimp
    35ca:	0000                	unimp
    35cc:	0000                	unimp
    35ce:	9c01                	subw	s0,s0,s0
    35d0:	0ea5                	addi	t4,t4,9
    35d2:	0000                	unimp
    35d4:	0009e517          	auipc	a0,0x9e
    35d8:	0100                	addi	s0,sp,128
    35da:	fae6                	sd	s9,368(sp)
    35dc:	0000                	unimp
    35de:	5800                	lw	s0,48(s0)
    35e0:	19000013          	li	zero,400
    35e4:	032c                	addi	a1,sp,392
    35e6:	0000                	unimp
    35e8:	0708                	addi	a0,sp,896
    35ea:	0001                	nop
    35ec:	0000                	unimp
    35ee:	0000                	unimp
    35f0:	0018                	addi	a4,sp,0
    35f2:	0000                	unimp
    35f4:	0000                	unimp
    35f6:	0000                	unimp
    35f8:	e801                	bnez	s0,3608 <_ftext-0xc9f8>
    35fa:	661a                	ld	a2,384(sp)
    35fc:	91000003          	lb	zero,-1776(zero)
    3600:	1a000013          	li	zero,416
    3604:	0000035b          	custom2	6,0,0,0
    3608:	1391                	addi	t2,t2,-28
    360a:	0000                	unimp
    360c:	501a                	0x501a
    360e:	91000003          	lb	zero,-1776(zero)
    3612:	1a000013          	li	zero,416
    3616:	0345                	addi	t1,t1,17
    3618:	0000                	unimp
    361a:	13b5                	addi	t2,t2,-19
    361c:	0000                	unimp
    361e:	3c1a                	fld	fs8,416(sp)
    3620:	d8000003          	lb	zero,-640(zero)
    3624:	1b000013          	li	zero,432
    3628:	0708                	addi	a0,sp,896
    362a:	0001                	nop
    362c:	0000                	unimp
    362e:	0000                	unimp
    3630:	0018                	addi	a4,sp,0
    3632:	0000                	unimp
    3634:	0000                	unimp
    3636:	0000                	unimp
    3638:	711c                	ld	a5,32(a0)
    363a:	01000003          	lb	zero,16(zero)
    363e:	1c5a                	slli	s8,s8,0x36
    3640:	0000037b          	custom3	6,0,0,0
    3644:	5b01                	li	s6,-32
    3646:	851c                	0x851c
    3648:	01000003          	lb	zero,16(zero)
    364c:	1c5c                	addi	a5,sp,564
    364e:	0000038f          	0x38f
    3652:	5d01                	li	s10,-32
    3654:	991c                	0x991c
    3656:	01000003          	lb	zero,16(zero)
    365a:	0061                	0x61
    365c:	0000                	unimp
    365e:	7b14                	ld	a3,48(a4)
    3660:	0008                	addi	a0,sp,0
    3662:	0b00                	addi	s0,sp,400
    3664:	4d36                	lw	s10,76(sp)
    3666:	0000                	unimp
    3668:	2800                	fld	fs0,16(s0)
    366a:	00000107          	0x107
    366e:	0000                	unimp
    3670:	2400                	fld	fs0,8(s0)
    3672:	0000                	unimp
    3674:	0000                	unimp
    3676:	0000                	unimp
    3678:	0100                	addi	s0,sp,128
    367a:	019c                	addi	a5,sp,192
    367c:	1700000f          	0x1700000f
    3680:	09e5                	addi	s3,s3,25
    3682:	0000                	unimp
    3684:	f101                	bnez	a0,3584 <_ftext-0xca7c>
    3686:	00fa                	slli	ra,ra,0x1e
    3688:	0000                	unimp
    368a:	13fe                	slli	t2,t2,0x3f
    368c:	0000                	unimp
    368e:	000ad017          	auipc	zero,0xad
    3692:	0100                	addi	s0,sp,128
    3694:	01f1                	addi	gp,gp,28
    3696:	3700000f          	0x3700000f
    369a:	0014                	addi	a3,sp,0
    369c:	1500                	addi	s0,sp,672
    369e:	6e65                	lui	t3,0x19
    36a0:	0076                	0x76
    36a2:	f101                	bnez	a0,35a2 <_ftext-0xca5e>
    36a4:	0f01                	addi	t5,t5,0
    36a6:	0000                	unimp
    36a8:	1470                	addi	a2,sp,556
    36aa:	0000                	unimp
    36ac:	3416                	fld	fs0,352(sp)
    36ae:	00000107          	0x107
    36b2:	0000                	unimp
    36b4:	7600                	ld	s0,40(a2)
    36b6:	0016                	0x16
    36b8:	0000                	unimp
    36ba:	0806                	slli	a6,a6,0x1
    36bc:	00000f07          	0xf07
    36c0:	0000ed07          	0xed07
    36c4:	1400                	addi	s0,sp,544
    36c6:	0888                	addi	a0,sp,80
    36c8:	0000                	unimp
    36ca:	01474b0b          	custom0	s6,14,20,0
    36ce:	0000                	unimp
    36d0:	074c                	addi	a1,sp,900
    36d2:	0001                	nop
    36d4:	0000                	unimp
    36d6:	0000                	unimp
    36d8:	0024                	addi	s1,sp,8
    36da:	0000                	unimp
    36dc:	0000                	unimp
    36de:	0000                	unimp
    36e0:	9c01                	subw	s0,s0,s0
    36e2:	00000f3b          	addw	t5,zero,zero
    36e6:	5816                	lw	a6,100(sp)
    36e8:	00000107          	0x107
    36ec:	0000                	unimp
    36ee:	7600                	ld	s0,40(a2)
    36f0:	0016                	0x16
    36f2:	0000                	unimp
    36f4:	7a21                	lui	s4,0xfffe8
    36f6:	000a                	0xa
    36f8:	0b00                	addi	s0,sp,400
    36fa:	476a                	lw	a4,152(sp)
    36fc:	0001                	nop
    36fe:	7000                	ld	s0,32(s0)
    3700:	00000107          	0x107
    3704:	0000                	unimp
    3706:	0800                	addi	s0,sp,16
    3708:	0000                	unimp
    370a:	0000                	unimp
    370c:	0000                	unimp
    370e:	0100                	addi	s0,sp,128
    3710:	229c                	fld	fa5,0(a3)
    3712:	084a                	slli	a6,a6,0x12
    3714:	0000                	unimp
    3716:	1501                	addi	a0,a0,-32
    3718:	4d01                	li	s10,0
    371a:	0000                	unimp
    371c:	7800                	ld	s0,48(s0)
    371e:	00000107          	0x107
    3722:	0000                	unimp
    3724:	2400                	fld	fs0,8(s0)
    3726:	0000                	unimp
    3728:	0000                	unimp
    372a:	0000                	unimp
    372c:	0100                	addi	s0,sp,128
    372e:	a89c                	fsd	fa5,16(s1)
    3730:	2300000f          	0x2300000f
    3734:	6970                	ld	a2,208(a0)
    3736:	0064                	addi	s1,sp,12
    3738:	1501                	addi	a0,a0,-32
    373a:	4d01                	li	s10,0
    373c:	0000                	unimp
    373e:	a900                	fsd	fs0,16(a0)
    3740:	0014                	addi	a3,sp,0
    3742:	2300                	fld	fs0,0(a4)
    3744:	00676973          	csrrs	s2,0x6,14
    3748:	1501                	addi	a0,a0,-32
    374a:	4d01                	li	s10,0
    374c:	0000                	unimp
    374e:	e200                	sd	s0,0(a2)
    3750:	0014                	addi	a3,sp,0
    3752:	1600                	addi	s0,sp,800
    3754:	0784                	addi	s1,sp,960
    3756:	0001                	nop
    3758:	0000                	unimp
    375a:	0000                	unimp
    375c:	1676                	slli	a2,a2,0x3d
    375e:	0000                	unimp
    3760:	2200                	fld	fs0,0(a2)
    3762:	0856                	slli	a6,a6,0x15
    3764:	0000                	unimp
    3766:	2101                	sext.w	sp,sp
    3768:	4d01                	li	s10,0
    376a:	0000                	unimp
    376c:	9c00                	0x9c00
    376e:	00000107          	0x107
    3772:	0000                	unimp
    3774:	2400                	fld	fs0,8(s0)
    3776:	0000                	unimp
    3778:	0000                	unimp
    377a:	0000                	unimp
    377c:	0100                	addi	s0,sp,128
    377e:	e89c                	sd	a5,16(s1)
    3780:	2400000f          	0x2400000f
    3784:	0a14                	addi	a3,sp,272
    3786:	0000                	unimp
    3788:	2101                	sext.w	sp,sp
    378a:	e801                	bnez	s0,379a <_ftext-0xc866>
    378c:	1b00000f          	0x1b00000f
    3790:	0015                	0x15
    3792:	1600                	addi	s0,sp,800
    3794:	07a8                	addi	a0,sp,968
    3796:	0001                	nop
    3798:	0000                	unimp
    379a:	0000                	unimp
    379c:	1676                	slli	a2,a2,0x3d
    379e:	0000                	unimp
    37a0:	0600                	addi	s0,sp,768
    37a2:	4d08                	lw	a0,24(a0)
    37a4:	0000                	unimp
    37a6:	1400                	addi	s0,sp,544
    37a8:	000009c7          	fmsub.s	fs3,ft0,ft0,ft0,rne
    37ac:	004d770b          	custom0	a4,s10,tp,0
    37b0:	0000                	unimp
    37b2:	07c0                	addi	s0,sp,964
    37b4:	0001                	nop
    37b6:	0000                	unimp
    37b8:	0000                	unimp
    37ba:	003c                	addi	a5,sp,8
    37bc:	0000                	unimp
    37be:	0000                	unimp
    37c0:	0000                	unimp
    37c2:	9c01                	subw	s0,s0,s0
    37c4:	000010db          	0x10db
    37c8:	e324                	sd	s1,64(a4)
    37ca:	0002                	0x2
    37cc:	0100                	addi	s0,sp,128
    37ce:	012e                	slli	sp,sp,0xb
    37d0:	004d                	0x4d
    37d2:	0000                	unimp
    37d4:	1554                	addi	a3,sp,676
    37d6:	0000                	unimp
    37d8:	7325                	lui	t1,0xfffe9
    37da:	0100                	addi	s0,sp,128
    37dc:	0130                	addi	a2,sp,136
    37de:	017f                	0x17f
    37e0:	0000                	unimp
    37e2:	7f809103          	lh	sp,2040(ra) # 4b32 <_ftext-0xb4ce>
    37e6:	7226                	ld	tp,104(sp)
    37e8:	7465                	lui	s0,0xffff9
    37ea:	0100                	addi	s0,sp,128
    37ec:	0131                	addi	sp,sp,12
    37ee:	004d                	0x4d
    37f0:	0000                	unimp
    37f2:	0003a427          	fsw	ft0,8(t2)
    37f6:	c400                	sw	s0,8(s0)
    37f8:	00000107          	0x107
    37fc:	0000                	unimp
    37fe:	5000                	lw	s0,32(s0)
    3800:	0000                	unimp
    3802:	0100                	addi	s0,sp,128
    3804:	0131                	addi	sp,sp,12
    3806:	bf1a                	fsd	ft6,440(sp)
    3808:	8d000003          	lb	zero,-1840(zero) # aff5e <_gp+0x9e23e>
    380c:	0015                	0x15
    380e:	1a00                	addi	s0,sp,304
    3810:	03b4                	addi	a3,sp,456
    3812:	0000                	unimp
    3814:	15b0                	addi	a2,sp,744
    3816:	0000                	unimp
    3818:	2c19                	addiw	s8,s8,6
    381a:	c4000003          	lb	zero,-960(zero)
    381e:	00000107          	0x107
    3822:	0000                	unimp
    3824:	1800                	addi	s0,sp,48
    3826:	0000                	unimp
    3828:	0000                	unimp
    382a:	0000                	unimp
    382c:	0100                	addi	s0,sp,128
    382e:	1a98                	addi	a4,sp,368
    3830:	0366                	slli	t1,t1,0x19
    3832:	0000                	unimp
    3834:	15e9                	addi	a1,a1,-6
    3836:	0000                	unimp
    3838:	5b1a                	lw	s6,164(sp)
    383a:	e9000003          	lb	zero,-368(zero)
    383e:	0015                	0x15
    3840:	1a00                	addi	s0,sp,304
    3842:	0350                	addi	a2,sp,388
    3844:	0000                	unimp
    3846:	160d                	addi	a2,a2,-29
    3848:	0000                	unimp
    384a:	451a                	lw	a0,132(sp)
    384c:	30000003          	lb	zero,768(zero)
    3850:	0016                	0x16
    3852:	1a00                	addi	s0,sp,304
    3854:	033c                	addi	a5,sp,392
    3856:	0000                	unimp
    3858:	0000165b          	0x165b
    385c:	0107c41b          	0x107c41b
    3860:	0000                	unimp
    3862:	0000                	unimp
    3864:	1800                	addi	s0,sp,48
    3866:	0000                	unimp
    3868:	0000                	unimp
    386a:	0000                	unimp
    386c:	1c00                	addi	s0,sp,560
    386e:	0371                	addi	t1,t1,28
    3870:	0000                	unimp
    3872:	5a01                	li	s4,-32
    3874:	7b1c                	ld	a5,48(a4)
    3876:	01000003          	lb	zero,16(zero)
    387a:	03851c5b          	0x3851c5b
    387e:	0000                	unimp
    3880:	5c01                	li	s8,-32
    3882:	8f1c                	0x8f1c
    3884:	01000003          	lb	zero,16(zero)
    3888:	1c5d                	addi	s8,s8,-9
    388a:	0399                	addi	t2,t2,6
    388c:	0000                	unimp
    388e:	6101                	addi	sp,sp,0
    3890:	0000                	unimp
    3892:	0000                	unimp
    3894:	be14                	fsd	fa3,56(a2)
    3896:	000a                	0xa
    3898:	0700                	addi	s0,sp,896
    389a:	00010517          	auipc	a0,0x10
    389e:	fc00                	sd	s0,56(s0)
    38a0:	00000107          	0x107
    38a4:	0000                	unimp
    38a6:	9000                	0x9000
    38a8:	0000                	unimp
    38aa:	0000                	unimp
    38ac:	0000                	unimp
    38ae:	0100                	addi	s0,sp,128
    38b0:	8f9c                	0x8f9c
    38b2:	0012                	0x12
    38b4:	2300                	fld	fs0,0(a4)
    38b6:	7562                	ld	a0,56(sp)
    38b8:	0066                	0x66
    38ba:	4501                	li	a0,0
    38bc:	8f01                	sub	a4,a4,s0
    38be:	0012                	0x12
    38c0:	8000                	0x8000
    38c2:	0016                	0x16
    38c4:	2500                	fld	fs0,8(a0)
    38c6:	3074                	fld	fa3,224(s0)
    38c8:	0100                	addi	s0,sp,128
    38ca:	0148                	addi	a0,sp,132
    38cc:	02a5                	addi	t0,t0,9
    38ce:	0000                	unimp
    38d0:	0309                	addi	t1,t1,2
    38d2:	1578                	addi	a4,sp,684
    38d4:	0001                	nop
    38d6:	0000                	unimp
    38d8:	0000                	unimp
    38da:	7425                	lui	s0,0xfffe9
    38dc:	0100                	addi	s0,sp,128
    38de:	014c                	addi	a1,sp,132
    38e0:	02a5                	addi	t0,t0,9
    38e2:	0000                	unimp
    38e4:	9102                	jalr	sp
    38e6:	2870                	fld	fa2,208(s0)
    38e8:	0a2a                	slli	s4,s4,0xa
    38ea:	0000                	unimp
    38ec:	4f01                	li	t5,0
    38ee:	5401                	li	s0,-32
    38f0:	0000                	unimp
    38f2:	b600                	fsd	fs0,40(a2)
    38f4:	0016                	0x16
    38f6:	2900                	fld	fs0,16(a0)
    38f8:	03d0                	addi	a2,sp,452
    38fa:	0000                	unimp
    38fc:	0810                	addi	a2,sp,16
    38fe:	0001                	nop
    3900:	0000                	unimp
    3902:	0000                	unimp
    3904:	001c                	addi	a5,sp,0
    3906:	0000                	unimp
    3908:	0000                	unimp
    390a:	0000                	unimp
    390c:	4a01                	li	s4,0
    390e:	e801                	bnez	s0,391e <_ftext-0xc6e2>
    3910:	0011                	0x11
    3912:	1a00                	addi	s0,sp,304
    3914:	000003eb          	0x3eb
    3918:	1732                	slli	a4,a4,0x2c
    391a:	0000                	unimp
    391c:	e01a                	sd	t1,0(sp)
    391e:	56000003          	lb	zero,1376(zero)
    3922:	2a000017          	auipc	zero,0x2a000
    3926:	032c                	addi	a1,sp,392
    3928:	0000                	unimp
    392a:	0810                	addi	a2,sp,16
    392c:	0001                	nop
    392e:	0000                	unimp
    3930:	0000                	unimp
    3932:	001c                	addi	a5,sp,0
    3934:	0000                	unimp
    3936:	0000                	unimp
    3938:	0000                	unimp
    393a:	5d01                	li	s10,-32
    393c:	1a01                	addi	s4,s4,-32
    393e:	0366                	slli	t1,t1,0x19
    3940:	0000                	unimp
    3942:	1732                	slli	a4,a4,0x2c
    3944:	0000                	unimp
    3946:	5b1a                	lw	s6,164(sp)
    3948:	32000003          	lb	zero,800(zero) # 2a003c42 <_gp+0x29ff1f22>
    394c:	1a000017          	auipc	zero,0x1a000
    3950:	0350                	addi	a2,sp,388
    3952:	0000                	unimp
    3954:	1732                	slli	a4,a4,0x2c
    3956:	0000                	unimp
    3958:	451a                	lw	a0,132(sp)
    395a:	56000003          	lb	zero,1376(zero) # 1a003eac <_gp+0x19ff218c>
    395e:	1a000017          	auipc	zero,0x1a000
    3962:	033c                	addi	a5,sp,392
    3964:	0000                	unimp
    3966:	1782                	slli	a5,a5,0x20
    3968:	0000                	unimp
    396a:	0108101b          	slliw	zero,a6,0x10
    396e:	0000                	unimp
    3970:	0000                	unimp
    3972:	1c00                	addi	s0,sp,560
    3974:	0000                	unimp
    3976:	0000                	unimp
    3978:	0000                	unimp
    397a:	1c00                	addi	s0,sp,560
    397c:	0371                	addi	t1,t1,28
    397e:	0000                	unimp
    3980:	5a01                	li	s4,-32
    3982:	7b1c                	ld	a5,48(a4)
    3984:	01000003          	lb	zero,16(zero) # 1a00396e <_gp+0x19ff1c4e>
    3988:	03851c5b          	0x3851c5b
    398c:	0000                	unimp
    398e:	5c01                	li	s8,-32
    3990:	8f1c                	0x8f1c
    3992:	01000003          	lb	zero,16(zero)
    3996:	1c5d                	addi	s8,s8,-9
    3998:	0399                	addi	t2,t2,6
    399a:	0000                	unimp
    399c:	6101                	addi	sp,sp,0
    399e:	0000                	unimp
    39a0:	2a00                	fld	fs0,16(a2)
    39a2:	03d0                	addi	a2,sp,452
    39a4:	0000                	unimp
    39a6:	082c                	addi	a1,sp,24
    39a8:	0001                	nop
    39aa:	0000                	unimp
    39ac:	0000                	unimp
    39ae:	001c                	addi	a5,sp,0
    39b0:	0000                	unimp
    39b2:	0000                	unimp
    39b4:	0000                	unimp
    39b6:	4d01                	li	s10,0
    39b8:	1a01                	addi	s4,s4,-32
    39ba:	000003eb          	0x3eb
    39be:	000017a7          	0x17a7
    39c2:	e01a                	sd	t1,0(sp)
    39c4:	cb000003          	lb	zero,-848(zero)
    39c8:	2a000017          	auipc	zero,0x2a000
    39cc:	032c                	addi	a1,sp,392
    39ce:	0000                	unimp
    39d0:	082c                	addi	a1,sp,24
    39d2:	0001                	nop
    39d4:	0000                	unimp
    39d6:	0000                	unimp
    39d8:	001c                	addi	a5,sp,0
    39da:	0000                	unimp
    39dc:	0000                	unimp
    39de:	0000                	unimp
    39e0:	5d01                	li	s10,-32
    39e2:	1a01                	addi	s4,s4,-32
    39e4:	0366                	slli	t1,t1,0x19
    39e6:	0000                	unimp
    39e8:	000017a7          	0x17a7
    39ec:	5b1a                	lw	s6,164(sp)
    39ee:	a7000003          	lb	zero,-1424(zero) # 2a003438 <_gp+0x29ff1718>
    39f2:	1a000017          	auipc	zero,0x1a000
    39f6:	0350                	addi	a2,sp,388
    39f8:	0000                	unimp
    39fa:	000017a7          	0x17a7
    39fe:	451a                	lw	a0,132(sp)
    3a00:	cb000003          	lb	zero,-848(zero) # 1a0036a2 <_gp+0x19ff1982>
    3a04:	1a000017          	auipc	zero,0x1a000
    3a08:	033c                	addi	a5,sp,392
    3a0a:	0000                	unimp
    3a0c:	17ee                	slli	a5,a5,0x3b
    3a0e:	0000                	unimp
    3a10:	01082c1b          	0x1082c1b
    3a14:	0000                	unimp
    3a16:	0000                	unimp
    3a18:	1c00                	addi	s0,sp,560
    3a1a:	0000                	unimp
    3a1c:	0000                	unimp
    3a1e:	0000                	unimp
    3a20:	1c00                	addi	s0,sp,560
    3a22:	0371                	addi	t1,t1,28
    3a24:	0000                	unimp
    3a26:	5a01                	li	s4,-32
    3a28:	7b1c                	ld	a5,48(a4)
    3a2a:	01000003          	lb	zero,16(zero) # 1a003a14 <_gp+0x19ff1cf4>
    3a2e:	03851c5b          	0x3851c5b
    3a32:	0000                	unimp
    3a34:	5c01                	li	s8,-32
    3a36:	8f1c                	0x8f1c
    3a38:	01000003          	lb	zero,16(zero)
    3a3c:	1c5d                	addi	s8,s8,-9
    3a3e:	0399                	addi	t2,t2,6
    3a40:	0000                	unimp
    3a42:	6101                	addi	sp,sp,0
    3a44:	0000                	unimp
    3a46:	0000                	unimp
    3a48:	0806                	slli	a6,a6,0x1
    3a4a:	0268                	addi	a0,sp,268
    3a4c:	0000                	unimp
    3a4e:	d01f 0003 8c00      	0x8c000003d01f
    3a54:	0108                	addi	a0,sp,128
    3a56:	0000                	unimp
    3a58:	0000                	unimp
    3a5a:	2000                	fld	fs0,0(s0)
    3a5c:	0000                	unimp
    3a5e:	0000                	unimp
    3a60:	0000                	unimp
    3a62:	0100                	addi	s0,sp,128
    3a64:	3e9c                	fld	fa5,56(a3)
    3a66:	1a000013          	li	zero,416
    3a6a:	03e0                	addi	s0,sp,460
    3a6c:	0000                	unimp
    3a6e:	00001813          	slli	a6,zero,0x0
    3a72:	eb1a                	sd	t1,400(sp)
    3a74:	4c000003          	lb	zero,1216(zero)
    3a78:	0018                	addi	a4,sp,0
    3a7a:	2a00                	fld	fs0,16(a2)
    3a7c:	032c                	addi	a1,sp,392
    3a7e:	0000                	unimp
    3a80:	088c                	addi	a1,sp,80
    3a82:	0001                	nop
    3a84:	0000                	unimp
    3a86:	0000                	unimp
    3a88:	0018                	addi	a4,sp,0
    3a8a:	0000                	unimp
    3a8c:	0000                	unimp
    3a8e:	0000                	unimp
    3a90:	5d01                	li	s10,-32
    3a92:	1a01                	addi	s4,s4,-32
    3a94:	0366                	slli	t1,t1,0x19
    3a96:	0000                	unimp
    3a98:	1885                	addi	a7,a7,-31
    3a9a:	0000                	unimp
    3a9c:	5b1a                	lw	s6,164(sp)
    3a9e:	85000003          	lb	zero,-1968(zero)
    3aa2:	0018                	addi	a4,sp,0
    3aa4:	1a00                	addi	s0,sp,304
    3aa6:	0350                	addi	a2,sp,388
    3aa8:	0000                	unimp
    3aaa:	1885                	addi	a7,a7,-31
    3aac:	0000                	unimp
    3aae:	451a                	lw	a0,132(sp)
    3ab0:	a9000003          	lb	zero,-1392(zero)
    3ab4:	0018                	addi	a4,sp,0
    3ab6:	1a00                	addi	s0,sp,304
    3ab8:	033c                	addi	a5,sp,392
    3aba:	0000                	unimp
    3abc:	18cc                	addi	a1,sp,116
    3abe:	0000                	unimp
    3ac0:	01088c1b          	addiw	s8,a7,16
    3ac4:	0000                	unimp
    3ac6:	0000                	unimp
    3ac8:	1800                	addi	s0,sp,48
    3aca:	0000                	unimp
    3acc:	0000                	unimp
    3ace:	0000                	unimp
    3ad0:	1c00                	addi	s0,sp,560
    3ad2:	0371                	addi	t1,t1,28
    3ad4:	0000                	unimp
    3ad6:	5a01                	li	s4,-32
    3ad8:	7b1c                	ld	a5,48(a4)
    3ada:	01000003          	lb	zero,16(zero)
    3ade:	03851c5b          	0x3851c5b
    3ae2:	0000                	unimp
    3ae4:	5c01                	li	s8,-32
    3ae6:	8f1c                	0x8f1c
    3ae8:	01000003          	lb	zero,16(zero)
    3aec:	1c5d                	addi	s8,s8,-9
    3aee:	0399                	addi	t2,t2,6
    3af0:	0000                	unimp
    3af2:	6101                	addi	sp,sp,0
    3af4:	0000                	unimp
    3af6:	1400                	addi	s0,sp,544
    3af8:	090c                	addi	a1,sp,144
    3afa:	0000                	unimp
    3afc:	2109                	addiw	sp,sp,2
    3afe:	004d                	0x4d
    3b00:	0000                	unimp
    3b02:	08ac                	addi	a1,sp,88
    3b04:	0001                	nop
    3b06:	0000                	unimp
    3b08:	0000                	unimp
    3b0a:	0010                	addi	a2,sp,0
    3b0c:	0000                	unimp
    3b0e:	0000                	unimp
    3b10:	0000                	unimp
    3b12:	9c01                	subw	s0,s0,s0
    3b14:	0000136f          	jal	t1,4b14 <_ftext-0xb4ec>
    3b18:	00707423          	0x707423
    3b1c:	6501                	lui	a0,0x0
    3b1e:	6f01                	lui	t5,0x0
    3b20:	f1000013          	li	zero,-240
    3b24:	0018                	addi	a4,sp,0
    3b26:	0000                	unimp
    3b28:	0806                	slli	a6,a6,0x1
    3b2a:	02ca                	slli	t0,t0,0x12
    3b2c:	0000                	unimp
    3b2e:	2a22                	fld	fs4,8(sp)
    3b30:	000a                	0xa
    3b32:	0100                	addi	s0,sp,128
    3b34:	0170                	addi	a2,sp,140
    3b36:	004d                	0x4d
    3b38:	0000                	unimp
    3b3a:	08bc                	addi	a5,sp,88
    3b3c:	0001                	nop
    3b3e:	0000                	unimp
    3b40:	0000                	unimp
    3b42:	0008                	addi	a0,sp,0
    3b44:	0000                	unimp
    3b46:	0000                	unimp
    3b48:	0000                	unimp
    3b4a:	9c01                	subw	s0,s0,s0
    3b4c:	13b6                	slli	t2,t2,0x2d
    3b4e:	0000                	unimp
    3b50:	2824                	fld	fs1,80(s0)
    3b52:	0008                	addi	a0,sp,0
    3b54:	0100                	addi	s0,sp,128
    3b56:	0170                	addi	a2,sp,140
    3b58:	00fa                	slli	ra,ra,0x1e
    3b5a:	0000                	unimp
    3b5c:	192a                	slli	s2,s2,0x2a
    3b5e:	0000                	unimp
    3b60:	000abe2b          	custom1	28,s5,zero,0
    3b64:	0100                	addi	s0,sp,128
    3b66:	0170                	addi	a2,sp,140
    3b68:	13b6                	slli	t2,t2,0x2d
    3b6a:	0000                	unimp
    3b6c:	5b01                	li	s6,-32
    3b6e:	0600                	addi	s0,sp,768
    3b70:	bc08                	fsd	fa0,56(s0)
    3b72:	07000013          	li	zero,112
    3b76:	00000307          	0x307
    3b7a:	2214                	fld	fa3,0(a2)
    3b7c:	0008                	addi	a0,sp,0
    3b7e:	0b00                	addi	s0,sp,400
    3b80:	4d19                	li	s10,6
    3b82:	0000                	unimp
    3b84:	c400                	sw	s0,8(s0)
    3b86:	0108                	addi	a0,sp,128
    3b88:	0000                	unimp
    3b8a:	0000                	unimp
    3b8c:	0800                	addi	s0,sp,16
    3b8e:	0000                	unimp
    3b90:	0000                	unimp
    3b92:	0000                	unimp
    3b94:	0100                	addi	s0,sp,128
    3b96:	0f9c                	addi	a5,sp,976
    3b98:	0014                	addi	a3,sp,0
    3b9a:	2400                	fld	fs0,8(s0)
    3b9c:	0828                	addi	a0,sp,24
    3b9e:	0000                	unimp
    3ba0:	7a01                	lui	s4,0xfffe0
    3ba2:	fa01                	bnez	a2,3ab2 <_ftext-0xc54e>
    3ba4:	0000                	unimp
    3ba6:	6300                	ld	s0,0(a4)
    3ba8:	0019                	0x19
    3baa:	2b00                	fld	fs0,16(a4)
    3bac:	0a5e                	slli	s4,s4,0x17
    3bae:	0000                	unimp
    3bb0:	7a01                	lui	s4,0xfffe0
    3bb2:	3101                	addiw	sp,sp,-32
    3bb4:	0001                	nop
    3bb6:	0100                	addi	s0,sp,128
    3bb8:	085b2b5b          	custom2	22,s6,5,4
    3bbc:	0000                	unimp
    3bbe:	7a01                	lui	s4,0xfffe0
    3bc0:	3c01                	addiw	s8,s8,-32
    3bc2:	0001                	nop
    3bc4:	0100                	addi	s0,sp,128
    3bc6:	005c                	addi	a5,sp,4
    3bc8:	0614                	addi	a3,sp,768
    3bca:	0009                	0x9
    3bcc:	0b00                	addi	s0,sp,400
    3bce:	00004d17          	auipc	s10,0x4
    3bd2:	cc00                	sw	s0,24(s0)
    3bd4:	0108                	addi	a0,sp,128
    3bd6:	0000                	unimp
    3bd8:	0000                	unimp
    3bda:	0800                	addi	s0,sp,16
    3bdc:	0000                	unimp
    3bde:	0000                	unimp
    3be0:	0000                	unimp
    3be2:	0100                	addi	s0,sp,128
    3be4:	4f9c                	lw	a5,24(a5)
    3be6:	0014                	addi	a3,sp,0
    3be8:	2400                	fld	fs0,8(s0)
    3bea:	0828                	addi	a0,sp,24
    3bec:	0000                	unimp
    3bee:	8401                	srai	s0,s0,0x0
    3bf0:	fa01                	bnez	a2,3b00 <_ftext-0xc500>
    3bf2:	0000                	unimp
    3bf4:	9c00                	0x9c00
    3bf6:	0019                	0x19
    3bf8:	2b00                	fld	fs0,16(a4)
    3bfa:	09c2                	slli	s3,s3,0x10
    3bfc:	0000                	unimp
    3bfe:	8401                	srai	s0,s0,0x0
    3c00:	5d01                	li	s10,-32
    3c02:	0001                	nop
    3c04:	0100                	addi	s0,sp,128
    3c06:	8214005b          	custom2	0,8,1,65
    3c0a:	0008                	addi	a0,sp,0
    3c0c:	0b00                	addi	s0,sp,400
    3c0e:	4d16                	lw	s10,68(sp)
    3c10:	0000                	unimp
    3c12:	d400                	sw	s0,40(s0)
    3c14:	0108                	addi	a0,sp,128
    3c16:	0000                	unimp
    3c18:	0000                	unimp
    3c1a:	0800                	addi	s0,sp,16
    3c1c:	0000                	unimp
    3c1e:	0000                	unimp
    3c20:	0000                	unimp
    3c22:	0100                	addi	s0,sp,128
    3c24:	819c                	0x819c
    3c26:	0014                	addi	a3,sp,0
    3c28:	2400                	fld	fs0,8(s0)
    3c2a:	0828                	addi	a0,sp,24
    3c2c:	0000                	unimp
    3c2e:	8e01                	sub	a2,a2,s0
    3c30:	fa01                	bnez	a2,3b40 <_ftext-0xc4c0>
    3c32:	0000                	unimp
    3c34:	d500                	sw	s0,40(a0)
    3c36:	0019                	0x19
    3c38:	0000                	unimp
    3c3a:	de14                	sw	a3,56(a2)
    3c3c:	000a                	0xa
    3c3e:	0b00                	addi	s0,sp,400
    3c40:	ed52                	sd	s4,152(sp)
    3c42:	0000                	unimp
    3c44:	dc00                	sw	s0,56(s0)
    3c46:	0108                	addi	a0,sp,128
    3c48:	0000                	unimp
    3c4a:	0000                	unimp
    3c4c:	0800                	addi	s0,sp,16
    3c4e:	0000                	unimp
    3c50:	0000                	unimp
    3c52:	0000                	unimp
    3c54:	0100                	addi	s0,sp,128
    3c56:	c19c                	sw	a5,0(a1)
    3c58:	0014                	addi	a3,sp,0
    3c5a:	2300                	fld	fs0,0(a4)
    3c5c:	7562                	ld	a0,56(sp)
    3c5e:	0066                	0x66
    3c60:	9801                	andi	s0,s0,-32
    3c62:	ed01                	bnez	a0,3c7a <_ftext-0xc386>
    3c64:	0000                	unimp
    3c66:	0e00                	addi	s0,sp,784
    3c68:	001a                	0x1a
    3c6a:	2b00                	fld	fs0,16(a4)
    3c6c:	09aa                	slli	s3,s3,0xa
    3c6e:	0000                	unimp
    3c70:	9801                	andi	s0,s0,-32
    3c72:	3b01                	addiw	s6,s6,-32
    3c74:	0000                	unimp
    3c76:	0100                	addi	s0,sp,128
    3c78:	6914005b          	custom2	0,8,17,52
    3c7c:	0008                	addi	a0,sp,0
    3c7e:	0b00                	addi	s0,sp,400
    3c80:	000034bb          	0x34bb
    3c84:	e400                	sd	s0,8(s0)
    3c86:	0108                	addi	a0,sp,128
    3c88:	0000                	unimp
    3c8a:	0000                	unimp
    3c8c:	1c00                	addi	s0,sp,560
    3c8e:	0000                	unimp
    3c90:	0000                	unimp
    3c92:	0000                	unimp
    3c94:	0100                	addi	s0,sp,128
    3c96:	f39c                	sd	a5,32(a5)
    3c98:	0014                	addi	a3,sp,0
    3c9a:	2400                	fld	fs0,8(s0)
    3c9c:	09e5                	addi	s3,s3,25
    3c9e:	0000                	unimp
    3ca0:	a201                	j	3da0 <_ftext-0xc260>
    3ca2:	4d01                	li	s10,0
    3ca4:	0000                	unimp
    3ca6:	4700                	lw	s0,8(a4)
    3ca8:	001a                	0x1a
    3caa:	0000                	unimp
    3cac:	0114                	addi	a3,sp,128
    3cae:	000a                	0xa
    3cb0:	0b00                	addi	s0,sp,400
    3cb2:	eb9e                	sd	t2,464(sp)
    3cb4:	0000                	unimp
    3cb6:	0000                	unimp
    3cb8:	0109                	addi	sp,sp,2
    3cba:	0000                	unimp
    3cbc:	0000                	unimp
    3cbe:	5000                	lw	s0,32(s0)
    3cc0:	0000                	unimp
    3cc2:	0000                	unimp
    3cc4:	0000                	unimp
    3cc6:	0100                	addi	s0,sp,128
    3cc8:	c29c                	sw	a5,0(a3)
    3cca:	0015                	0x15
    3ccc:	2400                	fld	fs0,8(s0)
    3cce:	088d                	addi	a7,a7,3
    3cd0:	0000                	unimp
    3cd2:	b501                	j	3ad2 <_ftext-0xc52e>
    3cd4:	2901                	sext.w	s2,s2
    3cd6:	0000                	unimp
    3cd8:	a900                	fsd	fs0,16(a0)
    3cda:	001a                	0x1a
    3cdc:	2c00                	fld	fs0,24(s0)
    3cde:	09ee                	slli	s3,s3,0x1b
    3ce0:	0000                	unimp
    3ce2:	b701                	j	3be2 <_ftext-0xc41e>
    3ce4:	c201                	beqz	a2,3ce4 <_ftext-0xc31c>
    3ce6:	0015                	0x15
    3ce8:	2d00                	fld	fs0,24(a0)
    3cea:	09ea                	slli	s3,s3,0x1a
    3cec:	0000                	unimp
    3cee:	b801                	j	34fe <_ftext-0xcb02>
    3cf0:	4601                	li	a2,0
    3cf2:	0000                	unimp
    3cf4:	0900                	addi	s0,sp,144
    3cf6:	01153803          	ld	a6,17(a0) # 11 <_ftext-0xffef>
    3cfa:	0000                	unimp
    3cfc:	0000                	unimp
    3cfe:	2a00                	fld	fs0,16(a2)
    3d00:	032c                	addi	a1,sp,392
    3d02:	0000                	unimp
    3d04:	0914                	addi	a3,sp,144
    3d06:	0001                	nop
    3d08:	0000                	unimp
    3d0a:	0000                	unimp
    3d0c:	001c                	addi	a5,sp,0
    3d0e:	0000                	unimp
    3d10:	0000                	unimp
    3d12:	0000                	unimp
    3d14:	bc01                	j	3724 <_ftext-0xc8dc>
    3d16:	1a01                	addi	s4,s4,-32
    3d18:	0366                	slli	t1,t1,0x19
    3d1a:	0000                	unimp
    3d1c:	1af5                	addi	s5,s5,-3
    3d1e:	0000                	unimp
    3d20:	5b1a                	lw	s6,164(sp)
    3d22:	f5000003          	lb	zero,-176(zero)
    3d26:	001a                	0x1a
    3d28:	1a00                	addi	s0,sp,304
    3d2a:	0350                	addi	a2,sp,388
    3d2c:	0000                	unimp
    3d2e:	1af5                	addi	s5,s5,-3
    3d30:	0000                	unimp
    3d32:	451a                	lw	a0,132(sp)
    3d34:	19000003          	lb	zero,400(zero)
    3d38:	1a00001b          	addiw	zero,zero,416
    3d3c:	033c                	addi	a5,sp,392
    3d3e:	0000                	unimp
    3d40:	1b6c                	addi	a1,sp,444
    3d42:	0000                	unimp
    3d44:	0109141b          	slliw	s0,s2,0x10
    3d48:	0000                	unimp
    3d4a:	0000                	unimp
    3d4c:	1c00                	addi	s0,sp,560
    3d4e:	0000                	unimp
    3d50:	0000                	unimp
    3d52:	0000                	unimp
    3d54:	1c00                	addi	s0,sp,560
    3d56:	0371                	addi	t1,t1,28
    3d58:	0000                	unimp
    3d5a:	5a01                	li	s4,-32
    3d5c:	7b1c                	ld	a5,48(a4)
    3d5e:	01000003          	lb	zero,16(zero)
    3d62:	03851c5b          	0x3851c5b
    3d66:	0000                	unimp
    3d68:	5c01                	li	s8,-32
    3d6a:	8f1c                	0x8f1c
    3d6c:	01000003          	lb	zero,16(zero)
    3d70:	1c5d                	addi	s8,s8,-9
    3d72:	0399                	addi	t2,t2,6
    3d74:	0000                	unimp
    3d76:	6101                	addi	sp,sp,0
    3d78:	0000                	unimp
    3d7a:	0b00                	addi	s0,sp,400
    3d7c:	0069                	0x69
    3d7e:	0000                	unimp
    3d80:	15cd                	addi	a1,a1,-13
    3d82:	0000                	unimp
    3d84:	002e                	0x2e
    3d86:	0001f72f          	0x1f72f
    3d8a:	0b00                	addi	s0,sp,400
    3d8c:	5012                	0x5012
    3d8e:	0109                	addi	sp,sp,2
    3d90:	0000                	unimp
    3d92:	0000                	unimp
    3d94:	1c00                	addi	s0,sp,560
    3d96:	0000                	unimp
    3d98:	0000                	unimp
    3d9a:	0000                	unimp
    3d9c:	0100                	addi	s0,sp,128
    3d9e:	6a9c                	ld	a5,16(a3)
    3da0:	0016                	0x16
    3da2:	2400                	fld	fs0,8(s0)
    3da4:	00000a0f          	0xa0f
    3da8:	c801                	beqz	s0,3db8 <_ftext-0xc248>
    3daa:	4d01                	li	s10,0
    3dac:	0000                	unimp
    3dae:	9100                	0x9100
    3db0:	2a00001b          	addiw	zero,zero,672
    3db4:	032c                	addi	a1,sp,392
    3db6:	0000                	unimp
    3db8:	0950                	addi	a2,sp,148
    3dba:	0001                	nop
    3dbc:	0000                	unimp
    3dbe:	0000                	unimp
    3dc0:	001c                	addi	a5,sp,0
    3dc2:	0000                	unimp
    3dc4:	0000                	unimp
    3dc6:	0000                	unimp
    3dc8:	ca01                	beqz	a2,3dd8 <_ftext-0xc228>
    3dca:	3001                	0x3001
    3dcc:	0366                	slli	t1,t1,0x19
    3dce:	0000                	unimp
    3dd0:	3000                	fld	fs0,32(s0)
    3dd2:	0000035b          	custom2	6,0,0,0
    3dd6:	3000                	fld	fs0,32(s0)
    3dd8:	0350                	addi	a2,sp,388
    3dda:	0000                	unimp
    3ddc:	1a00                	addi	s0,sp,304
    3dde:	0345                	addi	t1,t1,17
    3de0:	0000                	unimp
    3de2:	1bca                	slli	s7,s7,0x32
    3de4:	0000                	unimp
    3de6:	3c30                	fld	fa2,120(s0)
    3de8:	5d000003          	lb	zero,1488(zero)
    3dec:	0109501b          	srliw	zero,s2,0x10
    3df0:	0000                	unimp
    3df2:	0000                	unimp
    3df4:	1c00                	addi	s0,sp,560
    3df6:	0000                	unimp
    3df8:	0000                	unimp
    3dfa:	0000                	unimp
    3dfc:	1c00                	addi	s0,sp,560
    3dfe:	0371                	addi	t1,t1,28
    3e00:	0000                	unimp
    3e02:	5a01                	li	s4,-32
    3e04:	7b1c                	ld	a5,48(a4)
    3e06:	01000003          	lb	zero,16(zero)
    3e0a:	03851c5b          	0x3851c5b
    3e0e:	0000                	unimp
    3e10:	5c01                	li	s8,-32
    3e12:	8f1c                	0x8f1c
    3e14:	01000003          	lb	zero,16(zero)
    3e18:	1c5d                	addi	s8,s8,-9
    3e1a:	0399                	addi	t2,t2,6
    3e1c:	0000                	unimp
    3e1e:	6101                	addi	sp,sp,0
    3e20:	0000                	unimp
    3e22:	2c00                	fld	fs0,24(s0)
    3e24:	09ee                	slli	s3,s3,0x1b
    3e26:	0000                	unimp
    3e28:	b701                	j	3d28 <_ftext-0xc2d8>
    3e2a:	c201                	beqz	a2,3e2a <_ftext-0xc1d6>
    3e2c:	0015                	0x15
    3e2e:	3100                	fld	fs0,32(a0)
    3e30:	0861                	addi	a6,a6,24
    3e32:	0000                	unimp
    3e34:	0861                	addi	a6,a6,24
    3e36:	0000                	unimp
    3e38:	0f0c                	addi	a1,sp,912
    3e3a:	a700                	fsd	fs0,8(a4)
    3e3c:	0008                	addi	a0,sp,0
    3e3e:	0400                	addi	s0,sp,512
    3e40:	8500                	0x8500
    3e42:	000c                	addi	a1,sp,0
    3e44:	0800                	addi	s0,sp,16
    3e46:	0001                	nop
    3e48:	0001                	nop
    3e4a:	0c00                	addi	s0,sp,528
    3e4c:	0ae5                	addi	s5,s5,25
    3e4e:	0000                	unimp
    3e50:	096c                	addi	a1,sp,156
    3e52:	0001                	nop
    3e54:	0000                	unimp
    3e56:	0000                	unimp
    3e58:	0008                	addi	a0,sp,0
    3e5a:	0000                	unimp
    3e5c:	0000                	unimp
    3e5e:	0000                	unimp
    3e60:	1d7c                	addi	a5,sp,700
    3e62:	0000                	unimp
    3e64:	0402                	slli	s0,s0,0x0
    3e66:	6905                	lui	s2,0x1
    3e68:	746e                	ld	s0,248(sp)
    3e6a:	0300                	addi	s0,sp,384
    3e6c:	0508                	addi	a0,sp,640
    3e6e:	0005                	0x5
    3e70:	0000                	unimp
    3e72:	95070803          	lb	a6,-1712(a4) # fffffffffffdf950 <_gp+0xfffffffffffcdc30>
    3e76:	0000                	unimp
    3e78:	0300                	addi	s0,sp,384
    3e7a:	0508                	addi	a0,sp,640
    3e7c:	0000                	unimp
    3e7e:	0000                	unimp
    3e80:	ea040803          	lb	a6,-352(s0) # fffffffffffe8ea0 <_gp+0xfffffffffffd7180>
    3e84:	0000                	unimp
    3e86:	0300                	addi	s0,sp,384
    3e88:	0601                	addi	a2,a2,0
    3e8a:	00b2                	slli	ra,ra,0xc
    3e8c:	0000                	unimp
    3e8e:	b0080103          	lb	sp,-1280(a6) # fffffffffffffb00 <_gp+0xfffffffffffedde0>
    3e92:	0000                	unimp
    3e94:	0300                	addi	s0,sp,384
    3e96:	0502                	slli	a0,a0,0x0
    3e98:	00f6                	slli	ra,ra,0x1d
    3e9a:	0000                	unimp
    3e9c:	0e070203          	lb	tp,224(a4)
    3ea0:	0000                	unimp
    3ea2:	0300                	addi	s0,sp,384
    3ea4:	0704                	addi	s1,sp,896
    3ea6:	009a                	slli	ra,ra,0x6
    3ea8:	0000                	unimp
    3eaa:	90070803          	lb	a6,-1792(a4)
    3eae:	0000                	unimp
    3eb0:	0400                	addi	s0,sp,512
    3eb2:	00000363          	beqz	zero,3eb8 <_ftext-0xc148>
    3eb6:	1002                	0x1002
    3eb8:	003e                	0x3e
    3eba:	0000                	unimp
    3ebc:	4604                	lw	s1,8(a2)
    3ebe:	0004                	addi	s1,sp,0
    3ec0:	0200                	addi	s0,sp,256
    3ec2:	00006f13          	ori	t5,zero,0
    3ec6:	0400                	addi	s0,sp,512
    3ec8:	04d9                	addi	s1,s1,22
    3eca:	0000                	unimp
    3ecc:	1f02                	slli	t5,t5,0x20
    3ece:	0030                	addi	a2,sp,8
    3ed0:	0000                	unimp
    3ed2:	8504                	0x8504
    3ed4:	03000003          	lb	zero,48(zero)
    3ed8:	00002907          	flw	fs2,0(zero)
    3edc:	0500                	addi	s0,sp,640
    3ede:	031f 0000 6504      	0x65040000031f
    3ee4:	6801                	lui	a6,0x0
    3ee6:	0000                	unimp
    3ee8:	0600                	addi	s0,sp,768
    3eea:	0504                	addi	s1,sp,640
    3eec:	cd4a                	sw	s2,152(sp)
    3eee:	0000                	unimp
    3ef0:	0700                	addi	s0,sp,896
    3ef2:	0319                	addi	t1,t1,6
    3ef4:	0000                	unimp
    3ef6:	4c05                	li	s8,1
    3ef8:	00a2                	slli	ra,ra,0x8
    3efa:	0000                	unimp
    3efc:	0002cb07          	0x2cb07
    3f00:	0500                	addi	s0,sp,640
    3f02:	cd4d                	beqz	a0,3fbc <_ftext-0xc044>
    3f04:	0000                	unimp
    3f06:	0000                	unimp
    3f08:	5308                	lw	a0,32(a4)
    3f0a:	0000                	unimp
    3f0c:	dd00                	sw	s0,56(a0)
    3f0e:	0000                	unimp
    3f10:	0900                	addi	s0,sp,144
    3f12:	00dd                	addi	ra,ra,23
    3f14:	0000                	unimp
    3f16:	08030003          	lb	zero,128(t1) # fffffffffffe9080 <_gp+0xfffffffffffd7360>
    3f1a:	00012207          	flw	ft4,0(sp) # a151c <_gp+0x8f7fc>
    3f1e:	0a00                	addi	s0,sp,272
    3f20:	0508                	addi	a0,sp,640
    3f22:	00010547          	fmsub.s	fa0,ft2,ft0,ft0,rne
    3f26:	0b00                	addi	s0,sp,400
    3f28:	0430                	addi	a2,sp,520
    3f2a:	0000                	unimp
    3f2c:	4905                	li	s2,1
    3f2e:	0029                	0x29
    3f30:	0000                	unimp
    3f32:	0b00                	addi	s0,sp,400
    3f34:	0438                	addi	a4,sp,520
    3f36:	0000                	unimp
    3f38:	4e05                	li	t3,1
    3f3a:	00ae                	slli	ra,ra,0xb
    3f3c:	0000                	unimp
    3f3e:	0004                	addi	s1,sp,0
    3f40:	c304                	sw	s1,0(a4)
    3f42:	05000003          	lb	zero,80(zero)
    3f46:	0000e44f          	fnmadd.s	fs0,ft1,ft0,ft0,unknown
    3f4a:	0400                	addi	s0,sp,512
    3f4c:	028e                	slli	t0,t0,0x3
    3f4e:	0000                	unimp
    3f50:	5305                	li	t1,-31
    3f52:	00000097          	auipc	ra,0x0
    3f56:	080c                	addi	a1,sp,16
    3f58:	7804                	ld	s1,48(s0)
    3f5a:	0004                	addi	s1,sp,0
    3f5c:	0600                	addi	s0,sp,768
    3f5e:	6819                	lui	a6,0x6
    3f60:	0000                	unimp
    3f62:	0d00                	addi	s0,sp,656
    3f64:	029f 0000 0620      	0x6200000029f
    3f6a:	7b2d                	lui	s6,0xfffeb
    3f6c:	0001                	nop
    3f6e:	0b00                	addi	s0,sp,400
    3f70:	03e4                	addi	s1,sp,460
    3f72:	0000                	unimp
    3f74:	2f06                	fld	ft10,64(sp)
    3f76:	0000017b          	custom3	2,0,0,0
    3f7a:	0e00                	addi	s0,sp,784
    3f7c:	6b5f 0600 2930      	0x293006006b5f
    3f82:	0000                	unimp
    3f84:	0800                	addi	s0,sp,16
    3f86:	00041b0b          	0x41b0b
    3f8a:	0600                	addi	s0,sp,768
    3f8c:	2930                	fld	fa2,80(a0)
    3f8e:	0000                	unimp
    3f90:	0c00                	addi	s0,sp,528
    3f92:	0002880b          	custom0	16,5,0,0
    3f96:	0600                	addi	s0,sp,768
    3f98:	2930                	fld	fa2,80(a0)
    3f9a:	0000                	unimp
    3f9c:	1000                	addi	s0,sp,32
    3f9e:	0004c40b          	custom0	s0,9,0,0
    3fa2:	0600                	addi	s0,sp,768
    3fa4:	2930                	fld	fa2,80(a0)
    3fa6:	0000                	unimp
    3fa8:	1400                	addi	s0,sp,544
    3faa:	5f0e                	lw	t5,224(sp)
    3fac:	0078                	addi	a4,sp,12
    3fae:	3106                	fld	ft2,96(sp)
    3fb0:	0181                	addi	gp,gp,0
    3fb2:	0000                	unimp
    3fb4:	0018                	addi	a4,sp,0
    3fb6:	0128080f          	0x128080f
    3fba:	0000                	unimp
    3fbc:	1d08                	addi	a0,sp,688
    3fbe:	0001                	nop
    3fc0:	9100                	0x9100
    3fc2:	0001                	nop
    3fc4:	0900                	addi	s0,sp,144
    3fc6:	00dd                	addi	ra,ra,23
    3fc8:	0000                	unimp
    3fca:	0000                	unimp
    3fcc:	c60d                	beqz	a2,3ff6 <_ftext-0xc00a>
    3fce:	0002                	0x2
    3fd0:	2400                	fld	fs0,8(s0)
    3fd2:	3506                	fld	fa0,96(sp)
    3fd4:	020a                	slli	tp,tp,0x2
    3fd6:	0000                	unimp
    3fd8:	0001ee0b          	custom0	t3,gp,0,0
    3fdc:	0600                	addi	s0,sp,768
    3fde:	00002937          	lui	s2,0x2
    3fe2:	0000                	unimp
    3fe4:	00044e0b          	custom0	t3,8,0,0
    3fe8:	0600                	addi	s0,sp,768
    3fea:	2938                	fld	fa4,80(a0)
    3fec:	0000                	unimp
    3fee:	0400                	addi	s0,sp,512
    3ff0:	0002090b          	custom0	18,4,0,0
    3ff4:	0600                	addi	s0,sp,768
    3ff6:	2939                	addiw	s2,s2,14
    3ff8:	0000                	unimp
    3ffa:	0800                	addi	s0,sp,16
    3ffc:	00053d0b          	custom0	26,a0,zero,0
    4000:	0600                	addi	s0,sp,768
    4002:	293a                	fld	fs2,392(sp)
    4004:	0000                	unimp
    4006:	0c00                	addi	s0,sp,528
    4008:	00034f0b          	custom0	t5,6,0,0
    400c:	0600                	addi	s0,sp,768
    400e:	0000293b          	0x293b
    4012:	1000                	addi	s0,sp,32
    4014:	0003350b          	custom0	10,t1,zero,0
    4018:	0600                	addi	s0,sp,768
    401a:	293c                	fld	fa5,80(a0)
    401c:	0000                	unimp
    401e:	1400                	addi	s0,sp,544
    4020:	0004c90b          	custom0	s2,9,0,0
    4024:	0600                	addi	s0,sp,768
    4026:	293d                	addiw	s2,s2,15
    4028:	0000                	unimp
    402a:	1800                	addi	s0,sp,48
    402c:	0003a50b          	custom0	10,t2,0,0
    4030:	0600                	addi	s0,sp,768
    4032:	293e                	fld	fs2,456(sp)
    4034:	0000                	unimp
    4036:	1c00                	addi	s0,sp,560
    4038:	0005040b          	custom0	8,10,0,0
    403c:	0600                	addi	s0,sp,768
    403e:	0000293f 10002000 	0x100020000000293f
    4046:	0218                	addi	a4,sp,256
    4048:	0000                	unimp
    404a:	0208                	addi	a0,sp,256
    404c:	4806                	lw	a6,64(sp)
    404e:	0000024b          	fnmsub.s	ft4,ft0,ft0,ft0,rne
    4052:	00027b0b          	custom0	s6,tp,zero,0
    4056:	0600                	addi	s0,sp,768
    4058:	4b49                	li	s6,18
    405a:	0002                	0x2
    405c:	0000                	unimp
    405e:	2b11                	addiw	s6,s6,4
    4060:	0001                	nop
    4062:	0600                	addi	s0,sp,768
    4064:	4b4a                	lw	s6,144(sp)
    4066:	0002                	0x2
    4068:	0000                	unimp
    406a:	1101                	addi	sp,sp,-32
    406c:	046a                	slli	s0,s0,0x1a
    406e:	0000                	unimp
    4070:	4c06                	lw	s8,64(sp)
    4072:	011d                	addi	sp,sp,7
    4074:	0000                	unimp
    4076:	0200                	addi	s0,sp,256
    4078:	3d11                	addiw	s10,s10,-28
    407a:	0002                	0x2
    407c:	0600                	addi	s0,sp,768
    407e:	00011d4f          	fnmadd.s	fs10,ft2,ft0,ft0,rtz
    4082:	0400                	addi	s0,sp,512
    4084:	0002                	0x2
    4086:	1b08                	addi	a0,sp,432
    4088:	0001                	nop
    408a:	5b00                	lw	s0,48(a4)
    408c:	0002                	0x2
    408e:	0900                	addi	s0,sp,144
    4090:	00dd                	addi	ra,ra,23
    4092:	0000                	unimp
    4094:	001f c210 0000      	0xc210001f
    409a:	1800                	addi	s0,sp,48
    409c:	9a5b0603          	lb	a2,-1627(s6) # fffffffffffea9a5 <_gp+0xfffffffffffd8c85>
    40a0:	0002                	0x2
    40a2:	0b00                	addi	s0,sp,400
    40a4:	03e4                	addi	s1,sp,460
    40a6:	0000                	unimp
    40a8:	5c06                	lw	s8,96(sp)
    40aa:	029a                	slli	t0,t0,0x6
    40ac:	0000                	unimp
    40ae:	0b00                	addi	s0,sp,400
    40b0:	03fc                	addi	a5,sp,460
    40b2:	0000                	unimp
    40b4:	5d06                	lw	s10,96(sp)
    40b6:	0029                	0x29
    40b8:	0000                	unimp
    40ba:	0b08                	addi	a0,sp,400
    40bc:	00000283          	lb	t0,0(zero)
    40c0:	5f06                	lw	t5,96(sp)
    40c2:	02a0                	addi	s0,sp,328
    40c4:	0000                	unimp
    40c6:	1110                	addi	a2,sp,160
    40c8:	0218                	addi	a4,sp,256
    40ca:	0000                	unimp
    40cc:	6006                	0x6006
    40ce:	020a                	slli	tp,tp,0x2
    40d0:	0000                	unimp
    40d2:	0110                	addi	a2,sp,128
    40d4:	0f00                	addi	s0,sp,912
    40d6:	5b08                	lw	a0,48(a4)
    40d8:	0002                	0x2
    40da:	0800                	addi	s0,sp,16
    40dc:	02b0                	addi	a2,sp,328
    40de:	0000                	unimp
    40e0:	02b0                	addi	a2,sp,328
    40e2:	0000                	unimp
    40e4:	dd09                	beqz	a0,3ffe <_ftext-0xc002>
    40e6:	0000                	unimp
    40e8:	1f00                	addi	s0,sp,944
    40ea:	0f00                	addi	s0,sp,912
    40ec:	b608                	fsd	fa0,40(a2)
    40ee:	0002                	0x2
    40f0:	1200                	addi	s0,sp,288
    40f2:	af0d                	j	4824 <_ftext-0xb7dc>
    40f4:	10000003          	lb	zero,256(zero)
    40f8:	7306                	ld	t1,96(sp)
    40fa:	02dc                	addi	a5,sp,324
    40fc:	0000                	unimp
    40fe:	0002030b          	custom0	6,4,0,0
    4102:	0600                	addi	s0,sp,768
    4104:	dc74                	sw	a3,124(s0)
    4106:	0002                	0x2
    4108:	0000                	unimp
    410a:	0009a90b          	custom0	18,s3,0,0
    410e:	0600                	addi	s0,sp,768
    4110:	2975                	addiw	s2,s2,29
    4112:	0000                	unimp
    4114:	0800                	addi	s0,sp,16
    4116:	0f00                	addi	s0,sp,912
    4118:	5308                	lw	a0,32(a4)
    411a:	0000                	unimp
    411c:	0d00                	addi	s0,sp,656
    411e:	03ce                	slli	t2,t2,0x13
    4120:	0000                	unimp
    4122:	06b0                	addi	a2,sp,840
    4124:	00040cb3          	add	s9,s0,zero
    4128:	0e00                	addi	s0,sp,784
    412a:	705f 0600 dcb4      	0xdcb40600705f
    4130:	0002                	0x2
    4132:	0000                	unimp
    4134:	5f0e                	lw	t5,224(sp)
    4136:	0072                	0x72
    4138:	b506                	fsd	ft1,168(sp)
    413a:	0029                	0x29
    413c:	0000                	unimp
    413e:	0e08                	addi	a0,sp,784
    4140:	775f 0600 29b6      	0x29b60600775f
    4146:	0000                	unimp
    4148:	0c00                	addi	s0,sp,528
    414a:	0002360b          	custom0	12,tp,zero,0
    414e:	0600                	addi	s0,sp,768
    4150:	00005ab7          	lui	s5,0x5
    4154:	1000                	addi	s0,sp,32
    4156:	0002e20b          	custom0	tp,t0,0,0
    415a:	0600                	addi	s0,sp,768
    415c:	5ab8                	lw	a4,112(a3)
    415e:	0000                	unimp
    4160:	1200                	addi	s0,sp,288
    4162:	5f0e                	lw	t5,224(sp)
    4164:	6662                	ld	a2,24(sp)
    4166:	0600                	addi	s0,sp,768
    4168:	b7b9                	j	40b6 <_ftext-0xbf4a>
    416a:	0002                	0x2
    416c:	1800                	addi	s0,sp,48
    416e:	0001c80b          	custom0	a6,3,0,0
    4172:	0600                	addi	s0,sp,768
    4174:	29ba                	fld	fs3,392(sp)
    4176:	0000                	unimp
    4178:	2800                	fld	fs0,16(s0)
    417a:	0002260b          	custom0	12,tp,0,0
    417e:	0600                	addi	s0,sp,768
    4180:	1bc1                	addi	s7,s7,-16
    4182:	0001                	nop
    4184:	3000                	fld	fs0,32(s0)
    4186:	0002b60b          	custom0	12,t0,zero,0
    418a:	0600                	addi	s0,sp,768
    418c:	00056fc3          	fmadd.s	ft11,fa0,ft0,ft0,unknown
    4190:	3800                	fld	fs0,48(s0)
    4192:	00032e0b          	custom0	28,t1,0,0
    4196:	0600                	addi	s0,sp,768
    4198:	9ec5                	0x9ec5
    419a:	0005                	0x5
    419c:	4000                	lw	s0,0(s0)
    419e:	0004400b          	custom0	zero,8,0,0
    41a2:	0600                	addi	s0,sp,768
    41a4:	c2c8                	sw	a0,4(a3)
    41a6:	0005                	0x5
    41a8:	4800                	lw	s0,16(s0)
    41aa:	00051e0b          	0x51e0b
    41ae:	0600                	addi	s0,sp,768
    41b0:	dcc9                	beqz	s1,414a <_ftext-0xbeb6>
    41b2:	0005                	0x5
    41b4:	5000                	lw	s0,32(s0)
    41b6:	5f0e                	lw	t5,224(sp)
    41b8:	6275                	lui	tp,0x1d
    41ba:	0600                	addi	s0,sp,768
    41bc:	b7cc                	fsd	fa1,168(a5)
    41be:	0002                	0x2
    41c0:	5800                	lw	s0,48(s0)
    41c2:	5f0e                	lw	t5,224(sp)
    41c4:	7075                	0x7075
    41c6:	0600                	addi	s0,sp,768
    41c8:	dccd                	beqz	s1,4182 <_ftext-0xbe7e>
    41ca:	0002                	0x2
    41cc:	6800                	ld	s0,16(s0)
    41ce:	5f0e                	lw	t5,224(sp)
    41d0:	7275                	lui	tp,0xffffd
    41d2:	0600                	addi	s0,sp,768
    41d4:	29ce                	fld	fs3,208(sp)
    41d6:	0000                	unimp
    41d8:	7000                	ld	s0,32(s0)
    41da:	0001fd0b          	custom0	s10,gp,zero,0
    41de:	0600                	addi	s0,sp,768
    41e0:	e2d1                	bnez	a3,4264 <_ftext-0xbd9c>
    41e2:	0005                	0x5
    41e4:	7400                	ld	s0,40(s0)
    41e6:	0004f60b          	custom0	a2,s1,zero,0
    41ea:	0600                	addi	s0,sp,768
    41ec:	f2d2                	sd	s4,352(sp)
    41ee:	0005                	0x5
    41f0:	7700                	ld	s0,40(a4)
    41f2:	5f0e                	lw	t5,224(sp)
    41f4:	626c                	ld	a1,192(a2)
    41f6:	0600                	addi	s0,sp,768
    41f8:	b7d5                	j	41dc <_ftext-0xbe24>
    41fa:	0002                	0x2
    41fc:	7800                	ld	s0,48(s0)
    41fe:	000a1d0b          	0xa1d0b
    4202:	0600                	addi	s0,sp,768
    4204:	29d8                	fld	fa4,144(a1)
    4206:	0000                	unimp
    4208:	8800                	0x8800
    420a:	0002540b          	0x2540b
    420e:	0600                	addi	s0,sp,768
    4210:	76d9                	lui	a3,0xffff6
    4212:	0000                	unimp
    4214:	9000                	0x9000
    4216:	0005e50b          	custom0	a0,a1,0,0
    421a:	0600                	addi	s0,sp,768
    421c:	2adc                	fld	fa5,144(a3)
    421e:	0004                	addi	s1,sp,0
    4220:	9800                	0x9800
    4222:	0007f00b          	custom0	zero,a5,zero,0
    4226:	0600                	addi	s0,sp,768
    4228:	10e0                	addi	s0,sp,108
    422a:	0001                	nop
    422c:	a000                	fsd	fs0,0(s0)
    422e:	0003d60b          	0x3d60b
    4232:	0600                	addi	s0,sp,768
    4234:	05e2                	slli	a1,a1,0x18
    4236:	0001                	nop
    4238:	a400                	fsd	fs0,8(s0)
    423a:	0003260b          	custom0	12,t1,0,0
    423e:	0600                	addi	s0,sp,768
    4240:	000029e3          	0x29e3
    4244:	ac00                	fsd	fs0,24(s0)
    4246:	1300                	addi	s0,sp,416
    4248:	008c                	addi	a1,sp,64
    424a:	0000                	unimp
    424c:	042a                	slli	s0,s0,0xa
    424e:	0000                	unimp
    4250:	2a14                	fld	fa3,16(a2)
    4252:	0004                	addi	s1,sp,0
    4254:	1400                	addi	s0,sp,544
    4256:	0000011b          	sext.w	sp,zero
    425a:	6214                	ld	a3,0(a2)
    425c:	0005                	0x5
    425e:	1400                	addi	s0,sp,544
    4260:	0029                	0x29
    4262:	0000                	unimp
    4264:	0f00                	addi	s0,sp,912
    4266:	3008                	fld	fa0,32(s0)
    4268:	0004                	addi	s1,sp,0
    426a:	1500                	addi	s0,sp,672
    426c:	00000423          	sb	zero,8(zero)
    4270:	0748                	addi	a0,sp,900
    4272:	3906                	fld	fs2,96(sp)
    4274:	6202                	ld	tp,0(sp)
    4276:	0005                	0x5
    4278:	1600                	addi	s0,sp,800
    427a:	0862                	slli	a6,a6,0x18
    427c:	0000                	unimp
    427e:	3b06                	fld	fs6,96(sp)
    4280:	2902                	fld	fs2,0(sp)
    4282:	0000                	unimp
    4284:	0000                	unimp
    4286:	4516                	lw	a0,68(sp)
    4288:	0002                	0x2
    428a:	0600                	addi	s0,sp,768
    428c:	0240                	addi	s0,sp,260
    428e:	0649                	addi	a2,a2,18
    4290:	0000                	unimp
    4292:	1608                	addi	a0,sp,800
    4294:	02d2                	slli	t0,t0,0x14
    4296:	0000                	unimp
    4298:	4006                	0x4006
    429a:	4902                	lw	s2,0(sp)
    429c:	0006                	0x6
    429e:	1000                	addi	s0,sp,32
    42a0:	9716                	add	a4,a4,t0
    42a2:	0002                	0x2
    42a4:	0600                	addi	s0,sp,768
    42a6:	0240                	addi	s0,sp,260
    42a8:	0649                	addi	a2,a2,18
    42aa:	0000                	unimp
    42ac:	1618                	addi	a4,sp,800
    42ae:	000003f7          	0x3f7
    42b2:	4206                	lw	tp,64(sp)
    42b4:	2902                	fld	fs2,0(sp)
    42b6:	0000                	unimp
    42b8:	2000                	fld	fs0,0(s0)
    42ba:	3f16                	fld	ft10,352(sp)
    42bc:	0001                	nop
    42be:	0600                	addi	s0,sp,768
    42c0:	082d0243          	fmadd.s	ft4,fs10,ft2,ft1,rne
    42c4:	0000                	unimp
    42c6:	1624                	addi	s1,sp,808
    42c8:	04a0                	addi	s0,sp,584
    42ca:	0000                	unimp
    42cc:	4506                	lw	a0,64(sp)
    42ce:	2902                	fld	fs2,0(sp)
    42d0:	0000                	unimp
    42d2:	4000                	lw	s0,0(s0)
    42d4:	0116                	slli	sp,sp,0x5
    42d6:	0004                	addi	s1,sp,0
    42d8:	0600                	addi	s0,sp,768
    42da:	0246                	slli	tp,tp,0x11
    42dc:	00000593          	li	a1,0
    42e0:	1648                	addi	a0,sp,804
    42e2:	0358                	addi	a4,sp,388
    42e4:	0000                	unimp
    42e6:	4806                	lw	a6,64(sp)
    42e8:	2902                	fld	fs2,0(sp)
    42ea:	0000                	unimp
    42ec:	5000                	lw	s0,32(s0)
    42ee:	1116                	slli	sp,sp,0x25
    42f0:	0004                	addi	s1,sp,0
    42f2:	0600                	addi	s0,sp,768
    42f4:	024a                	slli	tp,tp,0x12
    42f6:	0848                	addi	a0,sp,20
    42f8:	0000                	unimp
    42fa:	1658                	addi	a4,sp,804
    42fc:	0311                	addi	t1,t1,4
    42fe:	0000                	unimp
    4300:	4d06                	lw	s10,64(sp)
    4302:	7b02                	ld	s6,32(sp)
    4304:	0001                	nop
    4306:	6000                	ld	s0,0(s0)
    4308:	bc16                	fsd	ft5,56(sp)
    430a:	0002                	0x2
    430c:	0600                	addi	s0,sp,768
    430e:	024e                	slli	tp,tp,0x13
    4310:	0029                	0x29
    4312:	0000                	unimp
    4314:	1668                	addi	a0,sp,812
    4316:	0538                	addi	a4,sp,648
    4318:	0000                	unimp
    431a:	4f06                	lw	t5,64(sp)
    431c:	7b02                	ld	s6,32(sp)
    431e:	0001                	nop
    4320:	7000                	ld	s0,32(s0)
    4322:	7b16                	ld	s6,352(sp)
    4324:	06000003          	lb	zero,96(zero)
    4328:	0250                	addi	a2,sp,260
    432a:	084e                	slli	a6,a6,0x13
    432c:	0000                	unimp
    432e:	1678                	addi	a4,sp,812
    4330:	02da                	slli	t0,t0,0x16
    4332:	0000                	unimp
    4334:	5306                	lw	t1,96(sp)
    4336:	2902                	fld	fs2,0(sp)
    4338:	0000                	unimp
    433a:	8000                	0x8000
    433c:	4c16                	lw	s8,68(sp)
    433e:	0002                	0x2
    4340:	0600                	addi	s0,sp,768
    4342:	0254                	addi	a3,sp,260
    4344:	0562                	slli	a0,a0,0x18
    4346:	0000                	unimp
    4348:	1688                	addi	a0,sp,864
    434a:	00000397          	auipc	t2,0x0
    434e:	7706                	ld	a4,96(sp)
    4350:	0a02                	slli	s4,s4,0x0
    4352:	0008                	addi	a0,sp,0
    4354:	9000                	0x9000
    4356:	0000c217          	auipc	tp,0xc
    435a:	0600                	addi	s0,sp,768
    435c:	029a027b          	custom3	4,20,9,1
    4360:	0000                	unimp
    4362:	01f8                	addi	a4,sp,204
    4364:	0002ef17          	auipc	t5,0x2e
    4368:	0600                	addi	s0,sp,768
    436a:	027c                	addi	a5,sp,268
    436c:	0000025b          	custom2	4,0,0,0
    4370:	0200                	addi	s0,sp,256
    4372:	0004ec17          	auipc	s8,0x4e
    4376:	0600                	addi	s0,sp,768
    4378:	0280                	addi	s0,sp,320
    437a:	085f 0000 0518      	0x5180000085f
    4380:	00022e17          	auipc	t3,0x22
    4384:	0600                	addi	s0,sp,768
    4386:	0285                	addi	t0,t0,1
    4388:	060e                	slli	a2,a2,0x3
    438a:	0000                	unimp
    438c:	0520                	addi	s0,sp,648
    438e:	00021317          	auipc	t1,0x21
    4392:	0600                	addi	s0,sp,768
    4394:	0286                	slli	t0,t0,0x1
    4396:	0000086b          	0x86b
    439a:	0538                	addi	a4,sp,648
    439c:	0f00                	addi	s0,sp,912
    439e:	6808                	ld	a0,16(s0)
    43a0:	0005                	0x5
    43a2:	0300                	addi	s0,sp,384
    43a4:	0801                	addi	a6,a6,0
    43a6:	00b9                	addi	ra,ra,14
    43a8:	0000                	unimp
    43aa:	040c080f          	0x40c080f
    43ae:	0000                	unimp
    43b0:	00008c13          	mv	s8,ra
    43b4:	9300                	0x9300
    43b6:	0005                	0x5
    43b8:	1400                	addi	s0,sp,544
    43ba:	042a                	slli	s0,s0,0xa
    43bc:	0000                	unimp
    43be:	1b14                	addi	a3,sp,432
    43c0:	0001                	nop
    43c2:	1400                	addi	s0,sp,544
    43c4:	00000593          	li	a1,0
    43c8:	2914                	fld	fa3,16(a0)
    43ca:	0000                	unimp
    43cc:	0000                	unimp
    43ce:	0599080f          	0x599080f
    43d2:	0000                	unimp
    43d4:	6818                	ld	a4,16(s0)
    43d6:	0005                	0x5
    43d8:	0f00                	addi	s0,sp,912
    43da:	7508                	ld	a0,40(a0)
    43dc:	0005                	0x5
    43de:	1300                	addi	s0,sp,416
    43e0:	0081                	addi	ra,ra,0
    43e2:	0000                	unimp
    43e4:	05c2                	slli	a1,a1,0x10
    43e6:	0000                	unimp
    43e8:	2a14                	fld	fa3,16(a2)
    43ea:	0004                	addi	s1,sp,0
    43ec:	1400                	addi	s0,sp,544
    43ee:	0000011b          	sext.w	sp,zero
    43f2:	8114                	0x8114
    43f4:	0000                	unimp
    43f6:	1400                	addi	s0,sp,544
    43f8:	0029                	0x29
    43fa:	0000                	unimp
    43fc:	0f00                	addi	s0,sp,912
    43fe:	a408                	fsd	fa0,8(s0)
    4400:	0005                	0x5
    4402:	1300                	addi	s0,sp,416
    4404:	0029                	0x29
    4406:	0000                	unimp
    4408:	05dc                	addi	a5,sp,708
    440a:	0000                	unimp
    440c:	2a14                	fld	fa3,16(a2)
    440e:	0004                	addi	s1,sp,0
    4410:	1400                	addi	s0,sp,544
    4412:	0000011b          	sext.w	sp,zero
    4416:	0f00                	addi	s0,sp,912
    4418:	c808                	sw	a0,16(s0)
    441a:	0005                	0x5
    441c:	0800                	addi	s0,sp,16
    441e:	00000053          	fadd.s	ft0,ft0,ft0,rne
    4422:	05f2                	slli	a1,a1,0x1c
    4424:	0000                	unimp
    4426:	dd09                	beqz	a0,4340 <_ftext-0xbcc0>
    4428:	0000                	unimp
    442a:	0200                	addi	s0,sp,256
    442c:	0800                	addi	s0,sp,16
    442e:	00000053          	fadd.s	ft0,ft0,ft0,rne
    4432:	0602                	slli	a2,a2,0x0
    4434:	0000                	unimp
    4436:	dd09                	beqz	a0,4350 <_ftext-0xbcb0>
    4438:	0000                	unimp
    443a:	0000                	unimp
    443c:	0500                	addi	s0,sp,640
    443e:	03bc                	addi	a5,sp,456
    4440:	0000                	unimp
    4442:	1d06                	slli	s10,s10,0x21
    4444:	e201                	bnez	a2,4444 <_ftext-0xbbbc>
    4446:	0002                	0x2
    4448:	1900                	addi	s0,sp,176
    444a:	000004d3          	fadd.s	fs1,ft0,ft0,rne
    444e:	0618                	addi	a4,sp,768
    4450:	0121                	addi	sp,sp,8
    4452:	00000643          	fmadd.s	fa2,ft0,ft0,ft0,rne
    4456:	e416                	sd	t0,8(sp)
    4458:	06000003          	lb	zero,96(zero)
    445c:	06430123          	sb	tp,98(t1) # 253f0 <_gp+0x136d0>
    4460:	0000                	unimp
    4462:	1600                	addi	s0,sp,800
    4464:	02e8                	addi	a0,sp,332
    4466:	0000                	unimp
    4468:	2406                	fld	fs0,64(sp)
    446a:	2901                	sext.w	s2,s2
    446c:	0000                	unimp
    446e:	0800                	addi	s0,sp,16
    4470:	b616                	fsd	ft5,296(sp)
    4472:	06000003          	lb	zero,96(zero)
    4476:	0125                	addi	sp,sp,9
    4478:	0649                	addi	a2,a2,18
    447a:	0000                	unimp
    447c:	0010                	addi	a2,sp,0
    447e:	060e080f          	0x60e080f
    4482:	0000                	unimp
    4484:	0602080f          	0x602080f
    4488:	0000                	unimp
    448a:	3719                	addiw	a4,a4,-26
    448c:	0001                	nop
    448e:	0e00                	addi	s0,sp,784
    4490:	3d06                	fld	fs10,96(sp)
    4492:	8401                	srai	s0,s0,0x0
    4494:	0006                	0x6
    4496:	1600                	addi	s0,sp,800
    4498:	042a                	slli	s0,s0,0xa
    449a:	0000                	unimp
    449c:	3e06                	fld	ft8,96(sp)
    449e:	8401                	srai	s0,s0,0x0
    44a0:	0006                	0x6
    44a2:	0000                	unimp
    44a4:	5716                	lw	a4,100(sp)
    44a6:	0004                	addi	s1,sp,0
    44a8:	0600                	addi	s0,sp,768
    44aa:	0684013f 16060000 	0x160600000684013f
    44b2:	00000473          	0x473
    44b6:	4006                	0x4006
    44b8:	6101                	addi	sp,sp,0
    44ba:	0000                	unimp
    44bc:	0c00                	addi	s0,sp,528
    44be:	0800                	addi	s0,sp,16
    44c0:	0061                	0x61
    44c2:	0000                	unimp
    44c4:	0694                	addi	a3,sp,832
    44c6:	0000                	unimp
    44c8:	dd09                	beqz	a0,43e2 <_ftext-0xbc1e>
    44ca:	0000                	unimp
    44cc:	0200                	addi	s0,sp,256
    44ce:	1a00                	addi	s0,sp,304
    44d0:	06d8                	addi	a4,sp,836
    44d2:	0258                	addi	a4,sp,260
    44d4:	0795                	addi	a5,a5,5
    44d6:	0000                	unimp
    44d8:	b716                	fsd	ft5,424(sp)
    44da:	0004                	addi	s1,sp,0
    44dc:	0600                	addi	s0,sp,768
    44de:	025a                	slli	tp,tp,0x16
    44e0:	0068                	addi	a0,sp,12
    44e2:	0000                	unimp
    44e4:	1600                	addi	s0,sp,800
    44e6:	045d                	addi	s0,s0,23
    44e8:	0000                	unimp
    44ea:	5b06                	lw	s6,96(sp)
    44ec:	6202                	ld	tp,0(sp)
    44ee:	0005                	0x5
    44f0:	0800                	addi	s0,sp,16
    44f2:	0416                	slli	s0,s0,0x5
    44f4:	06000003          	lb	zero,96(zero)
    44f8:	025c                	addi	a5,sp,260
    44fa:	0795                	addi	a5,a5,5
    44fc:	0000                	unimp
    44fe:	1610                	addi	a2,sp,800
    4500:	0000050f          	0x50f
    4504:	5d06                	lw	s10,96(sp)
    4506:	9102                	jalr	sp
    4508:	0001                	nop
    450a:	2c00                	fld	fs0,24(s0)
    450c:	a716                	fsd	ft5,392(sp)
    450e:	0002                	0x2
    4510:	0600                	addi	s0,sp,768
    4512:	025e                	slli	tp,tp,0x17
    4514:	0029                	0x29
    4516:	0000                	unimp
    4518:	1650                	addi	a2,sp,804
    451a:	03df 0000 5f06      	0x5f06000003df
    4520:	6f02                	ld	t5,0(sp)
    4522:	0000                	unimp
    4524:	5800                	lw	s0,48(s0)
    4526:	2516                	fld	fa0,320(sp)
    4528:	0005                	0x5
    452a:	0600                	addi	s0,sp,768
    452c:	0260                	addi	s0,sp,268
    452e:	0000064f          	fnmadd.s	fa2,ft0,ft0,ft0,rne
    4532:	1660                	addi	s0,sp,812
    4534:	03ea                	slli	t2,t2,0x1a
    4536:	0000                	unimp
    4538:	6106                	ld	sp,64(sp)
    453a:	0502                	slli	a0,a0,0x0
    453c:	0001                	nop
    453e:	7000                	ld	s0,32(s0)
    4540:	2a16                	fld	fs4,320(sp)
    4542:	0005                	0x5
    4544:	0600                	addi	s0,sp,768
    4546:	0262                	slli	tp,tp,0x18
    4548:	0105                	addi	sp,sp,1
    454a:	0000                	unimp
    454c:	1678                	addi	a4,sp,812
    454e:	01e0                	addi	s0,sp,204
    4550:	0000                	unimp
    4552:	6306                	ld	t1,64(sp)
    4554:	0502                	slli	a0,a0,0x0
    4556:	0001                	nop
    4558:	8000                	0x8000
    455a:	e216                	sd	t0,256(sp)
    455c:	0004                	addi	s1,sp,0
    455e:	0600                	addi	s0,sp,768
    4560:	0264                	addi	s1,sp,268
    4562:	07a5                	addi	a5,a5,9
    4564:	0000                	unimp
    4566:	1688                	addi	a0,sp,864
    4568:	02f8                	addi	a4,sp,332
    456a:	0000                	unimp
    456c:	6506                	ld	a0,64(sp)
    456e:	b502                	fsd	ft0,168(sp)
    4570:	90000007          	0x90000007
    4574:	8016                	0x8016
    4576:	0004                	addi	s1,sp,0
    4578:	0600                	addi	s0,sp,768
    457a:	0266                	slli	tp,tp,0x19
    457c:	0029                	0x29
    457e:	0000                	unimp
    4580:	16a8                	addi	a0,sp,872
    4582:	026d                	addi	tp,tp,27
    4584:	0000                	unimp
    4586:	6706                	ld	a4,64(sp)
    4588:	0502                	slli	a0,a0,0x0
    458a:	0001                	nop
    458c:	ac00                	fsd	fs0,24(s0)
    458e:	d116                	sw	t0,160(sp)
    4590:	0001                	nop
    4592:	0600                	addi	s0,sp,768
    4594:	0268                	addi	a0,sp,268
    4596:	0105                	addi	sp,sp,1
    4598:	0000                	unimp
    459a:	16b4                	addi	a3,sp,872
    459c:	025c                	addi	a5,sp,260
    459e:	0000                	unimp
    45a0:	6906                	ld	s2,64(sp)
    45a2:	0502                	slli	a0,a0,0x0
    45a4:	0001                	nop
    45a6:	bc00                	fsd	fs0,56(s0)
    45a8:	4a16                	lw	s4,68(sp)
    45aa:	0001                	nop
    45ac:	0600                	addi	s0,sp,768
    45ae:	026a                	slli	tp,tp,0x1a
    45b0:	0105                	addi	sp,sp,1
    45b2:	0000                	unimp
    45b4:	16c4                	addi	s1,sp,868
    45b6:	0159                	addi	sp,sp,22
    45b8:	0000                	unimp
    45ba:	6b06                	ld	s6,64(sp)
    45bc:	0502                	slli	a0,a0,0x0
    45be:	0001                	nop
    45c0:	cc00                	sw	s0,24(s0)
    45c2:	9c16                	add	s8,s8,t0
    45c4:	06000003          	lb	zero,96(zero)
    45c8:	026c                	addi	a1,sp,268
    45ca:	0029                	0x29
    45cc:	0000                	unimp
    45ce:	00d4                	addi	a3,sp,68
    45d0:	6808                	ld	a0,16(s0)
    45d2:	0005                	0x5
    45d4:	a500                	fsd	fs0,8(a0)
    45d6:	09000007          	0x9000007
    45da:	00dd                	addi	ra,ra,23
    45dc:	0000                	unimp
    45de:	0019                	0x19
    45e0:	6808                	ld	a0,16(s0)
    45e2:	0005                	0x5
    45e4:	b500                	fsd	fs0,40(a0)
    45e6:	09000007          	0x9000007
    45ea:	00dd                	addi	ra,ra,23
    45ec:	0000                	unimp
    45ee:	68080007          	0x68080007
    45f2:	0005                	0x5
    45f4:	c500                	sw	s0,8(a0)
    45f6:	09000007          	0x9000007
    45fa:	00dd                	addi	ra,ra,23
    45fc:	0000                	unimp
    45fe:	681b0017          	auipc	zero,0x681b0
    4602:	0601                	addi	a2,a2,0
    4604:	0271                	addi	tp,tp,28
    4606:	07ea                	slli	a5,a5,0x1a
    4608:	0000                	unimp
    460a:	4816                	lw	a6,68(sp)
    460c:	06000003          	lb	zero,96(zero) # 681b465e <_gp+0x681a293e>
    4610:	0274                	addi	a3,sp,268
    4612:	07ea                	slli	a5,a5,0x1a
    4614:	0000                	unimp
    4616:	1600                	addi	s0,sp,800
    4618:	0000033f fa027506 	0xfa0275060000033f
    4620:	f0000007          	0xf0000007
    4624:	0800                	addi	s0,sp,16
    4626:	02dc                	addi	a5,sp,324
    4628:	0000                	unimp
    462a:	07fa                	slli	a5,a5,0x1e
    462c:	0000                	unimp
    462e:	dd09                	beqz	a0,4548 <_ftext-0xbab8>
    4630:	0000                	unimp
    4632:	1d00                	addi	s0,sp,688
    4634:	0800                	addi	s0,sp,16
    4636:	0068                	addi	a0,sp,12
    4638:	0000                	unimp
    463a:	080a                	slli	a6,a6,0x2
    463c:	0000                	unimp
    463e:	dd09                	beqz	a0,4558 <_ftext-0xbaa8>
    4640:	0000                	unimp
    4642:	1d00                	addi	s0,sp,688
    4644:	1c00                	addi	s0,sp,560
    4646:	0168                	addi	a0,sp,140
    4648:	5606                	lw	a2,96(sp)
    464a:	2d02                	fld	fs10,0(sp)
    464c:	0008                	addi	a0,sp,0
    464e:	1d00                	addi	s0,sp,688
    4650:	00000423          	sb	zero,8(zero)
    4654:	6d06                	ld	s10,64(sp)
    4656:	9402                	jalr	s0
    4658:	0006                	0x6
    465a:	1d00                	addi	s0,sp,688
    465c:	04fc                	addi	a5,sp,588
    465e:	0000                	unimp
    4660:	7606                	ld	a2,96(sp)
    4662:	c502                	sw	zero,136(sp)
    4664:	00000007          	0x7
    4668:	6808                	ld	a0,16(s0)
    466a:	0005                	0x5
    466c:	3d00                	fld	fs0,56(a0)
    466e:	0008                	addi	a0,sp,0
    4670:	0900                	addi	s0,sp,144
    4672:	00dd                	addi	ra,ra,23
    4674:	0000                	unimp
    4676:	0018                	addi	a4,sp,0
    4678:	481e                	lw	a6,196(sp)
    467a:	0008                	addi	a0,sp,0
    467c:	1400                	addi	s0,sp,544
    467e:	042a                	slli	s0,s0,0xa
    4680:	0000                	unimp
    4682:	0f00                	addi	s0,sp,912
    4684:	3d08                	fld	fa0,56(a0)
    4686:	0008                	addi	a0,sp,0
    4688:	0f00                	addi	s0,sp,912
    468a:	7b08                	ld	a0,48(a4)
    468c:	0001                	nop
    468e:	1e00                	addi	s0,sp,816
    4690:	085f 0000 2914      	0x29140000085f
    4696:	0000                	unimp
    4698:	0000                	unimp
    469a:	0865080f          	0x865080f
    469e:	0000                	unimp
    46a0:	0854080f          	0x854080f
    46a4:	0000                	unimp
    46a6:	0208                	addi	a0,sp,256
    46a8:	0006                	0x6
    46aa:	7b00                	ld	s0,48(a4)
    46ac:	0008                	addi	a0,sp,0
    46ae:	0900                	addi	s0,sp,144
    46b0:	00dd                	addi	ra,ra,23
    46b2:	0000                	unimp
    46b4:	0002                	0x2
    46b6:	611f 0008 0700      	0x7000008611f
    46bc:	0008980f          	0x8980f
    46c0:	6c00                	ld	s0,24(s0)
    46c2:	0109                	addi	sp,sp,2
    46c4:	0000                	unimp
    46c6:	0000                	unimp
    46c8:	0800                	addi	s0,sp,16
    46ca:	0000                	unimp
    46cc:	0000                	unimp
    46ce:	0000                	unimp
    46d0:	0100                	addi	s0,sp,128
    46d2:	0f9c                	addi	a5,sp,976
    46d4:	2908                	fld	fa0,16(a0)
    46d6:	0000                	unimp
    46d8:	2000                	fld	fs0,0(s0)
    46da:	0494                	addi	a3,sp,576
    46dc:	0000                	unimp
    46de:	fa06                	sd	ra,304(sp)
    46e0:	2a02                	fld	fs4,0(sp)
    46e2:	0004                	addi	s1,sp,0
	...

Disassembly of section .debug_abbrev:

0000000000000000 <.debug_abbrev>:
   0:	1101                	addi	sp,sp,-32
   2:	2501                	sext.w	a0,a0
   4:	130e                	slli	t1,t1,0x23
   6:	110e030b          	custom0	6,28,16,8
   a:	1201                	addi	tp,tp,-32
   c:	00171007          	0x171007
  10:	0200                	addi	s0,sp,256
  12:	0024                	addi	s1,sp,8
  14:	0b3e0b0b          	custom0	22,28,19,5
  18:	00000e03          	lb	t3,0(zero)
  1c:	0b002403          	lw	s0,176(zero)
  20:	030b3e0b          	custom0	28,s6,a6,1
  24:	0008                	addi	a0,sp,0
  26:	0400                	addi	s0,sp,512
  28:	0b0b000f          	0xb0b000f
  2c:	1349                	addi	t1,t1,-14
  2e:	0000                	unimp
  30:	1505                	addi	a0,a0,-31
  32:	2700                	fld	fs0,8(a4)
  34:	0019                	0x19
  36:	0600                	addi	s0,sp,768
  38:	0104                	addi	s1,sp,128
  3a:	0b0b0e03          	lb	t3,176(s6)
  3e:	1349                	addi	t1,t1,-14
  40:	0b3a                	slli	s6,s6,0xe
  42:	13010b3b          	0x13010b3b
  46:	0000                	unimp
  48:	03002807          	flw	fa6,48(zero)
  4c:	1c0e                	slli	s8,s8,0x23
  4e:	0800000b          	custom0	0,0,0,4
  52:	012e                	slli	sp,sp,0xb
  54:	0e03193f 0b3b0b3a 	0xb3b0b3a0e03193f
  5c:	13491927          	0x13491927
  60:	0111                	addi	sp,sp,4
  62:	0712                	slli	a4,a4,0x4
  64:	1840                	addi	s0,sp,52
  66:	01194297          	auipc	t0,0x1194
  6a:	09000013          	li	zero,144
  6e:	0005                	0x5
  70:	0b3a0803          	lb	a6,179(s4) # fffffffffffe00b3 <_gp+0xfffffffffffce393>
  74:	13490b3b          	0x13490b3b
  78:	1702                	slli	a4,a4,0x20
  7a:	0000                	unimp
  7c:	890a                	mv	s2,sp
  7e:	0182                	slli	gp,gp,0x0
  80:	1101                	addi	sp,sp,-32
  82:	9501                	srai	a0,a0,0x20
  84:	1942                	slli	s2,s2,0x30
  86:	1331                	addi	t1,t1,-20
  88:	0000                	unimp
  8a:	01828a0b          	custom0	20,5,24,0
  8e:	0200                	addi	s0,sp,256
  90:	9118                	0x9118
  92:	1842                	slli	a6,a6,0x30
  94:	0000                	unimp
  96:	2e0c                	fld	fa1,24(a2)
  98:	3f00                	fld	fs0,56(a4)
  9a:	3c19                	addiw	s8,s8,-26
  9c:	6e19                	lui	t3,0x6
  9e:	030e                	slli	t1,t1,0x3
  a0:	3a0e                	fld	fs4,224(sp)
  a2:	000b3b0b          	custom0	22,s6,zero,0
  a6:	0000                	unimp
  a8:	1101                	addi	sp,sp,-32
  aa:	2501                	sext.w	a0,a0
  ac:	130e                	slli	t1,t1,0x23
  ae:	110e030b          	custom0	6,28,16,8
  b2:	1201                	addi	tp,tp,-32
  b4:	00171007          	0x171007
  b8:	0200                	addi	s0,sp,256
  ba:	0024                	addi	s1,sp,8
  bc:	0b3e0b0b          	custom0	22,28,19,5
  c0:	00000e03          	lb	t3,0(zero)
  c4:	0b002403          	lw	s0,176(zero)
  c8:	030b3e0b          	custom0	28,s6,a6,1
  cc:	0008                	addi	a0,sp,0
  ce:	0400                	addi	s0,sp,512
  d0:	0016                	0x16
  d2:	0b3a0e03          	lb	t3,179(s4)
  d6:	13490b3b          	0x13490b3b
  da:	0000                	unimp
  dc:	1605                	addi	a2,a2,-31
  de:	0300                	addi	s0,sp,384
  e0:	3a0e                	fld	fs4,224(sp)
  e2:	49053b0b          	custom0	22,a0,a6,36
  e6:	06000013          	li	zero,96
  ea:	0b0b0117          	auipc	sp,0xb0b0
  ee:	0b3a                	slli	s6,s6,0xe
  f0:	13010b3b          	0x13010b3b
  f4:	0000                	unimp
  f6:	03000d07          	0x3000d07
  fa:	3a0e                	fld	fs4,224(sp)
  fc:	490b3b0b          	custom0	22,s6,a6,36
 100:	08000013          	li	zero,128
 104:	0101                	addi	sp,sp,0
 106:	1349                	addi	t1,t1,-14
 108:	1301                	addi	t1,t1,-32
 10a:	0000                	unimp
 10c:	2109                	addiw	sp,sp,2
 10e:	4900                	lw	s0,16(a0)
 110:	000b2f13          	slti	t5,s6,0
 114:	0a00                	addi	s0,sp,272
 116:	0b0b0113          	addi	sp,s6,176
 11a:	0b3a                	slli	s6,s6,0xe
 11c:	13010b3b          	0x13010b3b
 120:	0000                	unimp
 122:	03000d0b          	custom0	26,0,16,1
 126:	3a0e                	fld	fs4,224(sp)
 128:	490b3b0b          	custom0	22,s6,a6,36
 12c:	000b3813          	sltiu	a6,s6,0
 130:	0c00                	addi	s0,sp,528
 132:	0b0b000f          	0xb0b000f
 136:	0000                	unimp
 138:	130d                	addi	t1,t1,-29
 13a:	0301                	addi	t1,t1,0
 13c:	0b0e                	slli	s6,s6,0x3
 13e:	3b0b3a0b          	custom0	20,s6,a6,29
 142:	0013010b          	custom0	2,6,1,0
 146:	0e00                	addi	s0,sp,784
 148:	000d                	0xd
 14a:	0b3a0803          	lb	a6,179(s4)
 14e:	13490b3b          	0x13490b3b
 152:	0b38                	addi	a4,sp,408
 154:	0000                	unimp
 156:	0b000f0f          	0xb000f0f
 15a:	0013490b          	custom0	s2,6,1,0
 15e:	1000                	addi	s0,sp,32
 160:	0e030113          	addi	sp,t1,224
 164:	0b3a050b          	custom0	10,20,19,5
 168:	13010b3b          	0x13010b3b
 16c:	0000                	unimp
 16e:	0d11                	addi	s10,s10,4
 170:	0300                	addi	s0,sp,384
 172:	3a0e                	fld	fs4,224(sp)
 174:	490b3b0b          	custom0	22,s6,a6,36
 178:	00053813          	sltiu	a6,a0,0
 17c:	1200                	addi	s0,sp,288
 17e:	0015                	0x15
 180:	00001927          	0x1927
 184:	27011513          	0x27011513
 188:	4919                	li	s2,6
 18a:	00130113          	addi	sp,t1,1
 18e:	1400                	addi	s0,sp,544
 190:	0005                	0x5
 192:	1349                	addi	t1,t1,-14
 194:	0000                	unimp
 196:	1315                	addi	t1,t1,-27
 198:	0301                	addi	t1,t1,0
 19a:	0b0e                	slli	s6,s6,0x3
 19c:	3a05                	addiw	s4,s4,-31
 19e:	01053b0b          	custom0	22,a0,a6,0
 1a2:	16000013          	li	zero,352
 1a6:	000d                	0xd
 1a8:	0b3a0e03          	lb	t3,179(s4)
 1ac:	1349053b          	0x1349053b
 1b0:	0b38                	addi	a4,sp,408
 1b2:	0000                	unimp
 1b4:	03000d17          	auipc	s10,0x3000
 1b8:	3a0e                	fld	fs4,224(sp)
 1ba:	49053b0b          	custom0	22,a0,a6,36
 1be:	00053813          	sltiu	a6,a0,0
 1c2:	1800                	addi	s0,sp,48
 1c4:	0026                	0x26
 1c6:	1349                	addi	t1,t1,-14
 1c8:	0000                	unimp
 1ca:	1319                	addi	t1,t1,-26
 1cc:	0301                	addi	t1,t1,0
 1ce:	0b0e                	slli	s6,s6,0x3
 1d0:	3b0b3a0b          	custom0	20,s6,a6,29
 1d4:	0105                	addi	sp,sp,1
 1d6:	1a000013          	li	zero,416
 1da:	0b0b0113          	addi	sp,s6,176
 1de:	0b3a                	slli	s6,s6,0xe
 1e0:	1301053b          	0x1301053b
 1e4:	0000                	unimp
 1e6:	0b01131b          	0xb01131b
 1ea:	3a05                	addiw	s4,s4,-31
 1ec:	01053b0b          	custom0	22,a0,a6,0
 1f0:	1c000013          	li	zero,448
 1f4:	050b0117          	auipc	sp,0x50b0
 1f8:	0b3a                	slli	s6,s6,0xe
 1fa:	1301053b          	0x1301053b
 1fe:	0000                	unimp
 200:	0d1d                	addi	s10,s10,7
 202:	0300                	addi	s0,sp,384
 204:	3a0e                	fld	fs4,224(sp)
 206:	49053b0b          	custom0	22,a0,a6,36
 20a:	1e000013          	li	zero,480
 20e:	0115                	addi	sp,sp,5
 210:	13011927          	0x13011927
 214:	0000                	unimp
 216:	2e1f 3f01 0319      	0x3193f012e1f
 21c:	3a0e                	fld	fs4,224(sp)
 21e:	270b3b0b          	custom0	22,s6,a6,19
 222:	8719                	srai	a4,a4,0x6
 224:	1901                	addi	s2,s2,-32
 226:	0111                	addi	sp,sp,4
 228:	0712                	slli	a4,a4,0x4
 22a:	1840                	addi	s0,sp,52
 22c:	4296                	lw	t0,68(sp)
 22e:	0119                	addi	sp,sp,6
 230:	20000013          	li	zero,512
 234:	0005                	0x5
 236:	0b3a0e03          	lb	t3,179(s4)
 23a:	13490b3b          	0x13490b3b
 23e:	1702                	slli	a4,a4,0x20
 240:	0000                	unimp
 242:	8921                	andi	a0,a0,8
 244:	0182                	slli	gp,gp,0x0
 246:	1101                	addi	sp,sp,-32
 248:	3101                	addiw	sp,sp,-32
 24a:	00130113          	addi	sp,t1,1
 24e:	2200                	fld	fs0,0(a2)
 250:	828a                	mv	t0,sp
 252:	0001                	nop
 254:	1802                	slli	a6,a6,0x20
 256:	4291                	li	t0,4
 258:	0018                	addi	a4,sp,0
 25a:	2300                	fld	fs0,0(a4)
 25c:	8289                	srli	a3,a3,0x2
 25e:	0101                	addi	sp,sp,0
 260:	0111                	addi	sp,sp,4
 262:	1331                	addi	t1,t1,-20
 264:	0000                	unimp
 266:	3424                	fld	fs1,104(s0)
 268:	0300                	addi	s0,sp,384
 26a:	3a0e                	fld	fs4,224(sp)
 26c:	49053b0b          	custom0	22,a0,a6,36
 270:	3c193f13          	sltiu	t5,s2,961
 274:	0019                	0x19
 276:	2500                	fld	fs0,8(a0)
 278:	002e                	0x2e
 27a:	193c193f 0e030e6e 	0xe030e6e193c193f
 282:	0b3a                	slli	s6,s6,0xe
 284:	00000b3b          	addw	s6,zero,zero
 288:	0100                	addi	s0,sp,128
 28a:	0111                	addi	sp,sp,4
 28c:	0e25                	addi	t3,t3,9
 28e:	0e030b13          	addi	s6,t1,224
 292:	0111                	addi	sp,sp,4
 294:	0712                	slli	a4,a4,0x4
 296:	1710                	addi	a2,sp,928
 298:	0000                	unimp
 29a:	2402                	fld	fs0,0(sp)
 29c:	0b00                	addi	s0,sp,400
 29e:	030b3e0b          	custom0	28,s6,a6,1
 2a2:	000e                	0xe
 2a4:	0300                	addi	s0,sp,384
 2a6:	0024                	addi	s1,sp,8
 2a8:	0b3e0b0b          	custom0	22,28,19,5
 2ac:	00000803          	lb	a6,0(zero)
 2b0:	1604                	addi	s1,sp,800
 2b2:	0300                	addi	s0,sp,384
 2b4:	3a0e                	fld	fs4,224(sp)
 2b6:	490b3b0b          	custom0	22,s6,a6,36
 2ba:	05000013          	li	zero,80
 2be:	012e                	slli	sp,sp,0xb
 2c0:	0e03193f 0b3b0b3a 	0xb3b0b3a0e03193f
 2c8:	01111927          	0x1111927
 2cc:	0712                	slli	a4,a4,0x4
 2ce:	1840                	addi	s0,sp,52
 2d0:	4296                	lw	t0,68(sp)
 2d2:	0119                	addi	sp,sp,6
 2d4:	06000013          	li	zero,96
 2d8:	0034                	addi	a3,sp,8
 2da:	0b3a0e03          	lb	t3,179(s4)
 2de:	13490b3b          	0x13490b3b
 2e2:	1702                	slli	a4,a4,0x20
 2e4:	0000                	unimp
 2e6:	03003407          	fld	fs0,48(zero)
 2ea:	3a08                	fld	fa0,48(a2)
 2ec:	490b3b0b          	custom0	22,s6,a6,36
 2f0:	00170213          	addi	tp,a4,1
 2f4:	0800                	addi	s0,sp,16
 2f6:	8289                	srli	a3,a3,0x2
 2f8:	0001                	nop
 2fa:	0111                	addi	sp,sp,4
 2fc:	4295                	li	t0,5
 2fe:	3119                	addiw	sp,sp,-26
 300:	09000013          	li	zero,144
 304:	0101                	addi	sp,sp,0
 306:	1349                	addi	t1,t1,-14
 308:	1301                	addi	t1,t1,-32
 30a:	0000                	unimp
 30c:	210a                	fld	ft2,128(sp)
 30e:	0000                	unimp
 310:	0b00                	addi	s0,sp,400
 312:	0b0b000f          	0xb0b000f
 316:	1349                	addi	t1,t1,-14
 318:	0000                	unimp
 31a:	150c                	addi	a1,sp,672
 31c:	2700                	fld	fs0,8(a4)
 31e:	0019                	0x19
 320:	0d00                	addi	s0,sp,656
 322:	0034                	addi	a3,sp,8
 324:	0b3a0e03          	lb	t3,179(s4)
 328:	13490b3b          	0x13490b3b
 32c:	193c193f 2e0e0000 	0x2e0e0000193c193f
 334:	3f00                	fld	fs0,56(a4)
 336:	3c19                	addiw	s8,s8,-26
 338:	6e19                	lui	t3,0x6
 33a:	030e                	slli	t1,t1,0x3
 33c:	3a0e                	fld	fs4,224(sp)
 33e:	000b3b0b          	custom0	22,s6,zero,0
 342:	0000                	unimp
 344:	1101                	addi	sp,sp,-32
 346:	2501                	sext.w	a0,a0
 348:	130e                	slli	t1,t1,0x23
 34a:	100e030b          	custom0	6,28,0,8
 34e:	02000017          	auipc	zero,0x2000
 352:	0024                	addi	s1,sp,8
 354:	0b3e0b0b          	custom0	22,28,19,5
 358:	00000e03          	lb	t3,0(zero) # 200034e <_gp+0x1fee62e>
 35c:	0b002403          	lw	s0,176(zero)
 360:	030b3e0b          	custom0	28,s6,a6,1
 364:	0008                	addi	a0,sp,0
 366:	0400                	addi	s0,sp,512
 368:	0016                	0x16
 36a:	0b3a0e03          	lb	t3,179(s4)
 36e:	13490b3b          	0x13490b3b
 372:	0000                	unimp
 374:	1605                	addi	a2,a2,-31
 376:	0300                	addi	s0,sp,384
 378:	3a0e                	fld	fs4,224(sp)
 37a:	49053b0b          	custom0	22,a0,a6,36
 37e:	06000013          	li	zero,96
 382:	0b0b0117          	auipc	sp,0xb0b0
 386:	0b3a                	slli	s6,s6,0xe
 388:	13010b3b          	0x13010b3b
 38c:	0000                	unimp
 38e:	03000d07          	0x3000d07
 392:	3a0e                	fld	fs4,224(sp)
 394:	490b3b0b          	custom0	22,s6,a6,36
 398:	08000013          	li	zero,128
 39c:	0101                	addi	sp,sp,0
 39e:	1349                	addi	t1,t1,-14
 3a0:	1301                	addi	t1,t1,-32
 3a2:	0000                	unimp
 3a4:	2109                	addiw	sp,sp,2
 3a6:	4900                	lw	s0,16(a0)
 3a8:	000b2f13          	slti	t5,s6,0
 3ac:	0a00                	addi	s0,sp,272
 3ae:	0b0b0113          	addi	sp,s6,176
 3b2:	0b3a                	slli	s6,s6,0xe
 3b4:	13010b3b          	0x13010b3b
 3b8:	0000                	unimp
 3ba:	03000d0b          	custom0	26,0,16,1
 3be:	3a0e                	fld	fs4,224(sp)
 3c0:	490b3b0b          	custom0	22,s6,a6,36
 3c4:	000b3813          	sltiu	a6,s6,0
 3c8:	0c00                	addi	s0,sp,528
 3ca:	0b0b000f          	0xb0b000f
 3ce:	0000                	unimp
 3d0:	130d                	addi	t1,t1,-29
 3d2:	0301                	addi	t1,t1,0
 3d4:	0b0e                	slli	s6,s6,0x3
 3d6:	3b0b3a0b          	custom0	20,s6,a6,29
 3da:	0013010b          	custom0	2,6,1,0
 3de:	0e00                	addi	s0,sp,784
 3e0:	000d                	0xd
 3e2:	0b3a0803          	lb	a6,179(s4)
 3e6:	13490b3b          	0x13490b3b
 3ea:	0b38                	addi	a4,sp,408
 3ec:	0000                	unimp
 3ee:	0b000f0f          	0xb000f0f
 3f2:	0013490b          	custom0	s2,6,1,0
 3f6:	1000                	addi	s0,sp,32
 3f8:	0e030113          	addi	sp,t1,224
 3fc:	0b3a050b          	custom0	10,20,19,5
 400:	13010b3b          	0x13010b3b
 404:	0000                	unimp
 406:	0d11                	addi	s10,s10,4
 408:	0300                	addi	s0,sp,384
 40a:	3a0e                	fld	fs4,224(sp)
 40c:	490b3b0b          	custom0	22,s6,a6,36
 410:	00053813          	sltiu	a6,a0,0
 414:	1200                	addi	s0,sp,288
 416:	0015                	0x15
 418:	00001927          	0x1927
 41c:	27011513          	0x27011513
 420:	4919                	li	s2,6
 422:	00130113          	addi	sp,t1,1
 426:	1400                	addi	s0,sp,544
 428:	0005                	0x5
 42a:	1349                	addi	t1,t1,-14
 42c:	0000                	unimp
 42e:	1315                	addi	t1,t1,-27
 430:	0301                	addi	t1,t1,0
 432:	0b0e                	slli	s6,s6,0x3
 434:	3a05                	addiw	s4,s4,-31
 436:	01053b0b          	custom0	22,a0,a6,0
 43a:	16000013          	li	zero,352
 43e:	000d                	0xd
 440:	0b3a0e03          	lb	t3,179(s4)
 444:	1349053b          	0x1349053b
 448:	0b38                	addi	a4,sp,408
 44a:	0000                	unimp
 44c:	03000d17          	auipc	s10,0x3000
 450:	3a0e                	fld	fs4,224(sp)
 452:	49053b0b          	custom0	22,a0,a6,36
 456:	00053813          	sltiu	a6,a0,0
 45a:	1800                	addi	s0,sp,48
 45c:	0026                	0x26
 45e:	1349                	addi	t1,t1,-14
 460:	0000                	unimp
 462:	1319                	addi	t1,t1,-26
 464:	0301                	addi	t1,t1,0
 466:	0b0e                	slli	s6,s6,0x3
 468:	3b0b3a0b          	custom0	20,s6,a6,29
 46c:	0105                	addi	sp,sp,1
 46e:	1a000013          	li	zero,416
 472:	0b0b0113          	addi	sp,s6,176
 476:	0b3a                	slli	s6,s6,0xe
 478:	1301053b          	0x1301053b
 47c:	0000                	unimp
 47e:	0b01131b          	0xb01131b
 482:	3a05                	addiw	s4,s4,-31
 484:	01053b0b          	custom0	22,a0,a6,0
 488:	1c000013          	li	zero,448
 48c:	050b0117          	auipc	sp,0x50b0
 490:	0b3a                	slli	s6,s6,0xe
 492:	1301053b          	0x1301053b
 496:	0000                	unimp
 498:	0d1d                	addi	s10,s10,7
 49a:	0300                	addi	s0,sp,384
 49c:	3a0e                	fld	fs4,224(sp)
 49e:	49053b0b          	custom0	22,a0,a6,36
 4a2:	1e000013          	li	zero,480
 4a6:	0115                	addi	sp,sp,5
 4a8:	13011927          	0x13011927
 4ac:	0000                	unimp
 4ae:	341f 0300 3a0e      	0x3a0e0300341f
 4b4:	490b3b0b          	custom0	22,s6,a6,36
 4b8:	00180213          	addi	tp,a6,1 # 6001 <_ftext-0x9fff>
 4bc:	2000                	fld	fs0,0(s0)
 4be:	0034                	addi	a3,sp,8
 4c0:	0b3a0e03          	lb	t3,179(s4)
 4c4:	1349053b          	0x1349053b
 4c8:	1802193f 01000000 	0x10000001802193f
 4d0:	0111                	addi	sp,sp,4
 4d2:	0e25                	addi	t3,t3,9
 4d4:	0e030b13          	addi	s6,t1,224
 4d8:	0111                	addi	sp,sp,4
 4da:	0712                	slli	a4,a4,0x4
 4dc:	1710                	addi	a2,sp,928
 4de:	0000                	unimp
 4e0:	2402                	fld	fs0,0(sp)
 4e2:	0b00                	addi	s0,sp,400
 4e4:	030b3e0b          	custom0	28,s6,a6,1
 4e8:	000e                	0xe
 4ea:	0300                	addi	s0,sp,384
 4ec:	0024                	addi	s1,sp,8
 4ee:	0b3e0b0b          	custom0	22,28,19,5
 4f2:	00000803          	lb	a6,0(zero)
 4f6:	1604                	addi	s1,sp,800
 4f8:	0300                	addi	s0,sp,384
 4fa:	3a0e                	fld	fs4,224(sp)
 4fc:	490b3b0b          	custom0	22,s6,a6,36
 500:	05000013          	li	zero,80
 504:	012e                	slli	sp,sp,0xb
 506:	0e03193f 0b3b0b3a 	0xb3b0b3a0e03193f
 50e:	01111927          	0x1111927
 512:	0712                	slli	a4,a4,0x4
 514:	1840                	addi	s0,sp,52
 516:	4296                	lw	t0,68(sp)
 518:	0119                	addi	sp,sp,6
 51a:	06000013          	li	zero,96
 51e:	0034                	addi	a3,sp,8
 520:	0b3a0e03          	lb	t3,179(s4)
 524:	13490b3b          	0x13490b3b
 528:	1702                	slli	a4,a4,0x20
 52a:	0000                	unimp
 52c:	03003407          	fld	fs0,48(zero)
 530:	3a08                	fld	fa0,48(a2)
 532:	490b3b0b          	custom0	22,s6,a6,36
 536:	00170213          	addi	tp,a4,1
 53a:	0800                	addi	s0,sp,16
 53c:	8289                	srli	a3,a3,0x2
 53e:	0001                	nop
 540:	0111                	addi	sp,sp,4
 542:	1331                	addi	t1,t1,-20
 544:	0000                	unimp
 546:	0109                	addi	sp,sp,2
 548:	4901                	li	s2,0
 54a:	00130113          	addi	sp,t1,1
 54e:	0a00                	addi	s0,sp,272
 550:	0021                	0x21
 552:	0000                	unimp
 554:	0b000f0b          	custom0	30,0,16,5
 558:	0013490b          	custom0	s2,6,1,0
 55c:	0c00                	addi	s0,sp,528
 55e:	0015                	0x15
 560:	00001927          	0x1927
 564:	340d                	addiw	s0,s0,-29
 566:	0300                	addi	s0,sp,384
 568:	3a0e                	fld	fs4,224(sp)
 56a:	490b3b0b          	custom0	22,s6,a6,36
 56e:	3c193f13          	sltiu	t5,s2,961
 572:	0019                	0x19
 574:	0e00                	addi	s0,sp,784
 576:	002e                	0x2e
 578:	193c193f 0e030e6e 	0xe030e6e193c193f
 580:	0b3a                	slli	s6,s6,0xe
 582:	00000b3b          	addw	s6,zero,zero
 586:	0100                	addi	s0,sp,128
 588:	0111                	addi	sp,sp,4
 58a:	0e25                	addi	t3,t3,9
 58c:	0e030b13          	addi	s6,t1,224
 590:	0111                	addi	sp,sp,4
 592:	0712                	slli	a4,a4,0x4
 594:	1710                	addi	a2,sp,928
 596:	0000                	unimp
 598:	2402                	fld	fs0,0(sp)
 59a:	0b00                	addi	s0,sp,400
 59c:	030b3e0b          	custom0	28,s6,a6,1
 5a0:	000e                	0xe
 5a2:	0300                	addi	s0,sp,384
 5a4:	0024                	addi	s1,sp,8
 5a6:	0b3e0b0b          	custom0	22,28,19,5
 5aa:	00000803          	lb	a6,0(zero)
 5ae:	1604                	addi	s1,sp,800
 5b0:	0300                	addi	s0,sp,384
 5b2:	3a0e                	fld	fs4,224(sp)
 5b4:	490b3b0b          	custom0	22,s6,a6,36
 5b8:	05000013          	li	zero,80
 5bc:	0016                	0x16
 5be:	0b3a0e03          	lb	t3,179(s4)
 5c2:	1349053b          	0x1349053b
 5c6:	0000                	unimp
 5c8:	1706                	slli	a4,a4,0x21
 5ca:	0b01                	addi	s6,s6,0
 5cc:	3b0b3a0b          	custom0	20,s6,a6,29
 5d0:	0013010b          	custom0	2,6,1,0
 5d4:	0700                	addi	s0,sp,896
 5d6:	000d                	0xd
 5d8:	0b3a0e03          	lb	t3,179(s4)
 5dc:	13490b3b          	0x13490b3b
 5e0:	0000                	unimp
 5e2:	0108                	addi	a0,sp,128
 5e4:	4901                	li	s2,0
 5e6:	00130113          	addi	sp,t1,1
 5ea:	0900                	addi	s0,sp,144
 5ec:	0021                	0x21
 5ee:	1349                	addi	t1,t1,-14
 5f0:	00000b2f          	0xb2f
 5f4:	130a                	slli	t1,t1,0x22
 5f6:	0b01                	addi	s6,s6,0
 5f8:	3b0b3a0b          	custom0	20,s6,a6,29
 5fc:	0013010b          	custom0	2,6,1,0
 600:	0b00                	addi	s0,sp,400
 602:	000d                	0xd
 604:	0b3a0e03          	lb	t3,179(s4)
 608:	13490b3b          	0x13490b3b
 60c:	0b38                	addi	a4,sp,408
 60e:	0000                	unimp
 610:	0f0c                	addi	a1,sp,912
 612:	0b00                	addi	s0,sp,400
 614:	0d00000b          	custom0	0,0,16,6
 618:	0e030113          	addi	sp,t1,224
 61c:	0b3a0b0b          	custom0	22,20,19,5
 620:	13010b3b          	0x13010b3b
 624:	0000                	unimp
 626:	0d0e                	slli	s10,s10,0x3
 628:	0300                	addi	s0,sp,384
 62a:	3a08                	fld	fa0,48(a2)
 62c:	490b3b0b          	custom0	22,s6,a6,36
 630:	000b3813          	sltiu	a6,s6,0
 634:	0f00                	addi	s0,sp,912
 636:	0b0b000f          	0xb0b000f
 63a:	1349                	addi	t1,t1,-14
 63c:	0000                	unimp
 63e:	1310                	addi	a2,sp,416
 640:	0301                	addi	t1,t1,0
 642:	0b0e                	slli	s6,s6,0x3
 644:	3a05                	addiw	s4,s4,-31
 646:	010b3b0b          	custom0	22,s6,a6,0
 64a:	11000013          	li	zero,272
 64e:	000d                	0xd
 650:	0b3a0e03          	lb	t3,179(s4)
 654:	13490b3b          	0x13490b3b
 658:	0538                	addi	a4,sp,648
 65a:	0000                	unimp
 65c:	1512                	slli	a0,a0,0x24
 65e:	2700                	fld	fs0,8(a4)
 660:	0019                	0x19
 662:	1300                	addi	s0,sp,416
 664:	0115                	addi	sp,sp,5
 666:	13491927          	0x13491927
 66a:	1301                	addi	t1,t1,-32
 66c:	0000                	unimp
 66e:	0514                	addi	a3,sp,640
 670:	4900                	lw	s0,16(a0)
 672:	15000013          	li	zero,336
 676:	0e030113          	addi	sp,t1,224
 67a:	0b3a050b          	custom0	10,20,19,5
 67e:	1301053b          	0x1301053b
 682:	0000                	unimp
 684:	0d16                	slli	s10,s10,0x5
 686:	0300                	addi	s0,sp,384
 688:	3a0e                	fld	fs4,224(sp)
 68a:	49053b0b          	custom0	22,a0,a6,36
 68e:	000b3813          	sltiu	a6,s6,0
 692:	1700                	addi	s0,sp,928
 694:	000d                	0xd
 696:	0b3a0e03          	lb	t3,179(s4)
 69a:	1349053b          	0x1349053b
 69e:	0538                	addi	a4,sp,648
 6a0:	0000                	unimp
 6a2:	2618                	fld	fa4,8(a2)
 6a4:	4900                	lw	s0,16(a0)
 6a6:	19000013          	li	zero,400
 6aa:	0e030113          	addi	sp,t1,224
 6ae:	0b3a0b0b          	custom0	22,20,19,5
 6b2:	1301053b          	0x1301053b
 6b6:	0000                	unimp
 6b8:	131a                	slli	t1,t1,0x26
 6ba:	0b01                	addi	s6,s6,0
 6bc:	3b0b3a0b          	custom0	20,s6,a6,29
 6c0:	0105                	addi	sp,sp,1
 6c2:	1b000013          	li	zero,432
 6c6:	050b0113          	addi	sp,s6,80
 6ca:	0b3a                	slli	s6,s6,0xe
 6cc:	1301053b          	0x1301053b
 6d0:	0000                	unimp
 6d2:	171c                	addi	a5,sp,928
 6d4:	0b01                	addi	s6,s6,0
 6d6:	3a05                	addiw	s4,s4,-31
 6d8:	01053b0b          	custom0	22,a0,a6,0
 6dc:	1d000013          	li	zero,464
 6e0:	000d                	0xd
 6e2:	0b3a0e03          	lb	t3,179(s4)
 6e6:	1349053b          	0x1349053b
 6ea:	0000                	unimp
 6ec:	151e                	slli	a0,a0,0x27
 6ee:	2701                	sext.w	a4,a4
 6f0:	0119                	addi	sp,sp,6
 6f2:	1f000013          	li	zero,496
 6f6:	0104                	addi	s1,sp,128
 6f8:	0b0b0e03          	lb	t3,176(s6)
 6fc:	1349                	addi	t1,t1,-14
 6fe:	0b3a                	slli	s6,s6,0xe
 700:	13010b3b          	0x13010b3b
 704:	0000                	unimp
 706:	2820                	fld	fs0,80(s0)
 708:	0300                	addi	s0,sp,384
 70a:	1c0e                	slli	s8,s8,0x23
 70c:	2100000b          	custom0	0,0,16,16
 710:	012e                	slli	sp,sp,0xb
 712:	0e03193f 0b3b0b3a 	0xb3b0b3a0e03193f
 71a:	13491927          	0x13491927
 71e:	0111                	addi	sp,sp,4
 720:	0712                	slli	a4,a4,0x4
 722:	1840                	addi	s0,sp,52
 724:	01194297          	auipc	t0,0x1194
 728:	22000013          	li	zero,544
 72c:	0005                	0x5
 72e:	0b3a0e03          	lb	t3,179(s4)
 732:	13490b3b          	0x13490b3b
 736:	1702                	slli	a4,a4,0x20
 738:	0000                	unimp
 73a:	03000523          	sb	a6,42(zero)
 73e:	3a08                	fld	fa0,48(a2)
 740:	490b3b0b          	custom0	22,s6,a6,36
 744:	00170213          	addi	tp,a4,1
 748:	2400                	fld	fs0,8(s0)
 74a:	0034                	addi	a3,sp,8
 74c:	0b3a0e03          	lb	t3,179(s4)
 750:	13490b3b          	0x13490b3b
 754:	1702                	slli	a4,a4,0x20
 756:	0000                	unimp
 758:	3425                	addiw	s0,s0,-23
 75a:	0300                	addi	s0,sp,384
 75c:	3a08                	fld	fa0,48(a2)
 75e:	490b3b0b          	custom0	22,s6,a6,36
 762:	00170213          	addi	tp,a4,1
 766:	2600                	fld	fs0,8(a2)
 768:	8289                	srli	a3,a3,0x2
 76a:	0101                	addi	sp,sp,0
 76c:	0111                	addi	sp,sp,4
 76e:	1331                	addi	t1,t1,-20
 770:	0000                	unimp
 772:	01828a27          	0x1828a27
 776:	0200                	addi	s0,sp,256
 778:	9118                	0x9118
 77a:	1842                	slli	a6,a6,0x30
 77c:	0000                	unimp
 77e:	3428                	fld	fa0,104(s0)
 780:	0300                	addi	s0,sp,384
 782:	3a0e                	fld	fs4,224(sp)
 784:	49053b0b          	custom0	22,a0,a6,36
 788:	3c193f13          	sltiu	t5,s2,961
 78c:	0019                	0x19
 78e:	2900                	fld	fs0,16(a0)
 790:	002e                	0x2e
 792:	193c193f 0e030e6e 	0xe030e6e193c193f
 79a:	0b3a                	slli	s6,s6,0xe
 79c:	00000b3b          	addw	s6,zero,zero
 7a0:	0100                	addi	s0,sp,128
 7a2:	0111                	addi	sp,sp,4
 7a4:	0e25                	addi	t3,t3,9
 7a6:	0e030b13          	addi	s6,t1,224
 7aa:	0111                	addi	sp,sp,4
 7ac:	0712                	slli	a4,a4,0x4
 7ae:	1710                	addi	a2,sp,928
 7b0:	0000                	unimp
 7b2:	2402                	fld	fs0,0(sp)
 7b4:	0b00                	addi	s0,sp,400
 7b6:	030b3e0b          	custom0	28,s6,a6,1
 7ba:	000e                	0xe
 7bc:	0300                	addi	s0,sp,384
 7be:	0024                	addi	s1,sp,8
 7c0:	0b3e0b0b          	custom0	22,28,19,5
 7c4:	00000803          	lb	a6,0(zero)
 7c8:	1604                	addi	s1,sp,800
 7ca:	0300                	addi	s0,sp,384
 7cc:	3a0e                	fld	fs4,224(sp)
 7ce:	490b3b0b          	custom0	22,s6,a6,36
 7d2:	05000013          	li	zero,80
 7d6:	0016                	0x16
 7d8:	0b3a0e03          	lb	t3,179(s4)
 7dc:	1349053b          	0x1349053b
 7e0:	0000                	unimp
 7e2:	1706                	slli	a4,a4,0x21
 7e4:	0b01                	addi	s6,s6,0
 7e6:	3b0b3a0b          	custom0	20,s6,a6,29
 7ea:	0013010b          	custom0	2,6,1,0
 7ee:	0700                	addi	s0,sp,896
 7f0:	000d                	0xd
 7f2:	0b3a0e03          	lb	t3,179(s4)
 7f6:	13490b3b          	0x13490b3b
 7fa:	0000                	unimp
 7fc:	0108                	addi	a0,sp,128
 7fe:	4901                	li	s2,0
 800:	00130113          	addi	sp,t1,1
 804:	0900                	addi	s0,sp,144
 806:	0021                	0x21
 808:	1349                	addi	t1,t1,-14
 80a:	00000b2f          	0xb2f
 80e:	130a                	slli	t1,t1,0x22
 810:	0b01                	addi	s6,s6,0
 812:	3b0b3a0b          	custom0	20,s6,a6,29
 816:	0013010b          	custom0	2,6,1,0
 81a:	0b00                	addi	s0,sp,400
 81c:	000d                	0xd
 81e:	0b3a0e03          	lb	t3,179(s4)
 822:	13490b3b          	0x13490b3b
 826:	0b38                	addi	a4,sp,408
 828:	0000                	unimp
 82a:	0f0c                	addi	a1,sp,912
 82c:	0b00                	addi	s0,sp,400
 82e:	0d00000b          	custom0	0,0,16,6
 832:	0e030113          	addi	sp,t1,224
 836:	0b3a0b0b          	custom0	22,20,19,5
 83a:	13010b3b          	0x13010b3b
 83e:	0000                	unimp
 840:	0d0e                	slli	s10,s10,0x3
 842:	0300                	addi	s0,sp,384
 844:	3a08                	fld	fa0,48(a2)
 846:	490b3b0b          	custom0	22,s6,a6,36
 84a:	000b3813          	sltiu	a6,s6,0
 84e:	0f00                	addi	s0,sp,912
 850:	0b0b000f          	0xb0b000f
 854:	1349                	addi	t1,t1,-14
 856:	0000                	unimp
 858:	1310                	addi	a2,sp,416
 85a:	0301                	addi	t1,t1,0
 85c:	0b0e                	slli	s6,s6,0x3
 85e:	3a05                	addiw	s4,s4,-31
 860:	010b3b0b          	custom0	22,s6,a6,0
 864:	11000013          	li	zero,272
 868:	000d                	0xd
 86a:	0b3a0e03          	lb	t3,179(s4)
 86e:	13490b3b          	0x13490b3b
 872:	0538                	addi	a4,sp,648
 874:	0000                	unimp
 876:	1512                	slli	a0,a0,0x24
 878:	2700                	fld	fs0,8(a4)
 87a:	0019                	0x19
 87c:	1300                	addi	s0,sp,416
 87e:	0115                	addi	sp,sp,5
 880:	13491927          	0x13491927
 884:	1301                	addi	t1,t1,-32
 886:	0000                	unimp
 888:	0514                	addi	a3,sp,640
 88a:	4900                	lw	s0,16(a0)
 88c:	15000013          	li	zero,336
 890:	0e030113          	addi	sp,t1,224
 894:	0b3a050b          	custom0	10,20,19,5
 898:	1301053b          	0x1301053b
 89c:	0000                	unimp
 89e:	0d16                	slli	s10,s10,0x5
 8a0:	0300                	addi	s0,sp,384
 8a2:	3a0e                	fld	fs4,224(sp)
 8a4:	49053b0b          	custom0	22,a0,a6,36
 8a8:	000b3813          	sltiu	a6,s6,0
 8ac:	1700                	addi	s0,sp,928
 8ae:	000d                	0xd
 8b0:	0b3a0e03          	lb	t3,179(s4)
 8b4:	1349053b          	0x1349053b
 8b8:	0538                	addi	a4,sp,648
 8ba:	0000                	unimp
 8bc:	2618                	fld	fa4,8(a2)
 8be:	4900                	lw	s0,16(a0)
 8c0:	19000013          	li	zero,400
 8c4:	0e030113          	addi	sp,t1,224
 8c8:	0b3a0b0b          	custom0	22,20,19,5
 8cc:	1301053b          	0x1301053b
 8d0:	0000                	unimp
 8d2:	131a                	slli	t1,t1,0x26
 8d4:	0b01                	addi	s6,s6,0
 8d6:	3b0b3a0b          	custom0	20,s6,a6,29
 8da:	0105                	addi	sp,sp,1
 8dc:	1b000013          	li	zero,432
 8e0:	050b0113          	addi	sp,s6,80
 8e4:	0b3a                	slli	s6,s6,0xe
 8e6:	1301053b          	0x1301053b
 8ea:	0000                	unimp
 8ec:	171c                	addi	a5,sp,928
 8ee:	0b01                	addi	s6,s6,0
 8f0:	3a05                	addiw	s4,s4,-31
 8f2:	01053b0b          	custom0	22,a0,a6,0
 8f6:	1d000013          	li	zero,464
 8fa:	000d                	0xd
 8fc:	0b3a0e03          	lb	t3,179(s4)
 900:	1349053b          	0x1349053b
 904:	0000                	unimp
 906:	151e                	slli	a0,a0,0x27
 908:	2701                	sext.w	a4,a4
 90a:	0119                	addi	sp,sp,6
 90c:	1f000013          	li	zero,496
 910:	012e                	slli	sp,sp,0xb
 912:	0e03193f 0b3b0b3a 	0xb3b0b3a0e03193f
 91a:	01111927          	0x1111927
 91e:	0712                	slli	a4,a4,0x4
 920:	1840                	addi	s0,sp,52
 922:	4296                	lw	t0,68(sp)
 924:	0119                	addi	sp,sp,6
 926:	20000013          	li	zero,512
 92a:	0005                	0x5
 92c:	0b3a0e03          	lb	t3,179(s4)
 930:	13490b3b          	0x13490b3b
 934:	1702                	slli	a4,a4,0x20
 936:	0000                	unimp
 938:	0521                	addi	a0,a0,8
 93a:	0300                	addi	s0,sp,384
 93c:	3a08                	fld	fa0,48(a2)
 93e:	490b3b0b          	custom0	22,s6,a6,36
 942:	00170213          	addi	tp,a4,1
 946:	2200                	fld	fs0,0(a2)
 948:	0034                	addi	a3,sp,8
 94a:	0b3a0803          	lb	a6,179(s4)
 94e:	13490b3b          	0x13490b3b
 952:	1702                	slli	a4,a4,0x20
 954:	0000                	unimp
 956:	03003423          	sd	a6,40(zero)
 95a:	3a0e                	fld	fs4,224(sp)
 95c:	490b3b0b          	custom0	22,s6,a6,36
 960:	00170213          	addi	tp,a4,1
 964:	2400                	fld	fs0,8(s0)
 966:	000a                	0xa
 968:	0b3a0e03          	lb	t3,179(s4)
 96c:	00000b3b          	addw	s6,zero,zero
 970:	0b25                	addi	s6,s6,9
 972:	5501                	li	a0,-32
 974:	00130117          	auipc	sp,0x130
 978:	2600                	fld	fs0,8(a2)
 97a:	8289                	srli	a3,a3,0x2
 97c:	0101                	addi	sp,sp,0
 97e:	0111                	addi	sp,sp,4
 980:	0000                	unimp
 982:	01828a27          	0x1828a27
 986:	0200                	addi	s0,sp,256
 988:	9118                	0x9118
 98a:	1842                	slli	a6,a6,0x30
 98c:	0000                	unimp
 98e:	8928                	0x8928
 990:	0182                	slli	gp,gp,0x0
 992:	1101                	addi	sp,sp,-32
 994:	3101                	addiw	sp,sp,-32
 996:	29000013          	li	zero,656
 99a:	0034                	addi	a3,sp,8
 99c:	0b3a0e03          	lb	t3,179(s4)
 9a0:	13490b3b          	0x13490b3b
 9a4:	0b1c                	addi	a5,sp,400
 9a6:	0000                	unimp
 9a8:	342a                	fld	fs0,168(sp)
 9aa:	0300                	addi	s0,sp,384
 9ac:	3a0e                	fld	fs4,224(sp)
 9ae:	49053b0b          	custom0	22,a0,a6,36
 9b2:	3c193f13          	sltiu	t5,s2,961
 9b6:	0019                	0x19
 9b8:	2b00                	fld	fs0,16(a4)
 9ba:	002e                	0x2e
 9bc:	193c193f 0e030e6e 	0xe030e6e193c193f
 9c4:	0b3a                	slli	s6,s6,0xe
 9c6:	00000b3b          	addw	s6,zero,zero
 9ca:	0100                	addi	s0,sp,128
 9cc:	0111                	addi	sp,sp,4
 9ce:	0e25                	addi	t3,t3,9
 9d0:	0e030b13          	addi	s6,t1,224
 9d4:	0111                	addi	sp,sp,4
 9d6:	0712                	slli	a4,a4,0x4
 9d8:	1710                	addi	a2,sp,928
 9da:	0000                	unimp
 9dc:	1602                	slli	a2,a2,0x20
 9de:	0300                	addi	s0,sp,384
 9e0:	3a0e                	fld	fs4,224(sp)
 9e2:	490b3b0b          	custom0	22,s6,a6,36
 9e6:	03000013          	li	zero,48
 9ea:	0024                	addi	s1,sp,8
 9ec:	0b3e0b0b          	custom0	22,28,19,5
 9f0:	00000e03          	lb	t3,0(zero)
 9f4:	2404                	fld	fs1,8(s0)
 9f6:	0b00                	addi	s0,sp,400
 9f8:	030b3e0b          	custom0	28,s6,a6,1
 9fc:	0008                	addi	a0,sp,0
 9fe:	0500                	addi	s0,sp,640
 a00:	0b0b000f          	0xb0b000f
 a04:	0000                	unimp
 a06:	0f06                	slli	t5,t5,0x1
 a08:	0b00                	addi	s0,sp,400
 a0a:	0013490b          	custom0	s2,6,1,0
 a0e:	0700                	addi	s0,sp,896
 a10:	0026                	0x26
 a12:	1349                	addi	t1,t1,-14
 a14:	0000                	unimp
 a16:	1608                	addi	a0,sp,800
 a18:	0300                	addi	s0,sp,384
 a1a:	3a0e                	fld	fs4,224(sp)
 a1c:	49053b0b          	custom0	22,a0,a6,36
 a20:	09000013          	li	zero,144
 a24:	0e030113          	addi	sp,t1,224
 a28:	0b3a0b0b          	custom0	22,20,19,5
 a2c:	13010b3b          	0x13010b3b
 a30:	0000                	unimp
 a32:	0d0a                	slli	s10,s10,0x2
 a34:	0300                	addi	s0,sp,384
 a36:	3a0e                	fld	fs4,224(sp)
 a38:	490b3b0b          	custom0	22,s6,a6,36
 a3c:	000b3813          	sltiu	a6,s6,0
 a40:	0b00                	addi	s0,sp,400
 a42:	0101                	addi	sp,sp,0
 a44:	1349                	addi	t1,t1,-14
 a46:	1301                	addi	t1,t1,-32
 a48:	0000                	unimp
 a4a:	210c                	fld	fa1,0(a0)
 a4c:	4900                	lw	s0,16(a0)
 a4e:	000b2f13          	slti	t5,s6,0
 a52:	0d00                	addi	s0,sp,656
 a54:	08030113          	addi	sp,t1,128
 a58:	0b3a0b0b          	custom0	22,20,19,5
 a5c:	13010b3b          	0x13010b3b
 a60:	0000                	unimp
 a62:	2e0e                	fld	ft8,192(sp)
 a64:	0301                	addi	t1,t1,0
 a66:	3a0e                	fld	fs4,224(sp)
 a68:	270b3b0b          	custom0	22,s6,a6,19
 a6c:	4919                	li	s2,6
 a6e:	010b2013          	slti	zero,s6,16
 a72:	0f000013          	li	zero,240
 a76:	0005                	0x5
 a78:	0b3a0803          	lb	a6,179(s4)
 a7c:	13490b3b          	0x13490b3b
 a80:	0000                	unimp
 a82:	3410                	fld	fa2,40(s0)
 a84:	0300                	addi	s0,sp,384
 a86:	3a08                	fld	fa0,48(a2)
 a88:	490b3b0b          	custom0	22,s6,a6,36
 a8c:	11000013          	li	zero,272
 a90:	012e                	slli	sp,sp,0xb
 a92:	0e03193f 0b3b0b3a 	0xb3b0b3a0e03193f
 a9a:	13491927          	0x13491927
 a9e:	0b20                	addi	s0,sp,408
 aa0:	1301                	addi	t1,t1,-32
 aa2:	0000                	unimp
 aa4:	0512                	slli	a0,a0,0x4
 aa6:	0300                	addi	s0,sp,384
 aa8:	3a0e                	fld	fs4,224(sp)
 aaa:	490b3b0b          	custom0	22,s6,a6,36
 aae:	13000013          	li	zero,304
 ab2:	0005                	0x5
 ab4:	0b3a0803          	lb	a6,179(s4)
 ab8:	1349053b          	0x1349053b
 abc:	0000                	unimp
 abe:	2e14                	fld	fa3,24(a2)
 ac0:	3f01                	addiw	t5,t5,-32
 ac2:	0319                	addi	t1,t1,6
 ac4:	3a0e                	fld	fs4,224(sp)
 ac6:	270b3b0b          	custom0	22,s6,a6,19
 aca:	4919                	li	s2,6
 acc:	12011113          	0x12011113
 ad0:	97184007          	0x97184007
 ad4:	1942                	slli	s2,s2,0x30
 ad6:	1301                	addi	t1,t1,-32
 ad8:	0000                	unimp
 ada:	0515                	addi	a0,a0,5
 adc:	0300                	addi	s0,sp,384
 ade:	3a08                	fld	fa0,48(a2)
 ae0:	490b3b0b          	custom0	22,s6,a6,36
 ae4:	00170213          	addi	tp,a4,1
 ae8:	1600                	addi	s0,sp,800
 aea:	8289                	srli	a3,a3,0x2
 aec:	0001                	nop
 aee:	0111                	addi	sp,sp,4
 af0:	1331                	addi	t1,t1,-20
 af2:	0000                	unimp
 af4:	03000517          	auipc	a0,0x3000
 af8:	3a0e                	fld	fs4,224(sp)
 afa:	490b3b0b          	custom0	22,s6,a6,36
 afe:	00170213          	addi	tp,a4,1
 b02:	1800                	addi	s0,sp,48
 b04:	0005                	0x5
 b06:	0b3a0e03          	lb	t3,179(s4)
 b0a:	13490b3b          	0x13490b3b
 b0e:	1802                	slli	a6,a6,0x20
 b10:	0000                	unimp
 b12:	1d19                	addi	s10,s10,-26
 b14:	3101                	addiw	sp,sp,-32
 b16:	12011113          	0x12011113
 b1a:	590b5807          	0x590b5807
 b1e:	1a00000b          	custom0	0,0,0,13
 b22:	0005                	0x5
 b24:	1331                	addi	t1,t1,-20
 b26:	1702                	slli	a4,a4,0x20
 b28:	0000                	unimp
 b2a:	11010b1b          	addiw	s6,sp,272
 b2e:	1201                	addi	tp,tp,-32
 b30:	1c000007          	0x1c000007
 b34:	0034                	addi	a3,sp,8
 b36:	1331                	addi	t1,t1,-20
 b38:	1802                	slli	a6,a6,0x20
 b3a:	0000                	unimp
 b3c:	051d                	addi	a0,a0,7
 b3e:	0300                	addi	s0,sp,384
 b40:	3a08                	fld	fa0,48(a2)
 b42:	490b3b0b          	custom0	22,s6,a6,36
 b46:	00180213          	addi	tp,a6,1
 b4a:	1e00                	addi	s0,sp,816
 b4c:	0026                	0x26
 b4e:	0000                	unimp
 b50:	2e1f 3101 1113      	0x111331012e1f
 b56:	1201                	addi	tp,tp,-32
 b58:	97184007          	0x97184007
 b5c:	1942                	slli	s2,s2,0x30
 b5e:	1301                	addi	t1,t1,-32
 b60:	0000                	unimp
 b62:	0520                	addi	s0,sp,648
 b64:	3100                	fld	fs0,32(a0)
 b66:	00180213          	addi	tp,a6,1
 b6a:	2100                	fld	fs0,0(a0)
 b6c:	002e                	0x2e
 b6e:	0e03193f 0b3b0b3a 	0xb3b0b3a0e03193f
 b76:	13491927          	0x13491927
 b7a:	0111                	addi	sp,sp,4
 b7c:	0712                	slli	a4,a4,0x4
 b7e:	1840                	addi	s0,sp,52
 b80:	00194297          	auipc	t0,0x194
 b84:	2200                	fld	fs0,0(a2)
 b86:	012e                	slli	sp,sp,0xb
 b88:	0e03193f 053b0b3a 	0x53b0b3a0e03193f
 b90:	13491927          	0x13491927
 b94:	0111                	addi	sp,sp,4
 b96:	0712                	slli	a4,a4,0x4
 b98:	1840                	addi	s0,sp,52
 b9a:	01194297          	auipc	t0,0x1194
 b9e:	23000013          	li	zero,560
 ba2:	0005                	0x5
 ba4:	0b3a0803          	lb	a6,179(s4)
 ba8:	1349053b          	0x1349053b
 bac:	1702                	slli	a4,a4,0x20
 bae:	0000                	unimp
 bb0:	0524                	addi	s1,sp,648
 bb2:	0300                	addi	s0,sp,384
 bb4:	3a0e                	fld	fs4,224(sp)
 bb6:	49053b0b          	custom0	22,a0,a6,36
 bba:	00170213          	addi	tp,a4,1
 bbe:	2500                	fld	fs0,8(a0)
 bc0:	0034                	addi	a3,sp,8
 bc2:	0b3a0803          	lb	a6,179(s4)
 bc6:	1349053b          	0x1349053b
 bca:	1802                	slli	a6,a6,0x20
 bcc:	0000                	unimp
 bce:	3426                	fld	fs0,104(sp)
 bd0:	0300                	addi	s0,sp,384
 bd2:	3a08                	fld	fa0,48(a2)
 bd4:	49053b0b          	custom0	22,a0,a6,36
 bd8:	27000013          	li	zero,624
 bdc:	011d                	addi	sp,sp,7
 bde:	1331                	addi	t1,t1,-20
 be0:	0152                	slli	sp,sp,0x14
 be2:	1755                	addi	a4,a4,-11
 be4:	0b58                	addi	a4,sp,404
 be6:	0559                	addi	a0,a0,22
 be8:	0000                	unimp
 bea:	3428                	fld	fa0,104(s0)
 bec:	0300                	addi	s0,sp,384
 bee:	3a0e                	fld	fs4,224(sp)
 bf0:	49053b0b          	custom0	22,a0,a6,36
 bf4:	00170213          	addi	tp,a4,1
 bf8:	2900                	fld	fs0,16(a0)
 bfa:	011d                	addi	sp,sp,7
 bfc:	1331                	addi	t1,t1,-20
 bfe:	0111                	addi	sp,sp,4
 c00:	0712                	slli	a4,a4,0x4
 c02:	0b58                	addi	a4,sp,404
 c04:	0559                	addi	a0,a0,22
 c06:	1301                	addi	t1,t1,-32
 c08:	0000                	unimp
 c0a:	1d2a                	slli	s10,s10,0x2a
 c0c:	3101                	addiw	sp,sp,-32
 c0e:	12011113          	0x12011113
 c12:	590b5807          	0x590b5807
 c16:	0005                	0x5
 c18:	2b00                	fld	fs0,16(a4)
 c1a:	0005                	0x5
 c1c:	0b3a0e03          	lb	t3,179(s4)
 c20:	1349053b          	0x1349053b
 c24:	1802                	slli	a6,a6,0x20
 c26:	0000                	unimp
 c28:	342c                	fld	fa1,104(s0)
 c2a:	0300                	addi	s0,sp,384
 c2c:	3a0e                	fld	fs4,224(sp)
 c2e:	49053b0b          	custom0	22,a0,a6,36
 c32:	3c193f13          	sltiu	t5,s2,961
 c36:	0019                	0x19
 c38:	2d00                	fld	fs0,24(a0)
 c3a:	0034                	addi	a3,sp,8
 c3c:	0b3a0e03          	lb	t3,179(s4)
 c40:	1349053b          	0x1349053b
 c44:	1802                	slli	a6,a6,0x20
 c46:	0000                	unimp
 c48:	212e                	fld	ft2,200(sp)
 c4a:	0000                	unimp
 c4c:	2f00                	fld	fs0,24(a4)
 c4e:	012e                	slli	sp,sp,0xb
 c50:	0e03193f 0b3b0b3a 	0xb3b0b3a0e03193f
 c58:	01871927          	0x1871927
 c5c:	1119                	addi	sp,sp,-26
 c5e:	1201                	addi	tp,tp,-32
 c60:	97184007          	0x97184007
 c64:	1942                	slli	s2,s2,0x30
 c66:	1301                	addi	t1,t1,-32
 c68:	0000                	unimp
 c6a:	0530                	addi	a2,sp,648
 c6c:	3100                	fld	fs0,32(a0)
 c6e:	000b1c13          	slli	s8,s6,0x0
 c72:	3100                	fld	fs0,32(a0)
 c74:	002e                	0x2e
 c76:	193c193f 0e030e6e 	0xe030e6e193c193f
 c7e:	0b3a                	slli	s6,s6,0xe
 c80:	00000b3b          	addw	s6,zero,zero
 c84:	0100                	addi	s0,sp,128
 c86:	0111                	addi	sp,sp,4
 c88:	0e25                	addi	t3,t3,9
 c8a:	0e030b13          	addi	s6,t1,224
 c8e:	0111                	addi	sp,sp,4
 c90:	0712                	slli	a4,a4,0x4
 c92:	1710                	addi	a2,sp,928
 c94:	0000                	unimp
 c96:	2402                	fld	fs0,0(sp)
 c98:	0b00                	addi	s0,sp,400
 c9a:	030b3e0b          	custom0	28,s6,a6,1
 c9e:	0008                	addi	a0,sp,0
 ca0:	0300                	addi	s0,sp,384
 ca2:	0024                	addi	s1,sp,8
 ca4:	0b3e0b0b          	custom0	22,28,19,5
 ca8:	00000e03          	lb	t3,0(zero)
 cac:	1604                	addi	s1,sp,800
 cae:	0300                	addi	s0,sp,384
 cb0:	3a0e                	fld	fs4,224(sp)
 cb2:	490b3b0b          	custom0	22,s6,a6,36
 cb6:	05000013          	li	zero,80
 cba:	0016                	0x16
 cbc:	0b3a0e03          	lb	t3,179(s4)
 cc0:	1349053b          	0x1349053b
 cc4:	0000                	unimp
 cc6:	1706                	slli	a4,a4,0x21
 cc8:	0b01                	addi	s6,s6,0
 cca:	3b0b3a0b          	custom0	20,s6,a6,29
 cce:	0013010b          	custom0	2,6,1,0
 cd2:	0700                	addi	s0,sp,896
 cd4:	000d                	0xd
 cd6:	0b3a0e03          	lb	t3,179(s4)
 cda:	13490b3b          	0x13490b3b
 cde:	0000                	unimp
 ce0:	0108                	addi	a0,sp,128
 ce2:	4901                	li	s2,0
 ce4:	00130113          	addi	sp,t1,1
 ce8:	0900                	addi	s0,sp,144
 cea:	0021                	0x21
 cec:	1349                	addi	t1,t1,-14
 cee:	00000b2f          	0xb2f
 cf2:	130a                	slli	t1,t1,0x22
 cf4:	0b01                	addi	s6,s6,0
 cf6:	3b0b3a0b          	custom0	20,s6,a6,29
 cfa:	0013010b          	custom0	2,6,1,0
 cfe:	0b00                	addi	s0,sp,400
 d00:	000d                	0xd
 d02:	0b3a0e03          	lb	t3,179(s4)
 d06:	13490b3b          	0x13490b3b
 d0a:	0b38                	addi	a4,sp,408
 d0c:	0000                	unimp
 d0e:	0f0c                	addi	a1,sp,912
 d10:	0b00                	addi	s0,sp,400
 d12:	0d00000b          	custom0	0,0,16,6
 d16:	0e030113          	addi	sp,t1,224
 d1a:	0b3a0b0b          	custom0	22,20,19,5
 d1e:	13010b3b          	0x13010b3b
 d22:	0000                	unimp
 d24:	0d0e                	slli	s10,s10,0x3
 d26:	0300                	addi	s0,sp,384
 d28:	3a08                	fld	fa0,48(a2)
 d2a:	490b3b0b          	custom0	22,s6,a6,36
 d2e:	000b3813          	sltiu	a6,s6,0
 d32:	0f00                	addi	s0,sp,912
 d34:	0b0b000f          	0xb0b000f
 d38:	1349                	addi	t1,t1,-14
 d3a:	0000                	unimp
 d3c:	1310                	addi	a2,sp,416
 d3e:	0301                	addi	t1,t1,0
 d40:	0b0e                	slli	s6,s6,0x3
 d42:	3a05                	addiw	s4,s4,-31
 d44:	010b3b0b          	custom0	22,s6,a6,0
 d48:	11000013          	li	zero,272
 d4c:	000d                	0xd
 d4e:	0b3a0e03          	lb	t3,179(s4)
 d52:	13490b3b          	0x13490b3b
 d56:	0538                	addi	a4,sp,648
 d58:	0000                	unimp
 d5a:	1512                	slli	a0,a0,0x24
 d5c:	2700                	fld	fs0,8(a4)
 d5e:	0019                	0x19
 d60:	1300                	addi	s0,sp,416
 d62:	0115                	addi	sp,sp,5
 d64:	13491927          	0x13491927
 d68:	1301                	addi	t1,t1,-32
 d6a:	0000                	unimp
 d6c:	0514                	addi	a3,sp,640
 d6e:	4900                	lw	s0,16(a0)
 d70:	15000013          	li	zero,336
 d74:	0e030113          	addi	sp,t1,224
 d78:	0b3a050b          	custom0	10,20,19,5
 d7c:	1301053b          	0x1301053b
 d80:	0000                	unimp
 d82:	0d16                	slli	s10,s10,0x5
 d84:	0300                	addi	s0,sp,384
 d86:	3a0e                	fld	fs4,224(sp)
 d88:	49053b0b          	custom0	22,a0,a6,36
 d8c:	000b3813          	sltiu	a6,s6,0
 d90:	1700                	addi	s0,sp,928
 d92:	000d                	0xd
 d94:	0b3a0e03          	lb	t3,179(s4)
 d98:	1349053b          	0x1349053b
 d9c:	0538                	addi	a4,sp,648
 d9e:	0000                	unimp
 da0:	2618                	fld	fa4,8(a2)
 da2:	4900                	lw	s0,16(a0)
 da4:	19000013          	li	zero,400
 da8:	0e030113          	addi	sp,t1,224
 dac:	0b3a0b0b          	custom0	22,20,19,5
 db0:	1301053b          	0x1301053b
 db4:	0000                	unimp
 db6:	131a                	slli	t1,t1,0x26
 db8:	0b01                	addi	s6,s6,0
 dba:	3b0b3a0b          	custom0	20,s6,a6,29
 dbe:	0105                	addi	sp,sp,1
 dc0:	1b000013          	li	zero,432
 dc4:	050b0113          	addi	sp,s6,80
 dc8:	0b3a                	slli	s6,s6,0xe
 dca:	1301053b          	0x1301053b
 dce:	0000                	unimp
 dd0:	171c                	addi	a5,sp,928
 dd2:	0b01                	addi	s6,s6,0
 dd4:	3a05                	addiw	s4,s4,-31
 dd6:	01053b0b          	custom0	22,a0,a6,0
 dda:	1d000013          	li	zero,464
 dde:	000d                	0xd
 de0:	0b3a0e03          	lb	t3,179(s4)
 de4:	1349053b          	0x1349053b
 de8:	0000                	unimp
 dea:	151e                	slli	a0,a0,0x27
 dec:	2701                	sext.w	a4,a4
 dee:	0119                	addi	sp,sp,6
 df0:	1f000013          	li	zero,496
 df4:	002e                	0x2e
 df6:	0e03193f 0b3b0b3a 	0xb3b0b3a0e03193f
 dfe:	13491927          	0x13491927
 e02:	0111                	addi	sp,sp,4
 e04:	0712                	slli	a4,a4,0x4
 e06:	1840                	addi	s0,sp,52
 e08:	00194297          	auipc	t0,0x194
 e0c:	2000                	fld	fs0,0(s0)
 e0e:	0034                	addi	a3,sp,8
 e10:	0b3a0e03          	lb	t3,179(s4)
 e14:	1349053b          	0x1349053b
 e18:	193c193f 4a000000 	0x193c193f

Disassembly of section .debug_loc:

0000000000000000 <.debug_loc>:
	...
       8:	0010                	addi	a2,sp,0
       a:	0000                	unimp
       c:	0000                	unimp
       e:	0000                	unimp
      10:	0001                	nop
      12:	105a                	0x105a
      14:	0000                	unimp
      16:	0000                	unimp
      18:	0000                	unimp
      1a:	1300                	addi	s0,sp,416
      1c:	0000                	unimp
      1e:	0000                	unimp
      20:	0000                	unimp
      22:	0100                	addi	s0,sp,128
      24:	5b00                	lw	s0,48(a4)
      26:	00000013          	nop
      2a:	0000                	unimp
      2c:	0000                	unimp
      2e:	0014                	addi	a3,sp,0
      30:	0000                	unimp
      32:	0000                	unimp
      34:	0000                	unimp
      36:	0004                	addi	s1,sp,0
      38:	9f5a01f3          	0x9f5a01f3
	...
      54:	00000017          	auipc	zero,0x0
      58:	0000                	unimp
      5a:	0000                	unimp
      5c:	0001                	nop
      5e:	175a                	slli	a4,a4,0x36
      60:	0000                	unimp
      62:	0000                	unimp
      64:	0000                	unimp
      66:	3000                	fld	fs0,32(s0)
      68:	0000                	unimp
      6a:	0000                	unimp
      6c:	0000                	unimp
      6e:	0100                	addi	s0,sp,128
      70:	5800                	lw	s0,48(s0)
	...
      82:	002c                	addi	a1,sp,8
      84:	0000                	unimp
      86:	0000                	unimp
      88:	0000                	unimp
      8a:	0034                	addi	a3,sp,8
      8c:	0000                	unimp
      8e:	0000                	unimp
      90:	0000                	unimp
      92:	0001                	nop
      94:	0058                	addi	a4,sp,4
	...
      a2:	0000                	unimp
      a4:	2c00                	fld	fs0,24(s0)
      a6:	0000                	unimp
      a8:	0000                	unimp
      aa:	0000                	unimp
      ac:	3c00                	fld	fs0,56(s0)
      ae:	0000                	unimp
      b0:	0000                	unimp
      b2:	0000                	unimp
      b4:	0100                	addi	s0,sp,128
      b6:	5800                	lw	s0,48(s0)
      b8:	003c                	addi	a5,sp,8
      ba:	0000                	unimp
      bc:	0000                	unimp
      be:	0000                	unimp
      c0:	0044                	addi	s1,sp,4
      c2:	0000                	unimp
      c4:	0000                	unimp
      c6:	0000                	unimp
      c8:	01780003          	lb	zero,23(a6)
      cc:	449f 0000 0000      	0x449f
      d2:	0000                	unimp
      d4:	5000                	lw	s0,32(s0)
      d6:	0000                	unimp
      d8:	0000                	unimp
      da:	0000                	unimp
      dc:	0100                	addi	s0,sp,128
      de:	5800                	lw	s0,48(s0)
	...
      f0:	002c                	addi	a1,sp,8
      f2:	0000                	unimp
      f4:	0000                	unimp
      f6:	0000                	unimp
      f8:	005c                	addi	a5,sp,4
      fa:	0000                	unimp
      fc:	0000                	unimp
      fe:	0000                	unimp
     100:	0001                	nop
     102:	6862                	ld	a6,24(sp)
     104:	0000                	unimp
     106:	0000                	unimp
     108:	0000                	unimp
     10a:	9800                	0x9800
     10c:	0000                	unimp
     10e:	0000                	unimp
     110:	0000                	unimp
     112:	0100                	addi	s0,sp,128
     114:	6200                	ld	s0,0(a2)
	...
     126:	002c                	addi	a1,sp,8
     128:	0000                	unimp
     12a:	0000                	unimp
     12c:	0000                	unimp
     12e:	0038                	addi	a4,sp,8
     130:	0000                	unimp
     132:	0000                	unimp
     134:	0000                	unimp
     136:	0002                	0x2
     138:	9f30                	0x9f30
     13a:	0038                	addi	a4,sp,8
     13c:	0000                	unimp
     13e:	0000                	unimp
     140:	0000                	unimp
     142:	0040                	addi	s0,sp,4
     144:	0000                	unimp
     146:	0000                	unimp
     148:	0000                	unimp
     14a:	0001                	nop
     14c:	4059                	0x4059
     14e:	0000                	unimp
     150:	0000                	unimp
     152:	0000                	unimp
     154:	4800                	lw	s0,16(s0)
     156:	0000                	unimp
     158:	0000                	unimp
     15a:	0000                	unimp
     15c:	0300                	addi	s0,sp,384
     15e:	7900                	ld	s0,48(a0)
     160:	9f7f                	0x9f7f
     162:	0048                	addi	a0,sp,4
     164:	0000                	unimp
     166:	0000                	unimp
     168:	0000                	unimp
     16a:	004c                	addi	a1,sp,4
     16c:	0000                	unimp
     16e:	0000                	unimp
     170:	0000                	unimp
     172:	0001                	nop
     174:	6859                	lui	a6,0x16
     176:	0000                	unimp
     178:	0000                	unimp
     17a:	0000                	unimp
     17c:	7400                	ld	s0,40(s0)
     17e:	0000                	unimp
     180:	0000                	unimp
     182:	0000                	unimp
     184:	0200                	addi	s0,sp,256
     186:	3000                	fld	fs0,32(s0)
     188:	749f 0000 0000      	0x749f
     18e:	0000                	unimp
     190:	7c00                	ld	s0,56(s0)
     192:	0000                	unimp
     194:	0000                	unimp
     196:	0000                	unimp
     198:	0100                	addi	s0,sp,128
     19a:	5900                	lw	s0,48(a0)
     19c:	007c                	addi	a5,sp,12
     19e:	0000                	unimp
     1a0:	0000                	unimp
     1a2:	0000                	unimp
     1a4:	0084                	addi	s1,sp,64
     1a6:	0000                	unimp
     1a8:	0000                	unimp
     1aa:	0000                	unimp
     1ac:	7f790003          	lb	zero,2039(s2) # 27f7 <_ftext-0xd809>
     1b0:	849f 0000 0000      	0x849f
     1b6:	0000                	unimp
     1b8:	8800                	0x8800
     1ba:	0000                	unimp
     1bc:	0000                	unimp
     1be:	0000                	unimp
     1c0:	0100                	addi	s0,sp,128
     1c2:	5900                	lw	s0,48(a0)
	...
     1dc:	0018                	addi	a4,sp,0
     1de:	0000                	unimp
     1e0:	0000                	unimp
     1e2:	0000                	unimp
     1e4:	0001                	nop
     1e6:	185a                	slli	a6,a6,0x36
     1e8:	0000                	unimp
     1ea:	0000                	unimp
     1ec:	0000                	unimp
     1ee:	b000                	fsd	fs0,32(s0)
     1f0:	0000                	unimp
     1f2:	0000                	unimp
     1f4:	0000                	unimp
     1f6:	0100                	addi	s0,sp,128
     1f8:	5900                	lw	s0,48(a0)
     1fa:	00b0                	addi	a2,sp,72
     1fc:	0000                	unimp
     1fe:	0000                	unimp
     200:	0000                	unimp
     202:	00c4                	addi	s1,sp,68
     204:	0000                	unimp
     206:	0000                	unimp
     208:	0000                	unimp
     20a:	0004                	addi	s1,sp,0
     20c:	9f5a01f3          	0x9f5a01f3
     210:	00c4                	addi	s1,sp,68
     212:	0000                	unimp
     214:	0000                	unimp
     216:	0000                	unimp
     218:	0114                	addi	a3,sp,128
     21a:	0000                	unimp
     21c:	0000                	unimp
     21e:	0000                	unimp
     220:	0001                	nop
     222:	0059                	0x59
	...
     238:	0000                	unimp
     23a:	4400                	lw	s0,8(s0)
     23c:	0000                	unimp
     23e:	0000                	unimp
     240:	0000                	unimp
     242:	0100                	addi	s0,sp,128
     244:	5b00                	lw	s0,48(a4)
     246:	0044                	addi	s1,sp,4
     248:	0000                	unimp
     24a:	0000                	unimp
     24c:	0000                	unimp
     24e:	00b4                	addi	a3,sp,72
     250:	0000                	unimp
     252:	0000                	unimp
     254:	0000                	unimp
     256:	0001                	nop
     258:	b462                	fsd	fs8,40(sp)
     25a:	0000                	unimp
     25c:	0000                	unimp
     25e:	0000                	unimp
     260:	c400                	sw	s0,8(s0)
     262:	0000                	unimp
     264:	0000                	unimp
     266:	0000                	unimp
     268:	0400                	addi	s0,sp,512
     26a:	f300                	sd	s0,32(a4)
     26c:	5b01                	li	s6,-32
     26e:	c49f 0000 0000      	0xc49f
     274:	0000                	unimp
     276:	0000                	unimp
     278:	0001                	nop
     27a:	0000                	unimp
     27c:	0000                	unimp
     27e:	0100                	addi	s0,sp,128
     280:	6200                	ld	s0,0(a2)
     282:	0100                	addi	s0,sp,128
     284:	0000                	unimp
     286:	0000                	unimp
     288:	0000                	unimp
     28a:	010c                	addi	a1,sp,128
     28c:	0000                	unimp
     28e:	0000                	unimp
     290:	0000                	unimp
     292:	0001                	nop
     294:	00010c5b          	custom2	24,2,0,0
     298:	0000                	unimp
     29a:	0000                	unimp
     29c:	1400                	addi	s0,sp,544
     29e:	0001                	nop
     2a0:	0000                	unimp
     2a2:	0000                	unimp
     2a4:	0100                	addi	s0,sp,128
     2a6:	6200                	ld	s0,0(a2)
	...
     2c0:	005f 0000 0000      	0x5f
     2c6:	0000                	unimp
     2c8:	0001                	nop
     2ca:	5f5c                	lw	a5,60(a4)
     2cc:	0000                	unimp
     2ce:	0000                	unimp
     2d0:	0000                	unimp
     2d2:	bc00                	fsd	fs0,56(s0)
     2d4:	0000                	unimp
     2d6:	0000                	unimp
     2d8:	0000                	unimp
     2da:	0100                	addi	s0,sp,128
     2dc:	6400                	ld	s0,8(s0)
     2de:	00bc                	addi	a5,sp,72
     2e0:	0000                	unimp
     2e2:	0000                	unimp
     2e4:	0000                	unimp
     2e6:	00c4                	addi	s1,sp,68
     2e8:	0000                	unimp
     2ea:	0000                	unimp
     2ec:	0000                	unimp
     2ee:	0004                	addi	s1,sp,0
     2f0:	9f5c01f3          	0x9f5c01f3
     2f4:	00c4                	addi	s1,sp,68
     2f6:	0000                	unimp
     2f8:	0000                	unimp
     2fa:	0000                	unimp
     2fc:	0100                	addi	s0,sp,128
     2fe:	0000                	unimp
     300:	0000                	unimp
     302:	0000                	unimp
     304:	0001                	nop
     306:	0064                	addi	s1,sp,12
     308:	0001                	nop
     30a:	0000                	unimp
     30c:	0000                	unimp
     30e:	0c00                	addi	s0,sp,528
     310:	0001                	nop
     312:	0000                	unimp
     314:	0000                	unimp
     316:	0100                	addi	s0,sp,128
     318:	5c00                	lw	s0,56(s0)
     31a:	010c                	addi	a1,sp,128
     31c:	0000                	unimp
     31e:	0000                	unimp
     320:	0000                	unimp
     322:	0114                	addi	a3,sp,128
     324:	0000                	unimp
     326:	0000                	unimp
     328:	0000                	unimp
     32a:	0001                	nop
     32c:	0064                	addi	s1,sp,12
	...
     342:	0000                	unimp
     344:	5f00                	lw	s0,56(a4)
     346:	0000                	unimp
     348:	0000                	unimp
     34a:	0000                	unimp
     34c:	0100                	addi	s0,sp,128
     34e:	5d00                	lw	s0,56(a0)
     350:	005f 0000 0000      	0x5f
     356:	0000                	unimp
     358:	00b8                	addi	a4,sp,72
     35a:	0000                	unimp
     35c:	0000                	unimp
     35e:	0000                	unimp
     360:	0001                	nop
     362:	0000b863          	0xb863
     366:	0000                	unimp
     368:	0000                	unimp
     36a:	c400                	sw	s0,8(s0)
     36c:	0000                	unimp
     36e:	0000                	unimp
     370:	0000                	unimp
     372:	0400                	addi	s0,sp,512
     374:	f300                	sd	s0,32(a4)
     376:	5d01                	li	s10,-32
     378:	c49f 0000 0000      	0xc49f
     37e:	0000                	unimp
     380:	0000                	unimp
     382:	0001                	nop
     384:	0000                	unimp
     386:	0000                	unimp
     388:	0100                	addi	s0,sp,128
     38a:	6300                	ld	s0,0(a4)
     38c:	0100                	addi	s0,sp,128
     38e:	0000                	unimp
     390:	0000                	unimp
     392:	0000                	unimp
     394:	010c                	addi	a1,sp,128
     396:	0000                	unimp
     398:	0000                	unimp
     39a:	0000                	unimp
     39c:	0001                	nop
     39e:	0c5d                	addi	s8,s8,23
     3a0:	0001                	nop
     3a2:	0000                	unimp
     3a4:	0000                	unimp
     3a6:	1400                	addi	s0,sp,544
     3a8:	0001                	nop
     3aa:	0000                	unimp
     3ac:	0000                	unimp
     3ae:	0100                	addi	s0,sp,128
     3b0:	6300                	ld	s0,0(a4)
	...
     3c2:	00c4                	addi	s1,sp,68
     3c4:	0000                	unimp
     3c6:	0000                	unimp
     3c8:	0000                	unimp
     3ca:	0100                	addi	s0,sp,128
     3cc:	0000                	unimp
     3ce:	0000                	unimp
     3d0:	0000                	unimp
     3d2:	0004                	addi	s1,sp,0
     3d4:	907a                	0x907a
     3d6:	9f02                	jalr	t5
	...
     3e8:	0018                	addi	a4,sp,0
     3ea:	0000                	unimp
     3ec:	0000                	unimp
     3ee:	0000                	unimp
     3f0:	0058                	addi	a4,sp,4
     3f2:	0000                	unimp
     3f4:	0000                	unimp
     3f6:	0000                	unimp
     3f8:	0001                	nop
     3fa:	605a                	0x605a
     3fc:	0000                	unimp
     3fe:	0000                	unimp
     400:	0000                	unimp
     402:	9c00                	0x9c00
     404:	0000                	unimp
     406:	0000                	unimp
     408:	0000                	unimp
     40a:	0100                	addi	s0,sp,128
     40c:	5a00                	lw	s0,48(a2)
     40e:	00c4                	addi	s1,sp,68
     410:	0000                	unimp
     412:	0000                	unimp
     414:	0000                	unimp
     416:	0110                	addi	a2,sp,128
     418:	0000                	unimp
     41a:	0000                	unimp
     41c:	0000                	unimp
     41e:	0001                	nop
     420:	005a                	0x5a
	...
     436:	0000                	unimp
     438:	5400                	lw	s0,40(s0)
     43a:	0000                	unimp
     43c:	0000                	unimp
     43e:	0000                	unimp
     440:	0100                	addi	s0,sp,128
     442:	5a00                	lw	s0,48(a2)
     444:	0054                	addi	a3,sp,4
     446:	0000                	unimp
     448:	0000                	unimp
     44a:	0000                	unimp
     44c:	0134                	addi	a3,sp,136
     44e:	0000                	unimp
     450:	0000                	unimp
     452:	0000                	unimp
     454:	0001                	nop
     456:	3462                	fld	fs0,56(sp)
     458:	0001                	nop
     45a:	0000                	unimp
     45c:	0000                	unimp
     45e:	5c00                	lw	s0,56(s0)
     460:	0001                	nop
     462:	0000                	unimp
     464:	0000                	unimp
     466:	0400                	addi	s0,sp,512
     468:	f300                	sd	s0,32(a4)
     46a:	5a01                	li	s4,-32
     46c:	5c9f 0001 0000      	0x15c9f
     472:	0000                	unimp
     474:	9400                	0x9400
     476:	0001                	nop
     478:	0000                	unimp
     47a:	0000                	unimp
     47c:	0100                	addi	s0,sp,128
     47e:	6200                	ld	s0,0(a2)
	...
     498:	0054                	addi	a3,sp,4
     49a:	0000                	unimp
     49c:	0000                	unimp
     49e:	0000                	unimp
     4a0:	0001                	nop
     4a2:	0000545b          	0x545b
     4a6:	0000                	unimp
     4a8:	0000                	unimp
     4aa:	4800                	lw	s0,16(s0)
     4ac:	0001                	nop
     4ae:	0000                	unimp
     4b0:	0000                	unimp
     4b2:	0100                	addi	s0,sp,128
     4b4:	6700                	ld	s0,8(a4)
     4b6:	0148                	addi	a0,sp,132
     4b8:	0000                	unimp
     4ba:	0000                	unimp
     4bc:	0000                	unimp
     4be:	015c                	addi	a5,sp,132
     4c0:	0000                	unimp
     4c2:	0000                	unimp
     4c4:	0000                	unimp
     4c6:	0004                	addi	s1,sp,0
     4c8:	9f5b01f3          	0x9f5b01f3
     4cc:	015c                	addi	a5,sp,132
     4ce:	0000                	unimp
     4d0:	0000                	unimp
     4d2:	0000                	unimp
     4d4:	0194                	addi	a3,sp,192
     4d6:	0000                	unimp
     4d8:	0000                	unimp
     4da:	0000                	unimp
     4dc:	0001                	nop
     4de:	00000067          	jr	zero
	...
     4ee:	5800                	lw	s0,48(s0)
     4f0:	0000                	unimp
     4f2:	0000                	unimp
     4f4:	0000                	unimp
     4f6:	1c00                	addi	s0,sp,560
     4f8:	0001                	nop
     4fa:	0000                	unimp
     4fc:	0000                	unimp
     4fe:	0100                	addi	s0,sp,128
     500:	6600                	ld	s0,8(a2)
     502:	011c                	addi	a5,sp,128
     504:	0000                	unimp
     506:	0000                	unimp
     508:	0000                	unimp
     50a:	0124                	addi	s1,sp,136
     50c:	0000                	unimp
     50e:	0000                	unimp
     510:	0000                	unimp
     512:	0002                	0x2
     514:	008a                	slli	ra,ra,0x2
     516:	0124                	addi	s1,sp,136
     518:	0000                	unimp
     51a:	0000                	unimp
     51c:	0000                	unimp
     51e:	0144                	addi	s1,sp,132
     520:	0000                	unimp
     522:	0000                	unimp
     524:	0000                	unimp
     526:	0001                	nop
     528:	5c66                	lw	s8,120(sp)
     52a:	0001                	nop
     52c:	0000                	unimp
     52e:	0000                	unimp
     530:	8000                	0x8000
     532:	0001                	nop
     534:	0000                	unimp
     536:	0000                	unimp
     538:	0100                	addi	s0,sp,128
     53a:	6600                	ld	s0,8(a2)
     53c:	0180                	addi	s0,sp,192
     53e:	0000                	unimp
     540:	0000                	unimp
     542:	0000                	unimp
     544:	0184                	addi	s1,sp,192
     546:	0000                	unimp
     548:	0000                	unimp
     54a:	0000                	unimp
     54c:	0002                	0x2
     54e:	007f                	0x7f
     550:	0184                	addi	s1,sp,192
     552:	0000                	unimp
     554:	0000                	unimp
     556:	0000                	unimp
     558:	018c                	addi	a1,sp,192
     55a:	0000                	unimp
     55c:	0000                	unimp
     55e:	0000                	unimp
     560:	0001                	nop
     562:	8c5f 0001 0000      	0x18c5f
     568:	0000                	unimp
     56a:	9400                	0x9400
     56c:	0001                	nop
     56e:	0000                	unimp
     570:	0000                	unimp
     572:	0100                	addi	s0,sp,128
     574:	6600                	ld	s0,8(a2)
	...
     586:	0060                	addi	s0,sp,12
     588:	0000                	unimp
     58a:	0000                	unimp
     58c:	0000                	unimp
     58e:	0124                	addi	s1,sp,136
     590:	0000                	unimp
     592:	0000                	unimp
     594:	0000                	unimp
     596:	0001                	nop
     598:	5c6a                	lw	s8,184(sp)
     59a:	0001                	nop
     59c:	0000                	unimp
     59e:	0000                	unimp
     5a0:	9400                	0x9400
     5a2:	0001                	nop
     5a4:	0000                	unimp
     5a6:	0000                	unimp
     5a8:	0100                	addi	s0,sp,128
     5aa:	6a00                	ld	s0,16(a2)
	...
     5bc:	0060                	addi	s0,sp,12
     5be:	0000                	unimp
     5c0:	0000                	unimp
     5c2:	0000                	unimp
     5c4:	011c                	addi	a5,sp,128
     5c6:	0000                	unimp
     5c8:	0000                	unimp
     5ca:	0000                	unimp
     5cc:	0004                	addi	s1,sp,0
     5ce:	9086                	add	ra,ra,ra
     5d0:	9f02                	jalr	t5
     5d2:	011c                	addi	a5,sp,128
     5d4:	0000                	unimp
     5d6:	0000                	unimp
     5d8:	0000                	unimp
     5da:	0124                	addi	s1,sp,136
     5dc:	0000                	unimp
     5de:	0000                	unimp
     5e0:	0000                	unimp
     5e2:	008a0007          	0x8a0007
     5e6:	2306                	fld	ft6,64(sp)
     5e8:	0290                	addi	a2,sp,320
     5ea:	5c9f 0001 0000      	0x15c9f
     5f0:	0000                	unimp
     5f2:	8000                	0x8000
     5f4:	0001                	nop
     5f6:	0000                	unimp
     5f8:	0000                	unimp
     5fa:	0400                	addi	s0,sp,512
     5fc:	8600                	0x8600
     5fe:	0290                	addi	a2,sp,320
     600:	809f 0001 0000      	0x1809f
     606:	0000                	unimp
     608:	8c00                	0x8c00
     60a:	0001                	nop
     60c:	0000                	unimp
     60e:	0000                	unimp
     610:	0400                	addi	s0,sp,512
     612:	7f00                	ld	s0,56(a4)
     614:	0290                	addi	a2,sp,320
     616:	8c9f 0001 0000      	0x18c9f
     61c:	0000                	unimp
     61e:	9400                	0x9400
     620:	0001                	nop
     622:	0000                	unimp
     624:	0000                	unimp
     626:	0400                	addi	s0,sp,512
     628:	8600                	0x8600
     62a:	0290                	addi	a2,sp,320
     62c:	009f 0000 0000      	0x9f
	...
     63a:	0000                	unimp
     63c:	6800                	ld	s0,16(s0)
     63e:	0000                	unimp
     640:	0000                	unimp
     642:	0000                	unimp
     644:	2400                	fld	fs0,8(s0)
     646:	0001                	nop
     648:	0000                	unimp
     64a:	0000                	unimp
     64c:	0100                	addi	s0,sp,128
     64e:	5800                	lw	s0,48(s0)
     650:	015c                	addi	a5,sp,132
     652:	0000                	unimp
     654:	0000                	unimp
     656:	0000                	unimp
     658:	0194                	addi	a3,sp,192
     65a:	0000                	unimp
     65c:	0000                	unimp
     65e:	0000                	unimp
     660:	0001                	nop
     662:	0058                	addi	a4,sp,4
	...
     670:	0000                	unimp
     672:	7000                	ld	s0,32(s0)
     674:	0000                	unimp
     676:	0000                	unimp
     678:	0000                	unimp
     67a:	8800                	0x8800
     67c:	0000                	unimp
     67e:	0000                	unimp
     680:	0000                	unimp
     682:	0500                	addi	s0,sp,640
     684:	3100                	fld	fs0,32(a0)
     686:	0078                	addi	a4,sp,12
     688:	9f24                	0x9f24
     68a:	0088                	addi	a0,sp,64
     68c:	0000                	unimp
     68e:	0000                	unimp
     690:	0000                	unimp
     692:	008c                	addi	a1,sp,64
     694:	0000                	unimp
     696:	0000                	unimp
     698:	0000                	unimp
     69a:	0005                	0x5
     69c:	7831                	lui	a6,0xfffec
     69e:	2401                	sext.w	s0,s0
     6a0:	8c9f 0000 0000      	0x8c9f
     6a6:	0000                	unimp
     6a8:	f400                	sd	s0,40(s0)
     6aa:	0000                	unimp
     6ac:	0000                	unimp
     6ae:	0000                	unimp
     6b0:	0500                	addi	s0,sp,640
     6b2:	3100                	fld	fs0,32(a0)
     6b4:	0078                	addi	a4,sp,12
     6b6:	9f24                	0x9f24
     6b8:	00f4                	addi	a3,sp,76
     6ba:	0000                	unimp
     6bc:	0000                	unimp
     6be:	0000                	unimp
     6c0:	00f8                	addi	a4,sp,76
     6c2:	0000                	unimp
     6c4:	0000                	unimp
     6c6:	0000                	unimp
     6c8:	0005                	0x5
     6ca:	7831                	lui	a6,0xfffec
     6cc:	2401                	sext.w	s0,s0
     6ce:	5c9f 0001 0000      	0x15c9f
     6d4:	0000                	unimp
     6d6:	7800                	ld	s0,48(s0)
     6d8:	0001                	nop
     6da:	0000                	unimp
     6dc:	0000                	unimp
     6de:	0500                	addi	s0,sp,640
     6e0:	3100                	fld	fs0,32(a0)
     6e2:	0078                	addi	a4,sp,12
     6e4:	9f24                	0x9f24
	...
     6f6:	00a8                	addi	a0,sp,72
     6f8:	0000                	unimp
     6fa:	0000                	unimp
     6fc:	0000                	unimp
     6fe:	00df 0000 0000      	0xdf
     704:	0000                	unimp
     706:	0001                	nop
     708:	5c5d                	li	s8,-9
     70a:	0001                	nop
     70c:	0000                	unimp
     70e:	0000                	unimp
     710:	5f00                	lw	s0,56(a4)
     712:	0001                	nop
     714:	0000                	unimp
     716:	0000                	unimp
     718:	0100                	addi	s0,sp,128
     71a:	5d00                	lw	s0,56(a0)
     71c:	0164                	addi	s1,sp,140
     71e:	0000                	unimp
     720:	0000                	unimp
     722:	0000                	unimp
     724:	00000173          	0x173
     728:	0000                	unimp
     72a:	0000                	unimp
     72c:	0001                	nop
     72e:	005d                	0x5d
	...
     73c:	0000                	unimp
     73e:	c000                	sw	s0,0(s0)
     740:	0000                	unimp
     742:	0000                	unimp
     744:	0000                	unimp
     746:	f800                	sd	s0,48(s0)
     748:	0000                	unimp
     74a:	0000                	unimp
     74c:	0000                	unimp
     74e:	0100                	addi	s0,sp,128
     750:	6900                	ld	s0,16(a0)
     752:	015c                	addi	a5,sp,132
     754:	0000                	unimp
     756:	0000                	unimp
     758:	0000                	unimp
     75a:	0164                	addi	s1,sp,140
     75c:	0000                	unimp
     75e:	0000                	unimp
     760:	0000                	unimp
     762:	0001                	nop
     764:	6c69                	lui	s8,0x1a
     766:	0001                	nop
     768:	0000                	unimp
     76a:	0000                	unimp
     76c:	7800                	ld	s0,48(s0)
     76e:	0001                	nop
     770:	0000                	unimp
     772:	0000                	unimp
     774:	0100                	addi	s0,sp,128
     776:	6900                	ld	s0,16(a0)
	...
     790:	00000013          	nop
     794:	0000                	unimp
     796:	0000                	unimp
     798:	0001                	nop
     79a:	135a                	slli	t1,t1,0x36
     79c:	0000                	unimp
     79e:	0000                	unimp
     7a0:	0000                	unimp
     7a2:	2400                	fld	fs0,8(s0)
     7a4:	0000                	unimp
     7a6:	0000                	unimp
     7a8:	0000                	unimp
     7aa:	0100                	addi	s0,sp,128
     7ac:	5800                	lw	s0,48(s0)
     7ae:	0024                	addi	s1,sp,8
     7b0:	0000                	unimp
     7b2:	0000                	unimp
     7b4:	0000                	unimp
     7b6:	0030                	addi	a2,sp,8
     7b8:	0000                	unimp
     7ba:	0000                	unimp
     7bc:	0000                	unimp
     7be:	0004                	addi	s1,sp,0
     7c0:	9f5a01f3          	0x9f5a01f3
	...
     7d4:	0030                	addi	a2,sp,8
     7d6:	0000                	unimp
     7d8:	0000                	unimp
     7da:	0000                	unimp
     7dc:	0040                	addi	s0,sp,4
     7de:	0000                	unimp
     7e0:	0000                	unimp
     7e2:	0000                	unimp
     7e4:	0001                	nop
     7e6:	405a                	0x405a
     7e8:	0000                	unimp
     7ea:	0000                	unimp
     7ec:	0000                	unimp
     7ee:	4800                	lw	s0,16(s0)
     7f0:	0000                	unimp
     7f2:	0000                	unimp
     7f4:	0000                	unimp
     7f6:	0400                	addi	s0,sp,512
     7f8:	f300                	sd	s0,32(a4)
     7fa:	5a01                	li	s4,-32
     7fc:	009f 0000 0000      	0x9f
	...
     80a:	0000                	unimp
     80c:	3000                	fld	fs0,32(s0)
     80e:	0000                	unimp
     810:	0000                	unimp
     812:	0000                	unimp
     814:	4000                	lw	s0,0(s0)
     816:	0000                	unimp
     818:	0000                	unimp
     81a:	0000                	unimp
     81c:	0200                	addi	s0,sp,256
     81e:	3000                	fld	fs0,32(s0)
     820:	009f 0000 0000      	0x9f
	...
     82e:	0000                	unimp
     830:	3000                	fld	fs0,32(s0)
     832:	0000                	unimp
     834:	0000                	unimp
     836:	0000                	unimp
     838:	4000                	lw	s0,0(s0)
     83a:	0000                	unimp
     83c:	0000                	unimp
     83e:	0000                	unimp
     840:	0900                	addi	s0,sp,144
     842:	7c00                	ld	s0,56(s0)
     844:	0800                	addi	s0,sp,16
     846:	2420                	fld	fs0,72(s0)
     848:	2008                	fld	fa0,0(s0)
     84a:	9f26                	add	t5,t5,s1
	...
     85c:	0030                	addi	a2,sp,8
     85e:	0000                	unimp
     860:	0000                	unimp
     862:	0000                	unimp
     864:	0040                	addi	s0,sp,4
     866:	0000                	unimp
     868:	0000                	unimp
     86a:	0000                	unimp
     86c:	0009                	0x9
     86e:	2008007b          	custom3	0,16,0,16
     872:	0824                	addi	s1,sp,24
     874:	2620                	fld	fs0,72(a2)
     876:	009f 0000 0000      	0x9f
	...
     884:	0000                	unimp
     886:	3000                	fld	fs0,32(s0)
     888:	0000                	unimp
     88a:	0000                	unimp
     88c:	0000                	unimp
     88e:	4000                	lw	s0,0(s0)
     890:	0000                	unimp
     892:	0000                	unimp
     894:	0000                	unimp
     896:	0100                	addi	s0,sp,128
     898:	5a00                	lw	s0,48(a2)
	...
     8aa:	0030                	addi	a2,sp,8
     8ac:	0000                	unimp
     8ae:	0000                	unimp
     8b0:	0000                	unimp
     8b2:	0040                	addi	s0,sp,4
     8b4:	0000                	unimp
     8b6:	0000                	unimp
     8b8:	0000                	unimp
     8ba:	0004                	addi	s1,sp,0
     8bc:	000a                	0xa
     8be:	9f04                	0x9f04
	...
     8d0:	0048                	addi	a0,sp,4
     8d2:	0000                	unimp
     8d4:	0000                	unimp
     8d6:	0000                	unimp
     8d8:	0054                	addi	a3,sp,4
     8da:	0000                	unimp
     8dc:	0000                	unimp
     8de:	0000                	unimp
     8e0:	0001                	nop
     8e2:	545a                	lw	s0,180(sp)
     8e4:	0000                	unimp
     8e6:	0000                	unimp
     8e8:	0000                	unimp
     8ea:	5c00                	lw	s0,56(s0)
     8ec:	0000                	unimp
     8ee:	0000                	unimp
     8f0:	0000                	unimp
     8f2:	0400                	addi	s0,sp,512
     8f4:	f300                	sd	s0,32(a4)
     8f6:	5a01                	li	s4,-32
     8f8:	009f 0000 0000      	0x9f
	...
     906:	0000                	unimp
     908:	4800                	lw	s0,16(s0)
     90a:	0000                	unimp
     90c:	0000                	unimp
     90e:	0000                	unimp
     910:	5400                	lw	s0,40(s0)
     912:	0000                	unimp
     914:	0000                	unimp
     916:	0000                	unimp
     918:	0900                	addi	s0,sp,144
     91a:	7d00                	ld	s0,56(a0)
     91c:	0800                	addi	s0,sp,16
     91e:	2420                	fld	fs0,72(s0)
     920:	2008                	fld	fa0,0(s0)
     922:	9f26                	add	t5,t5,s1
	...
     934:	0048                	addi	a0,sp,4
     936:	0000                	unimp
     938:	0000                	unimp
     93a:	0000                	unimp
     93c:	0054                	addi	a3,sp,4
     93e:	0000                	unimp
     940:	0000                	unimp
     942:	0000                	unimp
     944:	0009                	0x9
     946:	007c                	addi	a5,sp,12
     948:	2008                	fld	fa0,0(s0)
     94a:	0824                	addi	s1,sp,24
     94c:	2620                	fld	fs0,72(a2)
     94e:	009f 0000 0000      	0x9f
	...
     95c:	0000                	unimp
     95e:	4800                	lw	s0,16(s0)
     960:	0000                	unimp
     962:	0000                	unimp
     964:	0000                	unimp
     966:	5400                	lw	s0,40(s0)
     968:	0000                	unimp
     96a:	0000                	unimp
     96c:	0000                	unimp
     96e:	0100                	addi	s0,sp,128
     970:	5b00                	lw	s0,48(a4)
	...
     982:	0048                	addi	a0,sp,4
     984:	0000                	unimp
     986:	0000                	unimp
     988:	0000                	unimp
     98a:	0054                	addi	a3,sp,4
     98c:	0000                	unimp
     98e:	0000                	unimp
     990:	0000                	unimp
     992:	0009                	0x9
     994:	007a                	0x7a
     996:	2008                	fld	fa0,0(s0)
     998:	0824                	addi	s1,sp,24
     99a:	2620                	fld	fs0,72(a2)
     99c:	009f 0000 0000      	0x9f
	...
     9aa:	0000                	unimp
     9ac:	4800                	lw	s0,16(s0)
     9ae:	0000                	unimp
     9b0:	0000                	unimp
     9b2:	0000                	unimp
     9b4:	5400                	lw	s0,40(s0)
     9b6:	0000                	unimp
     9b8:	0000                	unimp
     9ba:	0000                	unimp
     9bc:	0300                	addi	s0,sp,384
     9be:	0800                	addi	s0,sp,16
     9c0:	9f38                	0x9f38
	...
     9d2:	005c                	addi	a5,sp,4
     9d4:	0000                	unimp
     9d6:	0000                	unimp
     9d8:	0000                	unimp
     9da:	006c                	addi	a1,sp,12
     9dc:	0000                	unimp
     9de:	0000                	unimp
     9e0:	0000                	unimp
     9e2:	0001                	nop
     9e4:	6c5a                	ld	s8,400(sp)
     9e6:	0000                	unimp
     9e8:	0000                	unimp
     9ea:	0000                	unimp
     9ec:	7000                	ld	s0,32(s0)
     9ee:	0000                	unimp
     9f0:	0000                	unimp
     9f2:	0000                	unimp
     9f4:	0400                	addi	s0,sp,512
     9f6:	f300                	sd	s0,32(a4)
     9f8:	5a01                	li	s4,-32
     9fa:	009f 0000 0000      	0x9f
	...
     a08:	0000                	unimp
     a0a:	5c00                	lw	s0,56(s0)
     a0c:	0000                	unimp
     a0e:	0000                	unimp
     a10:	0000                	unimp
     a12:	6c00                	ld	s0,24(s0)
     a14:	0000                	unimp
     a16:	0000                	unimp
     a18:	0000                	unimp
     a1a:	0200                	addi	s0,sp,256
     a1c:	3000                	fld	fs0,32(s0)
     a1e:	009f 0000 0000      	0x9f
	...
     a2c:	0000                	unimp
     a2e:	5c00                	lw	s0,56(s0)
     a30:	0000                	unimp
     a32:	0000                	unimp
     a34:	0000                	unimp
     a36:	6c00                	ld	s0,24(s0)
     a38:	0000                	unimp
     a3a:	0000                	unimp
     a3c:	0000                	unimp
     a3e:	0900                	addi	s0,sp,144
     a40:	7c00                	ld	s0,56(s0)
     a42:	0800                	addi	s0,sp,16
     a44:	2420                	fld	fs0,72(s0)
     a46:	2008                	fld	fa0,0(s0)
     a48:	9f26                	add	t5,t5,s1
	...
     a5a:	005c                	addi	a5,sp,4
     a5c:	0000                	unimp
     a5e:	0000                	unimp
     a60:	0000                	unimp
     a62:	006c                	addi	a1,sp,12
     a64:	0000                	unimp
     a66:	0000                	unimp
     a68:	0000                	unimp
     a6a:	0001                	nop
     a6c:	0000005b          	custom2	0,0,0,0
	...
     a7c:	5c00                	lw	s0,56(s0)
     a7e:	0000                	unimp
     a80:	0000                	unimp
     a82:	0000                	unimp
     a84:	6c00                	ld	s0,24(s0)
     a86:	0000                	unimp
     a88:	0000                	unimp
     a8a:	0000                	unimp
     a8c:	0900                	addi	s0,sp,144
     a8e:	7a00                	ld	s0,48(a2)
     a90:	0800                	addi	s0,sp,16
     a92:	2420                	fld	fs0,72(s0)
     a94:	2008                	fld	fa0,0(s0)
     a96:	9f26                	add	t5,t5,s1
	...
     aa8:	005c                	addi	a5,sp,4
     aaa:	0000                	unimp
     aac:	0000                	unimp
     aae:	0000                	unimp
     ab0:	006c                	addi	a1,sp,12
     ab2:	0000                	unimp
     ab4:	0000                	unimp
     ab6:	0000                	unimp
     ab8:	3e080003          	lb	zero,992(a6) # fffffffffffec3e0 <_gp+0xfffffffffffda6c0>
     abc:	009f 0000 0000      	0x9f
	...
     aca:	0000                	unimp
     acc:	7000                	ld	s0,32(s0)
     ace:	0000                	unimp
     ad0:	0000                	unimp
     ad2:	0000                	unimp
     ad4:	8000                	0x8000
     ad6:	0000                	unimp
     ad8:	0000                	unimp
     ada:	0000                	unimp
     adc:	0100                	addi	s0,sp,128
     ade:	5a00                	lw	s0,48(a2)
     ae0:	0080                	addi	s0,sp,64
     ae2:	0000                	unimp
     ae4:	0000                	unimp
     ae6:	0000                	unimp
     ae8:	0084                	addi	s1,sp,64
     aea:	0000                	unimp
     aec:	0000                	unimp
     aee:	0000                	unimp
     af0:	0004                	addi	s1,sp,0
     af2:	9f5a01f3          	0x9f5a01f3
	...
     b06:	0070                	addi	a2,sp,12
     b08:	0000                	unimp
     b0a:	0000                	unimp
     b0c:	0000                	unimp
     b0e:	0080                	addi	s0,sp,64
     b10:	0000                	unimp
     b12:	0000                	unimp
     b14:	0000                	unimp
     b16:	0002                	0x2
     b18:	9f30                	0x9f30
	...
     b2a:	0070                	addi	a2,sp,12
     b2c:	0000                	unimp
     b2e:	0000                	unimp
     b30:	0000                	unimp
     b32:	0080                	addi	s0,sp,64
     b34:	0000                	unimp
     b36:	0000                	unimp
     b38:	0000                	unimp
     b3a:	0001                	nop
     b3c:	005c                	addi	a5,sp,4
	...
     b4a:	0000                	unimp
     b4c:	7000                	ld	s0,32(s0)
     b4e:	0000                	unimp
     b50:	0000                	unimp
     b52:	0000                	unimp
     b54:	8000                	0x8000
     b56:	0000                	unimp
     b58:	0000                	unimp
     b5a:	0000                	unimp
     b5c:	0100                	addi	s0,sp,128
     b5e:	5b00                	lw	s0,48(a4)
	...
     b70:	0070                	addi	a2,sp,12
     b72:	0000                	unimp
     b74:	0000                	unimp
     b76:	0000                	unimp
     b78:	0080                	addi	s0,sp,64
     b7a:	0000                	unimp
     b7c:	0000                	unimp
     b7e:	0000                	unimp
     b80:	0009                	0x9
     b82:	007a                	0x7a
     b84:	2008                	fld	fa0,0(s0)
     b86:	0824                	addi	s1,sp,24
     b88:	2620                	fld	fs0,72(a2)
     b8a:	009f 0000 0000      	0x9f
	...
     b98:	0000                	unimp
     b9a:	7000                	ld	s0,32(s0)
     b9c:	0000                	unimp
     b9e:	0000                	unimp
     ba0:	0000                	unimp
     ba2:	8000                	0x8000
     ba4:	0000                	unimp
     ba6:	0000                	unimp
     ba8:	0000                	unimp
     baa:	0300                	addi	s0,sp,384
     bac:	0800                	addi	s0,sp,16
     bae:	00009f3f 00000000 	0x9f3f
	...
     bbe:	0000                	unimp
     bc0:	0084                	addi	s1,sp,64
     bc2:	0000                	unimp
     bc4:	0000                	unimp
     bc6:	0000                	unimp
     bc8:	0094                	addi	a3,sp,64
     bca:	0000                	unimp
     bcc:	0000                	unimp
     bce:	0000                	unimp
     bd0:	0001                	nop
     bd2:	945a                	add	s0,s0,s6
     bd4:	0000                	unimp
     bd6:	0000                	unimp
     bd8:	0000                	unimp
     bda:	9800                	0x9800
     bdc:	0000                	unimp
     bde:	0000                	unimp
     be0:	0000                	unimp
     be2:	0400                	addi	s0,sp,512
     be4:	f300                	sd	s0,32(a4)
     be6:	5a01                	li	s4,-32
     be8:	009f 0000 0000      	0x9f
	...
     bf6:	0000                	unimp
     bf8:	8400                	0x8400
     bfa:	0000                	unimp
     bfc:	0000                	unimp
     bfe:	0000                	unimp
     c00:	9400                	0x9400
     c02:	0000                	unimp
     c04:	0000                	unimp
     c06:	0000                	unimp
     c08:	0200                	addi	s0,sp,256
     c0a:	3000                	fld	fs0,32(s0)
     c0c:	009f 0000 0000      	0x9f
	...
     c1a:	0000                	unimp
     c1c:	8400                	0x8400
     c1e:	0000                	unimp
     c20:	0000                	unimp
     c22:	0000                	unimp
     c24:	9400                	0x9400
     c26:	0000                	unimp
     c28:	0000                	unimp
     c2a:	0000                	unimp
     c2c:	0100                	addi	s0,sp,128
     c2e:	5c00                	lw	s0,56(s0)
	...
     c40:	0084                	addi	s1,sp,64
     c42:	0000                	unimp
     c44:	0000                	unimp
     c46:	0000                	unimp
     c48:	0094                	addi	a3,sp,64
     c4a:	0000                	unimp
     c4c:	0000                	unimp
     c4e:	0000                	unimp
     c50:	0001                	nop
     c52:	0000005b          	custom2	0,0,0,0
	...
     c62:	8400                	0x8400
     c64:	0000                	unimp
     c66:	0000                	unimp
     c68:	0000                	unimp
     c6a:	9400                	0x9400
     c6c:	0000                	unimp
     c6e:	0000                	unimp
     c70:	0000                	unimp
     c72:	0900                	addi	s0,sp,144
     c74:	7a00                	ld	s0,48(a2)
     c76:	0800                	addi	s0,sp,16
     c78:	2420                	fld	fs0,72(s0)
     c7a:	2008                	fld	fa0,0(s0)
     c7c:	9f26                	add	t5,t5,s1
	...
     c8e:	0084                	addi	s1,sp,64
     c90:	0000                	unimp
     c92:	0000                	unimp
     c94:	0000                	unimp
     c96:	0094                	addi	a3,sp,64
     c98:	0000                	unimp
     c9a:	0000                	unimp
     c9c:	0000                	unimp
     c9e:	40080003          	lb	zero,1024(a6)
     ca2:	009f 0000 0000      	0x9f
	...
     cb0:	0000                	unimp
     cb2:	9800                	0x9800
     cb4:	0000                	unimp
     cb6:	0000                	unimp
     cb8:	0000                	unimp
     cba:	ac00                	fsd	fs0,24(s0)
     cbc:	0000                	unimp
     cbe:	0000                	unimp
     cc0:	0000                	unimp
     cc2:	0100                	addi	s0,sp,128
     cc4:	5a00                	lw	s0,48(a2)
     cc6:	00ac                	addi	a1,sp,72
     cc8:	0000                	unimp
     cca:	0000                	unimp
     ccc:	0000                	unimp
     cce:	00b4                	addi	a3,sp,72
     cd0:	0000                	unimp
     cd2:	0000                	unimp
     cd4:	0000                	unimp
     cd6:	0004                	addi	s1,sp,0
     cd8:	9f5a01f3          	0x9f5a01f3
	...
     cec:	0098                	addi	a4,sp,64
     cee:	0000                	unimp
     cf0:	0000                	unimp
     cf2:	0000                	unimp
     cf4:	00ac                	addi	a1,sp,72
     cf6:	0000                	unimp
     cf8:	0000                	unimp
     cfa:	0000                	unimp
     cfc:	0002                	0x2
     cfe:	9f30                	0x9f30
	...
     d10:	0098                	addi	a4,sp,64
     d12:	0000                	unimp
     d14:	0000                	unimp
     d16:	0000                	unimp
     d18:	00ac                	addi	a1,sp,72
     d1a:	0000                	unimp
     d1c:	0000                	unimp
     d1e:	0000                	unimp
     d20:	0001                	nop
     d22:	0000005b          	custom2	0,0,0,0
	...
     d32:	9800                	0x9800
     d34:	0000                	unimp
     d36:	0000                	unimp
     d38:	0000                	unimp
     d3a:	ac00                	fsd	fs0,24(s0)
     d3c:	0000                	unimp
     d3e:	0000                	unimp
     d40:	0000                	unimp
     d42:	0900                	addi	s0,sp,144
     d44:	7a00                	ld	s0,48(a2)
     d46:	0800                	addi	s0,sp,16
     d48:	2420                	fld	fs0,72(s0)
     d4a:	2008                	fld	fa0,0(s0)
     d4c:	9f26                	add	t5,t5,s1
	...
     d5e:	0098                	addi	a4,sp,64
     d60:	0000                	unimp
     d62:	0000                	unimp
     d64:	0000                	unimp
     d66:	00ac                	addi	a1,sp,72
     d68:	0000                	unimp
     d6a:	0000                	unimp
     d6c:	0000                	unimp
     d6e:	50080003          	lb	zero,1280(a6)
     d72:	009f 0000 0000      	0x9f
	...
     d80:	0000                	unimp
     d82:	b400                	fsd	fs0,40(s0)
     d84:	0000                	unimp
     d86:	0000                	unimp
     d88:	0000                	unimp
     d8a:	c800                	sw	s0,16(s0)
     d8c:	0000                	unimp
     d8e:	0000                	unimp
     d90:	0000                	unimp
     d92:	0100                	addi	s0,sp,128
     d94:	5a00                	lw	s0,48(a2)
     d96:	00c8                	addi	a0,sp,68
     d98:	0000                	unimp
     d9a:	0000                	unimp
     d9c:	0000                	unimp
     d9e:	00d0                	addi	a2,sp,68
     da0:	0000                	unimp
     da2:	0000                	unimp
     da4:	0000                	unimp
     da6:	0004                	addi	s1,sp,0
     da8:	9f5a01f3          	0x9f5a01f3
	...
     dbc:	00b4                	addi	a3,sp,72
     dbe:	0000                	unimp
     dc0:	0000                	unimp
     dc2:	0000                	unimp
     dc4:	00c8                	addi	a0,sp,68
     dc6:	0000                	unimp
     dc8:	0000                	unimp
     dca:	0000                	unimp
     dcc:	0002                	0x2
     dce:	9f30                	0x9f30
	...
     de0:	00b4                	addi	a3,sp,72
     de2:	0000                	unimp
     de4:	0000                	unimp
     de6:	0000                	unimp
     de8:	00c8                	addi	a0,sp,68
     dea:	0000                	unimp
     dec:	0000                	unimp
     dee:	0000                	unimp
     df0:	0001                	nop
     df2:	0000005b          	custom2	0,0,0,0
	...
     e02:	b400                	fsd	fs0,40(s0)
     e04:	0000                	unimp
     e06:	0000                	unimp
     e08:	0000                	unimp
     e0a:	c800                	sw	s0,16(s0)
     e0c:	0000                	unimp
     e0e:	0000                	unimp
     e10:	0000                	unimp
     e12:	0100                	addi	s0,sp,128
     e14:	5a00                	lw	s0,48(a2)
	...
     e26:	00b4                	addi	a3,sp,72
     e28:	0000                	unimp
     e2a:	0000                	unimp
     e2c:	0000                	unimp
     e2e:	00c8                	addi	a0,sp,68
     e30:	0000                	unimp
     e32:	0000                	unimp
     e34:	0000                	unimp
     e36:	0004                	addi	s1,sp,0
     e38:	0e0a                	slli	t3,t3,0x2
     e3a:	9f04                	0x9f04
	...
     e4c:	00d0                	addi	a2,sp,68
     e4e:	0000                	unimp
     e50:	0000                	unimp
     e52:	0000                	unimp
     e54:	00e4                	addi	s1,sp,76
     e56:	0000                	unimp
     e58:	0000                	unimp
     e5a:	0000                	unimp
     e5c:	0001                	nop
     e5e:	e45a                	sd	s6,8(sp)
     e60:	0000                	unimp
     e62:	0000                	unimp
     e64:	0000                	unimp
     e66:	ec00                	sd	s0,24(s0)
     e68:	0000                	unimp
     e6a:	0000                	unimp
     e6c:	0000                	unimp
     e6e:	0400                	addi	s0,sp,512
     e70:	f300                	sd	s0,32(a4)
     e72:	5a01                	li	s4,-32
     e74:	009f 0000 0000      	0x9f
	...
     e82:	0000                	unimp
     e84:	d000                	sw	s0,32(s0)
     e86:	0000                	unimp
     e88:	0000                	unimp
     e8a:	0000                	unimp
     e8c:	e400                	sd	s0,8(s0)
     e8e:	0000                	unimp
     e90:	0000                	unimp
     e92:	0000                	unimp
     e94:	0200                	addi	s0,sp,256
     e96:	3000                	fld	fs0,32(s0)
     e98:	009f 0000 0000      	0x9f
	...
     ea6:	0000                	unimp
     ea8:	d000                	sw	s0,32(s0)
     eaa:	0000                	unimp
     eac:	0000                	unimp
     eae:	0000                	unimp
     eb0:	e400                	sd	s0,8(s0)
     eb2:	0000                	unimp
     eb4:	0000                	unimp
     eb6:	0000                	unimp
     eb8:	0100                	addi	s0,sp,128
     eba:	5b00                	lw	s0,48(a4)
	...
     ecc:	00d0                	addi	a2,sp,68
     ece:	0000                	unimp
     ed0:	0000                	unimp
     ed2:	0000                	unimp
     ed4:	00e4                	addi	s1,sp,76
     ed6:	0000                	unimp
     ed8:	0000                	unimp
     eda:	0000                	unimp
     edc:	0001                	nop
     ede:	005a                	0x5a
	...
     eec:	0000                	unimp
     eee:	d000                	sw	s0,32(s0)
     ef0:	0000                	unimp
     ef2:	0000                	unimp
     ef4:	0000                	unimp
     ef6:	e400                	sd	s0,8(s0)
     ef8:	0000                	unimp
     efa:	0000                	unimp
     efc:	0000                	unimp
     efe:	0400                	addi	s0,sp,512
     f00:	0a00                	addi	s0,sp,272
     f02:	009f040f          	0x9f040f
	...
     f12:	0000                	unimp
     f14:	ec00                	sd	s0,24(s0)
     f16:	0000                	unimp
     f18:	0000                	unimp
     f1a:	0000                	unimp
     f1c:	f800                	sd	s0,48(s0)
     f1e:	0000                	unimp
     f20:	0000                	unimp
     f22:	0000                	unimp
     f24:	0100                	addi	s0,sp,128
     f26:	5a00                	lw	s0,48(a2)
     f28:	00f8                	addi	a4,sp,76
     f2a:	0000                	unimp
     f2c:	0000                	unimp
     f2e:	0000                	unimp
     f30:	0100                	addi	s0,sp,128
     f32:	0000                	unimp
     f34:	0000                	unimp
     f36:	0000                	unimp
     f38:	0004                	addi	s1,sp,0
     f3a:	9f5a01f3          	0x9f5a01f3
	...
     f4e:	00ec                	addi	a1,sp,76
     f50:	0000                	unimp
     f52:	0000                	unimp
     f54:	0000                	unimp
     f56:	00f8                	addi	a4,sp,76
     f58:	0000                	unimp
     f5a:	0000                	unimp
     f5c:	0000                	unimp
     f5e:	0009                	0x9
     f60:	007d                	0x7d
     f62:	2008                	fld	fa0,0(s0)
     f64:	0824                	addi	s1,sp,24
     f66:	2620                	fld	fs0,72(a2)
     f68:	009f 0000 0000      	0x9f
	...
     f76:	0000                	unimp
     f78:	ec00                	sd	s0,24(s0)
     f7a:	0000                	unimp
     f7c:	0000                	unimp
     f7e:	0000                	unimp
     f80:	f800                	sd	s0,48(s0)
     f82:	0000                	unimp
     f84:	0000                	unimp
     f86:	0000                	unimp
     f88:	0100                	addi	s0,sp,128
     f8a:	5c00                	lw	s0,56(s0)
	...
     f9c:	00ec                	addi	a1,sp,76
     f9e:	0000                	unimp
     fa0:	0000                	unimp
     fa2:	0000                	unimp
     fa4:	00f8                	addi	a4,sp,76
     fa6:	0000                	unimp
     fa8:	0000                	unimp
     faa:	0000                	unimp
     fac:	0001                	nop
     fae:	0000005b          	custom2	0,0,0,0
	...
     fbe:	ec00                	sd	s0,24(s0)
     fc0:	0000                	unimp
     fc2:	0000                	unimp
     fc4:	0000                	unimp
     fc6:	f800                	sd	s0,48(s0)
     fc8:	0000                	unimp
     fca:	0000                	unimp
     fcc:	0000                	unimp
     fce:	0900                	addi	s0,sp,144
     fd0:	7a00                	ld	s0,48(a2)
     fd2:	0800                	addi	s0,sp,16
     fd4:	2420                	fld	fs0,72(s0)
     fd6:	2008                	fld	fa0,0(s0)
     fd8:	9f26                	add	t5,t5,s1
	...
     fea:	00ec                	addi	a1,sp,76
     fec:	0000                	unimp
     fee:	0000                	unimp
     ff0:	0000                	unimp
     ff2:	00f8                	addi	a4,sp,76
     ff4:	0000                	unimp
     ff6:	0000                	unimp
     ff8:	0000                	unimp
     ffa:	4f080003          	lb	zero,1264(a6)
     ffe:	009f 0000 0000      	0x9f
	...
    1010:	0001                	nop
    1012:	0000                	unimp
    1014:	0000                	unimp
    1016:	1400                	addi	s0,sp,544
    1018:	0001                	nop
    101a:	0000                	unimp
    101c:	0000                	unimp
    101e:	0100                	addi	s0,sp,128
    1020:	5a00                	lw	s0,48(a2)
    1022:	0114                	addi	a3,sp,128
    1024:	0000                	unimp
    1026:	0000                	unimp
    1028:	0000                	unimp
    102a:	011c                	addi	a5,sp,128
    102c:	0000                	unimp
    102e:	0000                	unimp
    1030:	0000                	unimp
    1032:	0004                	addi	s1,sp,0
    1034:	9f5a01f3          	0x9f5a01f3
	...
    1048:	0100                	addi	s0,sp,128
    104a:	0000                	unimp
    104c:	0000                	unimp
    104e:	0000                	unimp
    1050:	0114                	addi	a3,sp,128
    1052:	0000                	unimp
    1054:	0000                	unimp
    1056:	0000                	unimp
    1058:	0002                	0x2
    105a:	9f30                	0x9f30
	...
    106c:	0100                	addi	s0,sp,128
    106e:	0000                	unimp
    1070:	0000                	unimp
    1072:	0000                	unimp
    1074:	0114                	addi	a3,sp,128
    1076:	0000                	unimp
    1078:	0000                	unimp
    107a:	0000                	unimp
    107c:	0009                	0x9
    107e:	2008007b          	custom3	0,16,0,16
    1082:	0824                	addi	s1,sp,24
    1084:	2620                	fld	fs0,72(a2)
    1086:	009f 0000 0000      	0x9f
	...
    1098:	0001                	nop
    109a:	0000                	unimp
    109c:	0000                	unimp
    109e:	1400                	addi	s0,sp,544
    10a0:	0001                	nop
    10a2:	0000                	unimp
    10a4:	0000                	unimp
    10a6:	0100                	addi	s0,sp,128
    10a8:	5a00                	lw	s0,48(a2)
	...
    10ba:	0100                	addi	s0,sp,128
    10bc:	0000                	unimp
    10be:	0000                	unimp
    10c0:	0000                	unimp
    10c2:	0114                	addi	a3,sp,128
    10c4:	0000                	unimp
    10c6:	0000                	unimp
    10c8:	0000                	unimp
    10ca:	0004                	addi	s1,sp,0
    10cc:	090a                	slli	s2,s2,0x2
    10ce:	9f04                	0x9f04
	...
    10e0:	011c                	addi	a5,sp,128
    10e2:	0000                	unimp
    10e4:	0000                	unimp
    10e6:	0000                	unimp
    10e8:	0128                	addi	a0,sp,136
    10ea:	0000                	unimp
    10ec:	0000                	unimp
    10ee:	0000                	unimp
    10f0:	0001                	nop
    10f2:	285a                	fld	fa6,400(sp)
    10f4:	0001                	nop
    10f6:	0000                	unimp
    10f8:	0000                	unimp
    10fa:	3000                	fld	fs0,32(s0)
    10fc:	0001                	nop
    10fe:	0000                	unimp
    1100:	0000                	unimp
    1102:	0400                	addi	s0,sp,512
    1104:	f300                	sd	s0,32(a4)
    1106:	5a01                	li	s4,-32
    1108:	009f 0000 0000      	0x9f
	...
    1116:	0000                	unimp
    1118:	1c00                	addi	s0,sp,560
    111a:	0001                	nop
    111c:	0000                	unimp
    111e:	0000                	unimp
    1120:	2800                	fld	fs0,16(s0)
    1122:	0001                	nop
    1124:	0000                	unimp
    1126:	0000                	unimp
    1128:	0900                	addi	s0,sp,144
    112a:	7d00                	ld	s0,56(a0)
    112c:	0800                	addi	s0,sp,16
    112e:	2420                	fld	fs0,72(s0)
    1130:	2008                	fld	fa0,0(s0)
    1132:	9f26                	add	t5,t5,s1
	...
    1144:	011c                	addi	a5,sp,128
    1146:	0000                	unimp
    1148:	0000                	unimp
    114a:	0000                	unimp
    114c:	0128                	addi	a0,sp,136
    114e:	0000                	unimp
    1150:	0000                	unimp
    1152:	0000                	unimp
    1154:	0009                	0x9
    1156:	007c                	addi	a5,sp,12
    1158:	2008                	fld	fa0,0(s0)
    115a:	0824                	addi	s1,sp,24
    115c:	2620                	fld	fs0,72(a2)
    115e:	009f 0000 0000      	0x9f
	...
    116c:	0000                	unimp
    116e:	1c00                	addi	s0,sp,560
    1170:	0001                	nop
    1172:	0000                	unimp
    1174:	0000                	unimp
    1176:	2800                	fld	fs0,16(s0)
    1178:	0001                	nop
    117a:	0000                	unimp
    117c:	0000                	unimp
    117e:	0100                	addi	s0,sp,128
    1180:	5b00                	lw	s0,48(a4)
	...
    1192:	011c                	addi	a5,sp,128
    1194:	0000                	unimp
    1196:	0000                	unimp
    1198:	0000                	unimp
    119a:	0128                	addi	a0,sp,136
    119c:	0000                	unimp
    119e:	0000                	unimp
    11a0:	0000                	unimp
    11a2:	0009                	0x9
    11a4:	007a                	0x7a
    11a6:	2008                	fld	fa0,0(s0)
    11a8:	0824                	addi	s1,sp,24
    11aa:	2620                	fld	fs0,72(a2)
    11ac:	009f 0000 0000      	0x9f
	...
    11ba:	0000                	unimp
    11bc:	1c00                	addi	s0,sp,560
    11be:	0001                	nop
    11c0:	0000                	unimp
    11c2:	0000                	unimp
    11c4:	2800                	fld	fs0,16(s0)
    11c6:	0001                	nop
    11c8:	0000                	unimp
    11ca:	0000                	unimp
    11cc:	0300                	addi	s0,sp,384
    11ce:	0800                	addi	s0,sp,16
    11d0:	9f30                	0x9f30
	...
    11e2:	0130                	addi	a2,sp,136
    11e4:	0000                	unimp
    11e6:	0000                	unimp
    11e8:	0000                	unimp
    11ea:	0148                	addi	a0,sp,132
    11ec:	0000                	unimp
    11ee:	0000                	unimp
    11f0:	0000                	unimp
    11f2:	0001                	nop
    11f4:	485a                	lw	a6,148(sp)
    11f6:	0001                	nop
    11f8:	0000                	unimp
    11fa:	0000                	unimp
    11fc:	5000                	lw	s0,32(s0)
    11fe:	0001                	nop
    1200:	0000                	unimp
    1202:	0000                	unimp
    1204:	0400                	addi	s0,sp,512
    1206:	f300                	sd	s0,32(a4)
    1208:	5a01                	li	s4,-32
    120a:	009f 0000 0000      	0x9f
	...
    1218:	0000                	unimp
    121a:	3000                	fld	fs0,32(s0)
    121c:	0001                	nop
    121e:	0000                	unimp
    1220:	0000                	unimp
    1222:	4800                	lw	s0,16(s0)
    1224:	0001                	nop
    1226:	0000                	unimp
    1228:	0000                	unimp
    122a:	0200                	addi	s0,sp,256
    122c:	3000                	fld	fs0,32(s0)
    122e:	009f 0000 0000      	0x9f
	...
    123c:	0000                	unimp
    123e:	3000                	fld	fs0,32(s0)
    1240:	0001                	nop
    1242:	0000                	unimp
    1244:	0000                	unimp
    1246:	4800                	lw	s0,16(s0)
    1248:	0001                	nop
    124a:	0000                	unimp
    124c:	0000                	unimp
    124e:	0900                	addi	s0,sp,144
    1250:	7a00                	ld	s0,48(a2)
    1252:	0800                	addi	s0,sp,16
    1254:	2420                	fld	fs0,72(s0)
    1256:	2008                	fld	fa0,0(s0)
    1258:	9f26                	add	t5,t5,s1
	...
    126a:	0130                	addi	a2,sp,136
    126c:	0000                	unimp
    126e:	0000                	unimp
    1270:	0000                	unimp
    1272:	0148                	addi	a0,sp,132
    1274:	0000                	unimp
    1276:	0000                	unimp
    1278:	0000                	unimp
    127a:	39080003          	lb	zero,912(a6)
    127e:	009f 0000 0000      	0x9f
	...
    128c:	0000                	unimp
    128e:	5000                	lw	s0,32(s0)
    1290:	0001                	nop
    1292:	0000                	unimp
    1294:	0000                	unimp
    1296:	6400                	ld	s0,8(s0)
    1298:	0001                	nop
    129a:	0000                	unimp
    129c:	0000                	unimp
    129e:	0100                	addi	s0,sp,128
    12a0:	5a00                	lw	s0,48(a2)
    12a2:	0164                	addi	s1,sp,140
    12a4:	0000                	unimp
    12a6:	0000                	unimp
    12a8:	0000                	unimp
    12aa:	016c                	addi	a1,sp,140
    12ac:	0000                	unimp
    12ae:	0000                	unimp
    12b0:	0000                	unimp
    12b2:	0004                	addi	s1,sp,0
    12b4:	9f5a01f3          	0x9f5a01f3
	...
    12c8:	0150                	addi	a2,sp,132
    12ca:	0000                	unimp
    12cc:	0000                	unimp
    12ce:	0000                	unimp
    12d0:	0164                	addi	s1,sp,140
    12d2:	0000                	unimp
    12d4:	0000                	unimp
    12d6:	0000                	unimp
    12d8:	0002                	0x2
    12da:	9f30                	0x9f30
	...
    12ec:	0150                	addi	a2,sp,132
    12ee:	0000                	unimp
    12f0:	0000                	unimp
    12f2:	0000                	unimp
    12f4:	0164                	addi	s1,sp,140
    12f6:	0000                	unimp
    12f8:	0000                	unimp
    12fa:	0000                	unimp
    12fc:	0001                	nop
    12fe:	0000005b          	custom2	0,0,0,0
	...
    130e:	5000                	lw	s0,32(s0)
    1310:	0001                	nop
    1312:	0000                	unimp
    1314:	0000                	unimp
    1316:	6400                	ld	s0,8(s0)
    1318:	0001                	nop
    131a:	0000                	unimp
    131c:	0000                	unimp
    131e:	0100                	addi	s0,sp,128
    1320:	5a00                	lw	s0,48(a2)
	...
    1332:	0150                	addi	a2,sp,132
    1334:	0000                	unimp
    1336:	0000                	unimp
    1338:	0000                	unimp
    133a:	0164                	addi	s1,sp,140
    133c:	0000                	unimp
    133e:	0000                	unimp
    1340:	0000                	unimp
    1342:	0004                	addi	s1,sp,0
    1344:	010a                	slli	sp,sp,0x2
    1346:	9f04                	0x9f04
	...
    1358:	016c                	addi	a1,sp,140
    135a:	0000                	unimp
    135c:	0000                	unimp
    135e:	0000                	unimp
    1360:	0184                	addi	s1,sp,192
    1362:	0000                	unimp
    1364:	0000                	unimp
    1366:	0000                	unimp
    1368:	0001                	nop
    136a:	845a                	mv	s0,s6
    136c:	0001                	nop
    136e:	0000                	unimp
    1370:	0000                	unimp
    1372:	8c00                	0x8c00
    1374:	0001                	nop
    1376:	0000                	unimp
    1378:	0000                	unimp
    137a:	0400                	addi	s0,sp,512
    137c:	f300                	sd	s0,32(a4)
    137e:	5a01                	li	s4,-32
    1380:	009f 0000 0000      	0x9f
	...
    138e:	0000                	unimp
    1390:	6c00                	ld	s0,24(s0)
    1392:	0001                	nop
    1394:	0000                	unimp
    1396:	0000                	unimp
    1398:	8400                	0x8400
    139a:	0001                	nop
    139c:	0000                	unimp
    139e:	0000                	unimp
    13a0:	0200                	addi	s0,sp,256
    13a2:	3000                	fld	fs0,32(s0)
    13a4:	009f 0000 0000      	0x9f
	...
    13b2:	0000                	unimp
    13b4:	6c00                	ld	s0,24(s0)
    13b6:	0001                	nop
    13b8:	0000                	unimp
    13ba:	0000                	unimp
    13bc:	8400                	0x8400
    13be:	0001                	nop
    13c0:	0000                	unimp
    13c2:	0000                	unimp
    13c4:	0100                	addi	s0,sp,128
    13c6:	5a00                	lw	s0,48(a2)
	...
    13d8:	016c                	addi	a1,sp,140
    13da:	0000                	unimp
    13dc:	0000                	unimp
    13de:	0000                	unimp
    13e0:	0184                	addi	s1,sp,192
    13e2:	0000                	unimp
    13e4:	0000                	unimp
    13e6:	0000                	unimp
    13e8:	0004                	addi	s1,sp,0
    13ea:	020a                	slli	tp,tp,0x2
    13ec:	9f04                	0x9f04
	...
    13fe:	018c                	addi	a1,sp,192
    1400:	0000                	unimp
    1402:	0000                	unimp
    1404:	0000                	unimp
    1406:	00000197          	auipc	gp,0x0
    140a:	0000                	unimp
    140c:	0000                	unimp
    140e:	0001                	nop
    1410:	975a                	add	a4,a4,s6
    1412:	0001                	nop
    1414:	0000                	unimp
    1416:	0000                	unimp
    1418:	b000                	fsd	fs0,32(s0)
    141a:	0001                	nop
    141c:	0000                	unimp
    141e:	0000                	unimp
    1420:	0400                	addi	s0,sp,512
    1422:	f300                	sd	s0,32(a4)
    1424:	5a01                	li	s4,-32
    1426:	009f 0000 0000      	0x9f
	...
    1434:	0000                	unimp
    1436:	8c00                	0x8c00
    1438:	0001                	nop
    143a:	0000                	unimp
    143c:	0000                	unimp
    143e:	9700                	0x9700
    1440:	0001                	nop
    1442:	0000                	unimp
    1444:	0000                	unimp
    1446:	0100                	addi	s0,sp,128
    1448:	5b00                	lw	s0,48(a4)
    144a:	00000197          	auipc	gp,0x0
    144e:	0000                	unimp
    1450:	0000                	unimp
    1452:	01b0                	addi	a2,sp,200
    1454:	0000                	unimp
    1456:	0000                	unimp
    1458:	0000                	unimp
    145a:	0004                	addi	s1,sp,0
    145c:	9f5b01f3          	0x9f5b01f3
	...
    1470:	018c                	addi	a1,sp,192
    1472:	0000                	unimp
    1474:	0000                	unimp
    1476:	0000                	unimp
    1478:	00000197          	auipc	gp,0x0
    147c:	0000                	unimp
    147e:	0000                	unimp
    1480:	0001                	nop
    1482:	975c                	0x975c
    1484:	0001                	nop
    1486:	0000                	unimp
    1488:	0000                	unimp
    148a:	b000                	fsd	fs0,32(s0)
    148c:	0001                	nop
    148e:	0000                	unimp
    1490:	0000                	unimp
    1492:	0400                	addi	s0,sp,512
    1494:	f300                	sd	s0,32(a4)
    1496:	5c01                	li	s8,-32
    1498:	009f 0000 0000      	0x9f
	...
    14a6:	0000                	unimp
    14a8:	dc00                	sw	s0,56(s0)
    14aa:	0001                	nop
    14ac:	0000                	unimp
    14ae:	0000                	unimp
    14b0:	e700                	sd	s0,8(a4)
    14b2:	0001                	nop
    14b4:	0000                	unimp
    14b6:	0000                	unimp
    14b8:	0100                	addi	s0,sp,128
    14ba:	5a00                	lw	s0,48(a2)
    14bc:	000001e7          	jalr	gp,zero
    14c0:	0000                	unimp
    14c2:	0000                	unimp
    14c4:	0200                	addi	s0,sp,256
    14c6:	0000                	unimp
    14c8:	0000                	unimp
    14ca:	0000                	unimp
    14cc:	0004                	addi	s1,sp,0
    14ce:	9f5a01f3          	0x9f5a01f3
	...
    14e2:	01dc                	addi	a5,sp,196
    14e4:	0000                	unimp
    14e6:	0000                	unimp
    14e8:	0000                	unimp
    14ea:	000001e7          	jalr	gp,zero
    14ee:	0000                	unimp
    14f0:	0000                	unimp
    14f2:	0001                	nop
    14f4:	0001e75b          	custom2	a4,gp,0,0
    14f8:	0000                	unimp
    14fa:	0000                	unimp
    14fc:	0000                	unimp
    14fe:	0002                	0x2
    1500:	0000                	unimp
    1502:	0000                	unimp
    1504:	0400                	addi	s0,sp,512
    1506:	f300                	sd	s0,32(a4)
    1508:	5b01                	li	s6,-32
    150a:	009f 0000 0000      	0x9f
	...
    151c:	0002                	0x2
    151e:	0000                	unimp
    1520:	0000                	unimp
    1522:	0b00                	addi	s0,sp,400
    1524:	0002                	0x2
    1526:	0000                	unimp
    1528:	0000                	unimp
    152a:	0100                	addi	s0,sp,128
    152c:	5a00                	lw	s0,48(a2)
    152e:	0000020b          	custom0	4,0,0,0
    1532:	0000                	unimp
    1534:	0000                	unimp
    1536:	0224                	addi	s1,sp,264
    1538:	0000                	unimp
    153a:	0000                	unimp
    153c:	0000                	unimp
    153e:	0004                	addi	s1,sp,0
    1540:	9f5a01f3          	0x9f5a01f3
	...
    1554:	0224                	addi	s1,sp,264
    1556:	0000                	unimp
    1558:	0000                	unimp
    155a:	0000                	unimp
    155c:	0240                	addi	s0,sp,260
    155e:	0000                	unimp
    1560:	0000                	unimp
    1562:	0000                	unimp
    1564:	0001                	nop
    1566:	405a                	0x405a
    1568:	0002                	0x2
    156a:	0000                	unimp
    156c:	0000                	unimp
    156e:	6000                	ld	s0,0(s0)
    1570:	0002                	0x2
    1572:	0000                	unimp
    1574:	0000                	unimp
    1576:	0400                	addi	s0,sp,512
    1578:	f300                	sd	s0,32(a4)
    157a:	5a01                	li	s4,-32
    157c:	009f 0000 0000      	0x9f
	...
    158a:	0000                	unimp
    158c:	2800                	fld	fs0,16(s0)
    158e:	0002                	0x2
    1590:	0000                	unimp
    1592:	0000                	unimp
    1594:	4800                	lw	s0,16(s0)
    1596:	0002                	0x2
    1598:	0000                	unimp
    159a:	0000                	unimp
    159c:	0100                	addi	s0,sp,128
    159e:	5200                	lw	s0,32(a2)
	...
    15b0:	0224                	addi	s1,sp,264
    15b2:	0000                	unimp
    15b4:	0000                	unimp
    15b6:	0000                	unimp
    15b8:	0240                	addi	s0,sp,260
    15ba:	0000                	unimp
    15bc:	0000                	unimp
    15be:	0000                	unimp
    15c0:	0001                	nop
    15c2:	405a                	0x405a
    15c4:	0002                	0x2
    15c6:	0000                	unimp
    15c8:	0000                	unimp
    15ca:	4800                	lw	s0,16(s0)
    15cc:	0002                	0x2
    15ce:	0000                	unimp
    15d0:	0000                	unimp
    15d2:	0400                	addi	s0,sp,512
    15d4:	f300                	sd	s0,32(a4)
    15d6:	5a01                	li	s4,-32
    15d8:	009f 0000 0000      	0x9f
	...
    15e6:	0000                	unimp
    15e8:	2800                	fld	fs0,16(s0)
    15ea:	0002                	0x2
    15ec:	0000                	unimp
    15ee:	0000                	unimp
    15f0:	4000                	lw	s0,0(s0)
    15f2:	0002                	0x2
    15f4:	0000                	unimp
    15f6:	0000                	unimp
    15f8:	0200                	addi	s0,sp,256
    15fa:	3000                	fld	fs0,32(s0)
    15fc:	009f 0000 0000      	0x9f
	...
    160a:	0000                	unimp
    160c:	2800                	fld	fs0,16(s0)
    160e:	0002                	0x2
    1610:	0000                	unimp
    1612:	0000                	unimp
    1614:	4000                	lw	s0,0(s0)
    1616:	0002                	0x2
    1618:	0000                	unimp
    161a:	0000                	unimp
    161c:	0100                	addi	s0,sp,128
    161e:	5200                	lw	s0,32(a2)
	...
    1630:	0228                	addi	a0,sp,264
    1632:	0000                	unimp
    1634:	0000                	unimp
    1636:	0000                	unimp
    1638:	0240                	addi	s0,sp,260
    163a:	0000                	unimp
    163c:	0000                	unimp
    163e:	0000                	unimp
    1640:	0009                	0x9
    1642:	007a                	0x7a
    1644:	2008                	fld	fa0,0(s0)
    1646:	0824                	addi	s1,sp,24
    1648:	2620                	fld	fs0,72(a2)
    164a:	009f 0000 0000      	0x9f
	...
    1658:	0000                	unimp
    165a:	2800                	fld	fs0,16(s0)
    165c:	0002                	0x2
    165e:	0000                	unimp
    1660:	0000                	unimp
    1662:	4000                	lw	s0,0(s0)
    1664:	0002                	0x2
    1666:	0000                	unimp
    1668:	0000                	unimp
    166a:	0300                	addi	s0,sp,384
    166c:	0800                	addi	s0,sp,16
    166e:	9f50                	0x9f50
	...
    1680:	0260                	addi	s0,sp,268
    1682:	0000                	unimp
    1684:	0000                	unimp
    1686:	0000                	unimp
    1688:	0278                	addi	a4,sp,268
    168a:	0000                	unimp
    168c:	0000                	unimp
    168e:	0000                	unimp
    1690:	0001                	nop
    1692:	785a                	ld	a6,432(sp)
    1694:	0002                	0x2
    1696:	0000                	unimp
    1698:	0000                	unimp
    169a:	f000                	sd	s0,32(s0)
    169c:	0002                	0x2
    169e:	0000                	unimp
    16a0:	0000                	unimp
    16a2:	0100                	addi	s0,sp,128
    16a4:	6000                	ld	s0,0(s0)
	...
    16b6:	02ac                	addi	a1,sp,328
    16b8:	0000                	unimp
    16ba:	0000                	unimp
    16bc:	0000                	unimp
    16be:	02e4                	addi	s1,sp,332
    16c0:	0000                	unimp
    16c2:	0000                	unimp
    16c4:	0000                	unimp
    16c6:	0024                	addi	s1,sp,8
    16c8:	0072                	0x72
    16ca:	0306                	slli	t1,t1,0x1
    16cc:	1578                	addi	a4,sp,684
    16ce:	0001                	nop
    16d0:	0000                	unimp
    16d2:	0000                	unimp
    16d4:	1c06                	slli	s8,s8,0x21
    16d6:	400c                	lw	a1,0(s0)
    16d8:	0f42                	slli	t5,t5,0x10
    16da:	1e00                	addi	s0,sp,816
    16dc:	7891                	lui	a7,0xfffe4
    16de:	0306                	slli	t1,t1,0x1
    16e0:	1580                	addi	s0,sp,736
    16e2:	0001                	nop
    16e4:	0000                	unimp
    16e6:	0000                	unimp
    16e8:	1c06                	slli	s8,s8,0x21
    16ea:	9f22                	add	t5,t5,s0
    16ec:	02e4                	addi	s1,sp,332
    16ee:	0000                	unimp
    16f0:	0000                	unimp
    16f2:	0000                	unimp
    16f4:	02ec                	addi	a1,sp,332
    16f6:	0000                	unimp
    16f8:	0000                	unimp
    16fa:	0000                	unimp
    16fc:	0024                	addi	s1,sp,8
    16fe:	7072                	0x7072
    1700:	0306                	slli	t1,t1,0x1
    1702:	1578                	addi	a4,sp,684
    1704:	0001                	nop
    1706:	0000                	unimp
    1708:	0000                	unimp
    170a:	1c06                	slli	s8,s8,0x21
    170c:	400c                	lw	a1,0(s0)
    170e:	0f42                	slli	t5,t5,0x10
    1710:	1e00                	addi	s0,sp,816
    1712:	7872                	ld	a6,312(sp)
    1714:	0306                	slli	t1,t1,0x1
    1716:	1580                	addi	s0,sp,736
    1718:	0001                	nop
    171a:	0000                	unimp
    171c:	0000                	unimp
    171e:	1c06                	slli	s8,s8,0x21
    1720:	9f22                	add	t5,t5,s0
	...
    1732:	0274                	addi	a3,sp,268
    1734:	0000                	unimp
    1736:	0000                	unimp
    1738:	0000                	unimp
    173a:	0290                	addi	a2,sp,320
    173c:	0000                	unimp
    173e:	0000                	unimp
    1740:	0000                	unimp
    1742:	0002                	0x2
    1744:	9f30                	0x9f30
	...
    1756:	0274                	addi	a3,sp,268
    1758:	0000                	unimp
    175a:	0000                	unimp
    175c:	0000                	unimp
    175e:	0290                	addi	a2,sp,320
    1760:	0000                	unimp
    1762:	0000                	unimp
    1764:	0000                	unimp
    1766:	000a                	0xa
    1768:	01157803          	0x1157803
    176c:	0000                	unimp
    176e:	0000                	unimp
    1770:	9f00                	0x9f00
	...
    1782:	0274                	addi	a3,sp,268
    1784:	0000                	unimp
    1786:	0000                	unimp
    1788:	0000                	unimp
    178a:	0290                	addi	a2,sp,320
    178c:	0000                	unimp
    178e:	0000                	unimp
    1790:	0000                	unimp
    1792:	a9080003          	lb	zero,-1392(a6)
    1796:	009f 0000 0000      	0x9f
	...
    17a4:	0000                	unimp
    17a6:	9000                	0x9000
    17a8:	0002                	0x2
    17aa:	0000                	unimp
    17ac:	0000                	unimp
    17ae:	ac00                	fsd	fs0,24(s0)
    17b0:	0002                	0x2
    17b2:	0000                	unimp
    17b4:	0000                	unimp
    17b6:	0200                	addi	s0,sp,256
    17b8:	3000                	fld	fs0,32(s0)
    17ba:	009f 0000 0000      	0x9f
	...
    17c8:	0000                	unimp
    17ca:	9000                	0x9000
    17cc:	0002                	0x2
    17ce:	0000                	unimp
    17d0:	0000                	unimp
    17d2:	ac00                	fsd	fs0,24(s0)
    17d4:	0002                	0x2
    17d6:	0000                	unimp
    17d8:	0000                	unimp
    17da:	0100                	addi	s0,sp,128
    17dc:	5200                	lw	s0,32(a2)
	...
    17ee:	0290                	addi	a2,sp,320
    17f0:	0000                	unimp
    17f2:	0000                	unimp
    17f4:	0000                	unimp
    17f6:	02ac                	addi	a1,sp,328
    17f8:	0000                	unimp
    17fa:	0000                	unimp
    17fc:	0000                	unimp
    17fe:	a9080003          	lb	zero,-1392(a6)
    1802:	009f 0000 0000      	0x9f
	...
    1810:	0000                	unimp
    1812:	f000                	sd	s0,32(s0)
    1814:	0002                	0x2
    1816:	0000                	unimp
    1818:	0000                	unimp
    181a:	0800                	addi	s0,sp,16
    181c:	00000003          	lb	zero,0(zero) # 54 <_ftext-0xffac>
    1820:	0000                	unimp
    1822:	0100                	addi	s0,sp,128
    1824:	5a00                	lw	s0,48(a2)
    1826:	0308                	addi	a0,sp,384
    1828:	0000                	unimp
    182a:	0000                	unimp
    182c:	0000                	unimp
    182e:	0310                	addi	a2,sp,384
    1830:	0000                	unimp
    1832:	0000                	unimp
    1834:	0000                	unimp
    1836:	0004                	addi	s1,sp,0
    1838:	9f5a01f3          	0x9f5a01f3
	...
    184c:	02f0                	addi	a2,sp,332
    184e:	0000                	unimp
    1850:	0000                	unimp
    1852:	0000                	unimp
    1854:	02f4                	addi	a3,sp,332
    1856:	0000                	unimp
    1858:	0000                	unimp
    185a:	0000                	unimp
    185c:	0001                	nop
    185e:	0002f45b          	custom2	s0,t0,zero,0
    1862:	0000                	unimp
    1864:	0000                	unimp
    1866:	1000                	addi	s0,sp,32
    1868:	00000003          	lb	zero,0(zero)
    186c:	0000                	unimp
    186e:	0400                	addi	s0,sp,512
    1870:	f300                	sd	s0,32(a4)
    1872:	5b01                	li	s6,-32
    1874:	009f 0000 0000      	0x9f
	...
    1882:	0000                	unimp
    1884:	f000                	sd	s0,32(s0)
    1886:	0002                	0x2
    1888:	0000                	unimp
    188a:	0000                	unimp
    188c:	0800                	addi	s0,sp,16
    188e:	00000003          	lb	zero,0(zero)
    1892:	0000                	unimp
    1894:	0200                	addi	s0,sp,256
    1896:	3000                	fld	fs0,32(s0)
    1898:	009f 0000 0000      	0x9f
	...
    18a6:	0000                	unimp
    18a8:	f000                	sd	s0,32(s0)
    18aa:	0002                	0x2
    18ac:	0000                	unimp
    18ae:	0000                	unimp
    18b0:	0800                	addi	s0,sp,16
    18b2:	00000003          	lb	zero,0(zero)
    18b6:	0000                	unimp
    18b8:	0100                	addi	s0,sp,128
    18ba:	5a00                	lw	s0,48(a2)
	...
    18cc:	02f0                	addi	a2,sp,332
    18ce:	0000                	unimp
    18d0:	0000                	unimp
    18d2:	0000                	unimp
    18d4:	0308                	addi	a0,sp,384
    18d6:	0000                	unimp
    18d8:	0000                	unimp
    18da:	0000                	unimp
    18dc:	a9080003          	lb	zero,-1392(a6)
    18e0:	009f 0000 0000      	0x9f
	...
    18ee:	0000                	unimp
    18f0:	1000                	addi	s0,sp,32
    18f2:	00000003          	lb	zero,0(zero)
    18f6:	0000                	unimp
    18f8:	1c00                	addi	s0,sp,560
    18fa:	00000003          	lb	zero,0(zero)
    18fe:	0000                	unimp
    1900:	0100                	addi	s0,sp,128
    1902:	5a00                	lw	s0,48(a2)
    1904:	031c                	addi	a5,sp,384
    1906:	0000                	unimp
    1908:	0000                	unimp
    190a:	0000                	unimp
    190c:	0320                	addi	s0,sp,392
    190e:	0000                	unimp
    1910:	0000                	unimp
    1912:	0000                	unimp
    1914:	0004                	addi	s1,sp,0
    1916:	9f5a01f3          	0x9f5a01f3
	...
    192a:	0320                	addi	s0,sp,392
    192c:	0000                	unimp
    192e:	0000                	unimp
    1930:	0000                	unimp
    1932:	0324                	addi	s1,sp,392
    1934:	0000                	unimp
    1936:	0000                	unimp
    1938:	0000                	unimp
    193a:	0001                	nop
    193c:	245a                	fld	fs0,400(sp)
    193e:	00000003          	lb	zero,0(zero)
    1942:	0000                	unimp
    1944:	2800                	fld	fs0,16(s0)
    1946:	00000003          	lb	zero,0(zero)
    194a:	0000                	unimp
    194c:	0400                	addi	s0,sp,512
    194e:	f300                	sd	s0,32(a4)
    1950:	5a01                	li	s4,-32
    1952:	009f 0000 0000      	0x9f
	...
    1960:	0000                	unimp
    1962:	2800                	fld	fs0,16(s0)
    1964:	00000003          	lb	zero,0(zero)
    1968:	0000                	unimp
    196a:	2c00                	fld	fs0,24(s0)
    196c:	00000003          	lb	zero,0(zero)
    1970:	0000                	unimp
    1972:	0100                	addi	s0,sp,128
    1974:	5a00                	lw	s0,48(a2)
    1976:	032c                	addi	a1,sp,392
    1978:	0000                	unimp
    197a:	0000                	unimp
    197c:	0000                	unimp
    197e:	0330                	addi	a2,sp,392
    1980:	0000                	unimp
    1982:	0000                	unimp
    1984:	0000                	unimp
    1986:	0004                	addi	s1,sp,0
    1988:	9f5a01f3          	0x9f5a01f3
	...
    199c:	0330                	addi	a2,sp,392
    199e:	0000                	unimp
    19a0:	0000                	unimp
    19a2:	0000                	unimp
    19a4:	0334                	addi	a3,sp,392
    19a6:	0000                	unimp
    19a8:	0000                	unimp
    19aa:	0000                	unimp
    19ac:	0001                	nop
    19ae:	345a                	fld	fs0,432(sp)
    19b0:	00000003          	lb	zero,0(zero)
    19b4:	0000                	unimp
    19b6:	3800                	fld	fs0,48(s0)
    19b8:	00000003          	lb	zero,0(zero)
    19bc:	0000                	unimp
    19be:	0400                	addi	s0,sp,512
    19c0:	f300                	sd	s0,32(a4)
    19c2:	5a01                	li	s4,-32
    19c4:	009f 0000 0000      	0x9f
	...
    19d2:	0000                	unimp
    19d4:	3800                	fld	fs0,48(s0)
    19d6:	00000003          	lb	zero,0(zero)
    19da:	0000                	unimp
    19dc:	3c00                	fld	fs0,56(s0)
    19de:	00000003          	lb	zero,0(zero)
    19e2:	0000                	unimp
    19e4:	0100                	addi	s0,sp,128
    19e6:	5a00                	lw	s0,48(a2)
    19e8:	033c                	addi	a5,sp,392
    19ea:	0000                	unimp
    19ec:	0000                	unimp
    19ee:	0000                	unimp
    19f0:	0340                	addi	s0,sp,388
    19f2:	0000                	unimp
    19f4:	0000                	unimp
    19f6:	0000                	unimp
    19f8:	0004                	addi	s1,sp,0
    19fa:	9f5a01f3          	0x9f5a01f3
	...
    1a0e:	0340                	addi	s0,sp,388
    1a10:	0000                	unimp
    1a12:	0000                	unimp
    1a14:	0000                	unimp
    1a16:	0344                	addi	s1,sp,388
    1a18:	0000                	unimp
    1a1a:	0000                	unimp
    1a1c:	0000                	unimp
    1a1e:	0001                	nop
    1a20:	445a                	lw	s0,148(sp)
    1a22:	00000003          	lb	zero,0(zero)
    1a26:	0000                	unimp
    1a28:	4800                	lw	s0,16(s0)
    1a2a:	00000003          	lb	zero,0(zero)
    1a2e:	0000                	unimp
    1a30:	0400                	addi	s0,sp,512
    1a32:	f300                	sd	s0,32(a4)
    1a34:	5a01                	li	s4,-32
    1a36:	009f 0000 0000      	0x9f
	...
    1a44:	0000                	unimp
    1a46:	4800                	lw	s0,16(s0)
    1a48:	00000003          	lb	zero,0(zero)
    1a4c:	0000                	unimp
    1a4e:	5400                	lw	s0,40(s0)
    1a50:	00000003          	lb	zero,0(zero)
    1a54:	0000                	unimp
    1a56:	0100                	addi	s0,sp,128
    1a58:	5a00                	lw	s0,48(a2)
    1a5a:	0354                	addi	a3,sp,388
    1a5c:	0000                	unimp
    1a5e:	0000                	unimp
    1a60:	0000                	unimp
    1a62:	035c                	addi	a5,sp,388
    1a64:	0000                	unimp
    1a66:	0000                	unimp
    1a68:	0000                	unimp
    1a6a:	0004                	addi	s1,sp,0
    1a6c:	9f5a01f3          	0x9f5a01f3
    1a70:	035c                	addi	a5,sp,388
    1a72:	0000                	unimp
    1a74:	0000                	unimp
    1a76:	0000                	unimp
    1a78:	0360                	addi	s0,sp,396
    1a7a:	0000                	unimp
    1a7c:	0000                	unimp
    1a7e:	0000                	unimp
    1a80:	0001                	nop
    1a82:	605a                	0x605a
    1a84:	00000003          	lb	zero,0(zero)
    1a88:	0000                	unimp
    1a8a:	6400                	ld	s0,8(s0)
    1a8c:	00000003          	lb	zero,0(zero)
    1a90:	0000                	unimp
    1a92:	0400                	addi	s0,sp,512
    1a94:	f300                	sd	s0,32(a4)
    1a96:	5a01                	li	s4,-32
    1a98:	009f 0000 0000      	0x9f
	...
    1aa6:	0000                	unimp
    1aa8:	6400                	ld	s0,8(s0)
    1aaa:	00000003          	lb	zero,0(zero)
    1aae:	0000                	unimp
    1ab0:	7c00                	ld	s0,56(s0)
    1ab2:	00000003          	lb	zero,0(zero)
    1ab6:	0000                	unimp
    1ab8:	0100                	addi	s0,sp,128
    1aba:	5a00                	lw	s0,48(a2)
    1abc:	037c                	addi	a5,sp,396
    1abe:	0000                	unimp
    1ac0:	0000                	unimp
    1ac2:	0000                	unimp
    1ac4:	03a0                	addi	s0,sp,456
    1ac6:	0000                	unimp
    1ac8:	0000                	unimp
    1aca:	0000                	unimp
    1acc:	0001                	nop
    1ace:	a05f 0003 0000      	0x3a05f
    1ad4:	0000                	unimp
    1ad6:	b400                	fsd	fs0,40(s0)
    1ad8:	00000003          	lb	zero,0(zero)
    1adc:	0000                	unimp
    1ade:	0400                	addi	s0,sp,512
    1ae0:	f300                	sd	s0,32(a4)
    1ae2:	5a01                	li	s4,-32
    1ae4:	009f 0000 0000      	0x9f
	...
    1af2:	0000                	unimp
    1af4:	7800                	ld	s0,48(s0)
    1af6:	00000003          	lb	zero,0(zero)
    1afa:	0000                	unimp
    1afc:	9800                	0x9800
    1afe:	00000003          	lb	zero,0(zero)
    1b02:	0000                	unimp
    1b04:	0200                	addi	s0,sp,256
    1b06:	3000                	fld	fs0,32(s0)
    1b08:	009f 0000 0000      	0x9f
	...
    1b16:	0000                	unimp
    1b18:	7800                	ld	s0,48(s0)
    1b1a:	00000003          	lb	zero,0(zero)
    1b1e:	0000                	unimp
    1b20:	7c00                	ld	s0,56(s0)
    1b22:	00000003          	lb	zero,0(zero)
    1b26:	0000                	unimp
    1b28:	0600                	addi	s0,sp,768
    1b2a:	7a00                	ld	s0,48(a2)
    1b2c:	7e00                	ld	s0,56(a2)
    1b2e:	2200                	fld	fs0,0(a2)
    1b30:	7c9f 0003 0000      	0x37c9f
    1b36:	0000                	unimp
    1b38:	9400                	0x9400
    1b3a:	00000003          	lb	zero,0(zero)
    1b3e:	0000                	unimp
    1b40:	0100                	addi	s0,sp,128
    1b42:	5a00                	lw	s0,48(a2)
    1b44:	0394                	addi	a3,sp,448
    1b46:	0000                	unimp
    1b48:	0000                	unimp
    1b4a:	0000                	unimp
    1b4c:	0398                	addi	a4,sp,448
    1b4e:	0000                	unimp
    1b50:	0000                	unimp
    1b52:	0000                	unimp
    1b54:	0006                	0x6
    1b56:	007f                	0x7f
    1b58:	007e                	0x7e
    1b5a:	9f22                	add	t5,t5,s0
	...
    1b6c:	0378                	addi	a4,sp,396
    1b6e:	0000                	unimp
    1b70:	0000                	unimp
    1b72:	0000                	unimp
    1b74:	0398                	addi	a4,sp,448
    1b76:	0000                	unimp
    1b78:	0000                	unimp
    1b7a:	0000                	unimp
    1b7c:	d6080003          	lb	zero,-672(a6)
    1b80:	009f 0000 0000      	0x9f
	...
    1b8e:	0000                	unimp
    1b90:	b400                	fsd	fs0,40(s0)
    1b92:	00000003          	lb	zero,0(zero)
    1b96:	0000                	unimp
    1b98:	cc00                	sw	s0,24(s0)
    1b9a:	00000003          	lb	zero,0(zero)
    1b9e:	0000                	unimp
    1ba0:	0100                	addi	s0,sp,128
    1ba2:	5a00                	lw	s0,48(a2)
    1ba4:	03cc                	addi	a1,sp,452
    1ba6:	0000                	unimp
    1ba8:	0000                	unimp
    1baa:	0000                	unimp
    1bac:	03d0                	addi	a2,sp,452
    1bae:	0000                	unimp
    1bb0:	0000                	unimp
    1bb2:	0000                	unimp
    1bb4:	0004                	addi	s1,sp,0
    1bb6:	9f5a01f3          	0x9f5a01f3
	...
    1bca:	03b4                	addi	a3,sp,456
    1bcc:	0000                	unimp
    1bce:	0000                	unimp
    1bd0:	0000                	unimp
    1bd2:	03cc                	addi	a1,sp,452
    1bd4:	0000                	unimp
    1bd6:	0000                	unimp
    1bd8:	0000                	unimp
    1bda:	0009                	0x9
    1bdc:	007a                	0x7a
    1bde:	2008                	fld	fa0,0(s0)
    1be0:	0824                	addi	s1,sp,24
    1be2:	2620                	fld	fs0,72(a2)
    1be4:	cc9f 0003 0000      	0x3cc9f
    1bea:	0000                	unimp
    1bec:	d000                	sw	s0,32(s0)
    1bee:	00000003          	lb	zero,0(zero)
    1bf2:	0000                	unimp
    1bf4:	0a00                	addi	s0,sp,272
    1bf6:	f300                	sd	s0,32(a4)
    1bf8:	5a01                	li	s4,-32
    1bfa:	2008                	fld	fa0,0(s0)
    1bfc:	0824                	addi	s1,sp,24
    1bfe:	2620                	fld	fs0,72(a2)
    1c00:	009f 0000 0000      	0x9f
	...

Disassembly of section .debug_aranges:

0000000000000000 <.debug_aranges>:
   0:	002c                	addi	a1,sp,8
   2:	0000                	unimp
   4:	0002                	0x2
   6:	0000                	unimp
   8:	0000                	unimp
   a:	0008                	addi	a0,sp,0
   c:	0000                	unimp
   e:	0000                	unimp
  10:	01b4                	addi	a3,sp,200
  12:	0001                	nop
  14:	0000                	unimp
  16:	0000                	unimp
  18:	0014                	addi	a3,sp,0
	...
  2e:	0000                	unimp
  30:	002c                	addi	a1,sp,8
  32:	0000                	unimp
  34:	0002                	0x2
  36:	010e                	slli	sp,sp,0x3
  38:	0000                	unimp
  3a:	0008                	addi	a0,sp,0
  3c:	0000                	unimp
  3e:	0000                	unimp
  40:	01c8                	addi	a0,sp,196
  42:	0001                	nop
  44:	0000                	unimp
  46:	0000                	unimp
  48:	0030                	addi	a2,sp,8
	...
  5e:	0000                	unimp
  60:	002c                	addi	a1,sp,8
  62:	0000                	unimp
  64:	0002                	0x2
  66:	00000a0f          	0xa0f
  6a:	0008                	addi	a0,sp,0
  6c:	0000                	unimp
  6e:	0000                	unimp
  70:	01f8                	addi	a4,sp,204
  72:	0001                	nop
  74:	0000                	unimp
  76:	0000                	unimp
  78:	005c                	addi	a5,sp,4
	...
  8e:	0000                	unimp
  90:	001c                	addi	a5,sp,0
  92:	0000                	unimp
  94:	0002                	0x2
  96:	0b19                	addi	s6,s6,6
  98:	0000                	unimp
  9a:	0008                	addi	a0,sp,0
	...
  b0:	002c                	addi	a1,sp,8
  b2:	0000                	unimp
  b4:	0002                	0x2
  b6:	000013cb          	fnmsub.s	ft7,ft0,ft0,ft0,rtz
  ba:	0008                	addi	a0,sp,0
  bc:	0000                	unimp
  be:	0000                	unimp
  c0:	0254                	addi	a3,sp,260
  c2:	0001                	nop
  c4:	0000                	unimp
  c6:	0000                	unimp
  c8:	00a0                	addi	s0,sp,72
	...
  de:	0000                	unimp
  e0:	002c                	addi	a1,sp,8
  e2:	0000                	unimp
  e4:	0002                	0x2
  e6:	000014eb          	0x14eb
  ea:	0008                	addi	a0,sp,0
  ec:	0000                	unimp
  ee:	0000                	unimp
  f0:	02f4                	addi	a3,sp,332
  f2:	0001                	nop
  f4:	0000                	unimp
  f6:	0000                	unimp
  f8:	0114                	addi	a3,sp,128
	...
 10e:	0000                	unimp
 110:	002c                	addi	a1,sp,8
 112:	0000                	unimp
 114:	0002                	0x2
 116:	1e38                	addi	a4,sp,824
 118:	0000                	unimp
 11a:	0008                	addi	a0,sp,0
 11c:	0000                	unimp
 11e:	0000                	unimp
 120:	0408                	addi	a0,sp,512
 122:	0001                	nop
 124:	0000                	unimp
 126:	0000                	unimp
 128:	0194                	addi	a3,sp,192
	...
 13e:	0000                	unimp
 140:	002c                	addi	a1,sp,8
 142:	0000                	unimp
 144:	0002                	0x2
 146:	27b9                	addiw	a5,a5,14
 148:	0000                	unimp
 14a:	0008                	addi	a0,sp,0
 14c:	0000                	unimp
 14e:	0000                	unimp
 150:	059c                	addi	a5,sp,704
 152:	0001                	nop
 154:	0000                	unimp
 156:	0000                	unimp
 158:	03d0                	addi	a2,sp,452
	...
 16e:	0000                	unimp
 170:	002c                	addi	a1,sp,8
 172:	0000                	unimp
 174:	0002                	0x2
 176:	00003e3b          	0x3e3b
 17a:	0008                	addi	a0,sp,0
 17c:	0000                	unimp
 17e:	0000                	unimp
 180:	096c                	addi	a1,sp,156
 182:	0001                	nop
 184:	0000                	unimp
 186:	0000                	unimp
 188:	0008                	addi	a0,sp,0
	...

Disassembly of section .debug_line:

0000000000000000 <.debug_line>:
       0:	00000113          	li	sp,0
       4:	0004                	addi	s1,sp,0
       6:	000000e7          	jalr	zero
       a:	0101                	addi	sp,sp,0
       c:	f601                	bnez	a2,ffffffffffffff14 <_gp+0xfffffffffffee1f4>
       e:	0df2                	slli	s11,s11,0x1c
      10:	0100                	addi	s0,sp,128
      12:	0101                	addi	sp,sp,0
      14:	0001                	nop
      16:	0000                	unimp
      18:	0001                	nop
      1a:	0100                	addi	s0,sp,128
      1c:	6d6f682f          	0x6d6f682f
      20:	2f65                	addiw	t5,t5,25
      22:	696c                	ld	a1,208(a0)
      24:	7775                	lui	a4,0xffffd
      26:	6e65                	lui	t3,0x19
      28:	696c                	ld	a1,208(a0)
      2a:	7369722f          	0x7369722f
      2e:	742d7663          	bleu	sp,s10,77a <_ftext-0xf886>
      32:	736c6f6f          	jal	t5,c6768 <_gp+0xb4a48>
      36:	7369722f          	0x7369722f
      3a:	672d7663          	bleu	s2,s10,6a6 <_ftext-0xf95a>
      3e:	756e                	ld	a0,248(sp)
      40:	742d                	lui	s0,0xfffeb
      42:	636c6f6f          	jal	t5,c6678 <_gp+0xb4958>
      46:	6168                	ld	a0,192(a0)
      48:	6e69                	lui	t3,0x1a
      4a:	6975622f          	0x6975622f
      4e:	646c                	ld	a1,200(s0)
      50:	6372732f          	0x6372732f
      54:	77656e2f          	0x77656e2f
      58:	696c                	ld	a1,208(a0)
      5a:	2d62                	fld	fs10,24(sp)
      5c:	2f636367          	0x2f636367
      60:	656e                	ld	a0,216(sp)
      62:	62696c77          	0x62696c77
      66:	62696c2f          	0x62696c2f
      6a:	6e692f63          	0x6e692f63
      6e:	64756c63          	bltu	a0,t2,6c6 <_ftext-0xf93a>
      72:	0065                	0x65
      74:	6d6f682f          	0x6d6f682f
      78:	2f65                	addiw	t5,t5,25
      7a:	696c                	ld	a1,208(a0)
      7c:	7775                	lui	a4,0xffffd
      7e:	6e65                	lui	t3,0x19
      80:	696c                	ld	a1,208(a0)
      82:	7369722f          	0x7369722f
      86:	742d7663          	bleu	sp,s10,7d2 <_ftext-0xf82e>
      8a:	736c6f6f          	jal	t5,c67c0 <_gp+0xb4aa0>
      8e:	7369722f          	0x7369722f
      92:	672d7663          	bleu	s2,s10,6fe <_ftext-0xf902>
      96:	756e                	ld	a0,248(sp)
      98:	742d                	lui	s0,0xfffeb
      9a:	636c6f6f          	jal	t5,c66d0 <_gp+0xb49b0>
      9e:	6168                	ld	a0,192(a0)
      a0:	6e69                	lui	t3,0x1a
      a2:	6975622f          	0x6975622f
      a6:	646c                	ld	a1,200(s0)
      a8:	6372732f          	0x6372732f
      ac:	77656e2f          	0x77656e2f
      b0:	696c                	ld	a1,208(a0)
      b2:	2d62                	fld	fs10,24(sp)
      b4:	2f636367          	0x2f636367
      b8:	656e                	ld	a0,216(sp)
      ba:	62696c77          	0x62696c77
      be:	62696c2f          	0x62696c2f
      c2:	74732f63          	0x74732f63
      c6:	6c64                	ld	s1,216(s0)
      c8:	6269                	lui	tp,0x1a
      ca:	0000                	unimp
      cc:	7461                	lui	s0,0xffff8
      ce:	7865                	lui	a6,0xffff9
      d0:	7469                	lui	s0,0xffffa
      d2:	632e                	ld	t1,200(sp)
      d4:	0200                	addi	s0,sp,256
      d6:	0000                	unimp
      d8:	7461                	lui	s0,0xffff8
      da:	7865                	lui	a6,0xffff9
      dc:	7469                	lui	s0,0xffffa
      de:	682e                	ld	a6,200(sp)
      e0:	0200                	addi	s0,sp,256
      e2:	0000                	unimp
      e4:	6c647473          	csrrc	s0,0x6c6,8
      e8:	6269                	lui	tp,0x1a
      ea:	682e                	ld	a6,200(sp)
      ec:	0100                	addi	s0,sp,128
      ee:	0000                	unimp
      f0:	0000                	unimp
      f2:	0209                	addi	tp,tp,2
      f4:	01b4                	addi	a3,sp,200
      f6:	0001                	nop
      f8:	0000                	unimp
      fa:	0000                	unimp
      fc:	0056                	0x56
      fe:	0209                	addi	tp,tp,2
     100:	01b4                	addi	a3,sp,200
     102:	0001                	nop
     104:	0000                	unimp
     106:	0000                	unimp
     108:	0018                	addi	a4,sp,0
     10a:	0209                	addi	tp,tp,2
     10c:	01c8                	addi	a0,sp,196
     10e:	0001                	nop
     110:	0000                	unimp
     112:	0000                	unimp
     114:	0100                	addi	s0,sp,128
     116:	d201                	beqz	a2,16 <_ftext-0xffea>
     118:	0002                	0x2
     11a:	0400                	addi	s0,sp,512
     11c:	5e00                	lw	s0,56(a2)
     11e:	0002                	0x2
     120:	0100                	addi	s0,sp,128
     122:	0101                	addi	sp,sp,0
     124:	f2f6                	sd	t4,352(sp)
     126:	000d                	0xd
     128:	0101                	addi	sp,sp,0
     12a:	0101                	addi	sp,sp,0
     12c:	0000                	unimp
     12e:	0100                	addi	s0,sp,128
     130:	0000                	unimp
     132:	2f01                	sext.w	t5,t5
     134:	6f68                	ld	a0,216(a4)
     136:	656d                	lui	a0,0x1b
     138:	75696c2f          	0x75696c2f
     13c:	6c6e6577          	0x6c6e6577
     140:	2f69                	addiw	t5,t5,26
     142:	6972                	ld	s2,280(sp)
     144:	2d766373          	csrrs	t1,0x2d7,12
     148:	6f74                	ld	a3,216(a4)
     14a:	2f736c6f          	jal	s8,36c40 <_gp+0x24f20>
     14e:	6972                	ld	s2,280(sp)
     150:	2d766373          	csrrs	t1,0x2d7,12
     154:	2d756e67          	0x2d756e67
     158:	6f74                	ld	a3,216(a4)
     15a:	68636c6f          	jal	s8,367e0 <_gp+0x24ac0>
     15e:	6961                	lui	s2,0x18
     160:	2f6e                	fld	ft10,216(sp)
     162:	7562                	ld	a0,56(sp)
     164:	6c69                	lui	s8,0x1a
     166:	2f64                	fld	fs1,216(a4)
     168:	7562                	ld	a0,56(sp)
     16a:	6c69                	lui	s8,0x1a
     16c:	2d64                	fld	fs1,216(a0)
     16e:	2d636367          	0x2d636367
     172:	656e                	ld	a0,216(sp)
     174:	62696c77          	0x62696c77
     178:	6363672f          	0x6363672f
     17c:	636e692f          	0x636e692f
     180:	756c                	ld	a1,232(a0)
     182:	6564                	ld	s1,200(a0)
     184:	2f00                	fld	fs0,24(a4)
     186:	6f68                	ld	a0,216(a4)
     188:	656d                	lui	a0,0x1b
     18a:	75696c2f          	0x75696c2f
     18e:	6c6e6577          	0x6c6e6577
     192:	2f69                	addiw	t5,t5,26
     194:	6972                	ld	s2,280(sp)
     196:	2d766373          	csrrs	t1,0x2d7,12
     19a:	6f74                	ld	a3,216(a4)
     19c:	2f736c6f          	jal	s8,36c92 <_gp+0x24f72>
     1a0:	6972                	ld	s2,280(sp)
     1a2:	2d766373          	csrrs	t1,0x2d7,12
     1a6:	2d756e67          	0x2d756e67
     1aa:	6f74                	ld	a3,216(a4)
     1ac:	68636c6f          	jal	s8,36832 <_gp+0x24b12>
     1b0:	6961                	lui	s2,0x18
     1b2:	2f6e                	fld	ft10,216(sp)
     1b4:	7562                	ld	a0,56(sp)
     1b6:	6c69                	lui	s8,0x1a
     1b8:	2f64                	fld	fs1,216(a4)
     1ba:	7562                	ld	a0,56(sp)
     1bc:	6c69                	lui	s8,0x1a
     1be:	2d64                	fld	fs1,216(a0)
     1c0:	2d636367          	0x2d636367
     1c4:	656e                	ld	a0,216(sp)
     1c6:	62696c77          	0x62696c77
     1ca:	7369722f          	0x7369722f
     1ce:	34367663          	bleu	gp,a2,51a <_ftext-0xfae6>
     1d2:	752d                	lui	a0,0xfffeb
     1d4:	6b6e                	ld	s6,216(sp)
     1d6:	6f6e                	ld	t5,216(sp)
     1d8:	652d6e77          	0x652d6e77
     1dc:	666c                	ld	a1,200(a2)
     1de:	77656e2f          	0x77656e2f
     1e2:	696c                	ld	a1,208(a0)
     1e4:	2f62                	fld	ft10,24(sp)
     1e6:	6174                	ld	a3,192(a0)
     1e8:	6772                	ld	a4,280(sp)
     1ea:	692d                	lui	s2,0xb
     1ec:	636e                	ld	t1,216(sp)
     1ee:	756c                	ld	a1,232(a0)
     1f0:	6564                	ld	s1,200(a0)
     1f2:	63616d2f          	0x63616d2f
     1f6:	6968                	ld	a0,208(a0)
     1f8:	656e                	ld	a0,216(sp)
     1fa:	2f00                	fld	fs0,24(a4)
     1fc:	6f68                	ld	a0,216(a4)
     1fe:	656d                	lui	a0,0x1b
     200:	75696c2f          	0x75696c2f
     204:	6c6e6577          	0x6c6e6577
     208:	2f69                	addiw	t5,t5,26
     20a:	6972                	ld	s2,280(sp)
     20c:	2d766373          	csrrs	t1,0x2d7,12
     210:	6f74                	ld	a3,216(a4)
     212:	2f736c6f          	jal	s8,36d08 <_gp+0x24fe8>
     216:	6972                	ld	s2,280(sp)
     218:	2d766373          	csrrs	t1,0x2d7,12
     21c:	2d756e67          	0x2d756e67
     220:	6f74                	ld	a3,216(a4)
     222:	68636c6f          	jal	s8,368a8 <_gp+0x24b88>
     226:	6961                	lui	s2,0x18
     228:	2f6e                	fld	ft10,216(sp)
     22a:	7562                	ld	a0,56(sp)
     22c:	6c69                	lui	s8,0x1a
     22e:	2f64                	fld	fs1,216(a4)
     230:	2f637273          	csrrc	tp,0x2f6,6
     234:	656e                	ld	a0,216(sp)
     236:	62696c77          	0x62696c77
     23a:	672d                	lui	a4,0xb
     23c:	6e2f6363          	bltu	t5,sp,922 <_ftext-0xf6de>
     240:	7765                	lui	a4,0xffff9
     242:	696c                	ld	a1,208(a0)
     244:	2f62                	fld	ft10,24(sp)
     246:	696c                	ld	a1,208(a0)
     248:	6362                	ld	t1,24(sp)
     24a:	636e692f          	0x636e692f
     24e:	756c                	ld	a1,232(a0)
     250:	6564                	ld	s1,200(a0)
     252:	2f00                	fld	fs0,24(a4)
     254:	6f68                	ld	a0,216(a4)
     256:	656d                	lui	a0,0x1b
     258:	75696c2f          	0x75696c2f
     25c:	6c6e6577          	0x6c6e6577
     260:	2f69                	addiw	t5,t5,26
     262:	6972                	ld	s2,280(sp)
     264:	2d766373          	csrrs	t1,0x2d7,12
     268:	6f74                	ld	a3,216(a4)
     26a:	2f736c6f          	jal	s8,36d60 <_gp+0x25040>
     26e:	6972                	ld	s2,280(sp)
     270:	2d766373          	csrrs	t1,0x2d7,12
     274:	2d756e67          	0x2d756e67
     278:	6f74                	ld	a3,216(a4)
     27a:	68636c6f          	jal	s8,36900 <_gp+0x24be0>
     27e:	6961                	lui	s2,0x18
     280:	2f6e                	fld	ft10,216(sp)
     282:	7562                	ld	a0,56(sp)
     284:	6c69                	lui	s8,0x1a
     286:	2f64                	fld	fs1,216(a4)
     288:	2f637273          	csrrc	tp,0x2f6,6
     28c:	656e                	ld	a0,216(sp)
     28e:	62696c77          	0x62696c77
     292:	672d                	lui	a4,0xb
     294:	6e2f6363          	bltu	t5,sp,97a <_ftext-0xf686>
     298:	7765                	lui	a4,0xffff9
     29a:	696c                	ld	a1,208(a0)
     29c:	2f62                	fld	ft10,24(sp)
     29e:	696c                	ld	a1,208(a0)
     2a0:	6362                	ld	t1,24(sp)
     2a2:	636e692f          	0x636e692f
     2a6:	756c                	ld	a1,232(a0)
     2a8:	6564                	ld	s1,200(a0)
     2aa:	7379732f          	0x7379732f
     2ae:	2f00                	fld	fs0,24(a4)
     2b0:	6f68                	ld	a0,216(a4)
     2b2:	656d                	lui	a0,0x1b
     2b4:	75696c2f          	0x75696c2f
     2b8:	6c6e6577          	0x6c6e6577
     2bc:	2f69                	addiw	t5,t5,26
     2be:	6972                	ld	s2,280(sp)
     2c0:	2d766373          	csrrs	t1,0x2d7,12
     2c4:	6f74                	ld	a3,216(a4)
     2c6:	2f736c6f          	jal	s8,36dbc <_gp+0x2509c>
     2ca:	6972                	ld	s2,280(sp)
     2cc:	2d766373          	csrrs	t1,0x2d7,12
     2d0:	2d756e67          	0x2d756e67
     2d4:	6f74                	ld	a3,216(a4)
     2d6:	68636c6f          	jal	s8,3695c <_gp+0x24c3c>
     2da:	6961                	lui	s2,0x18
     2dc:	2f6e                	fld	ft10,216(sp)
     2de:	7562                	ld	a0,56(sp)
     2e0:	6c69                	lui	s8,0x1a
     2e2:	2f64                	fld	fs1,216(a4)
     2e4:	2f637273          	csrrc	tp,0x2f6,6
     2e8:	656e                	ld	a0,216(sp)
     2ea:	62696c77          	0x62696c77
     2ee:	672d                	lui	a4,0xb
     2f0:	6e2f6363          	bltu	t5,sp,9d6 <_ftext-0xf62a>
     2f4:	7765                	lui	a4,0xffff9
     2f6:	696c                	ld	a1,208(a0)
     2f8:	2f62                	fld	ft10,24(sp)
     2fa:	696c                	ld	a1,208(a0)
     2fc:	6362                	ld	t1,24(sp)
     2fe:	6474732f          	0x6474732f
     302:	696c                	ld	a1,208(a0)
     304:	0062                	0x62
     306:	6500                	ld	s0,8(a0)
     308:	6978                	ld	a4,208(a0)
     30a:	2e74                	fld	fa3,216(a2)
     30c:	00050063          	beqz	a0,30c <_ftext-0xfcf4>
     310:	5f00                	lw	s0,56(a4)
     312:	7974                	ld	a3,240(a0)
     314:	6570                	ld	a2,200(a0)
     316:	00682e73          	csrrs	t3,0x6,a6
     31a:	0002                	0x2
     31c:	7300                	ld	s0,32(a4)
     31e:	7379                	lui	t1,0xffffe
     320:	636f6c2f          	0x636f6c2f
     324:	00682e6b          	0x682e6b
     328:	73000003          	lb	zero,1840(zero)
     32c:	6474                	ld	a3,200(s0)
     32e:	6564                	ld	s1,200(a0)
     330:	2e66                	fld	ft8,88(sp)
     332:	0068                	addi	a0,sp,12
     334:	0001                	nop
     336:	7300                	ld	s0,32(a4)
     338:	7379                	lui	t1,0xffffe
     33a:	79745f2f          	0x79745f2f
     33e:	6570                	ld	a2,200(a0)
     340:	00682e73          	csrrs	t3,0x6,a6
     344:	73000003          	lb	zero,1840(zero)
     348:	7379                	lui	t1,0xffffe
     34a:	6565722f          	0x6565722f
     34e:	746e                	ld	s0,248(sp)
     350:	682e                	ld	a6,200(sp)
     352:	0300                	addi	s0,sp,384
     354:	0000                	unimp
     356:	7461                	lui	s0,0xffff8
     358:	7865                	lui	a6,0xffff9
     35a:	7469                	lui	s0,0xffffa
     35c:	682e                	ld	a6,200(sp)
     35e:	0500                	addi	s0,sp,640
     360:	0000                	unimp
     362:	2f737973          	csrrc	s2,0x2f7,6
     366:	6e75                	lui	t3,0x1d
     368:	7369                	lui	t1,0xffffa
     36a:	6474                	ld	a3,200(s0)
     36c:	682e                	ld	a6,200(sp)
     36e:	0300                	addi	s0,sp,384
     370:	0000                	unimp
     372:	6c647473          	csrrc	s0,0x6c6,8
     376:	6269                	lui	tp,0x1a
     378:	682e                	ld	a6,200(sp)
     37a:	0300                	addi	s0,sp,384
     37c:	0000                	unimp
     37e:	0000                	unimp
     380:	0209                	addi	tp,tp,2
     382:	01c8                	addi	a0,sp,196
     384:	0001                	nop
     386:	0000                	unimp
     388:	0000                	unimp
     38a:	0052                	0x52
     38c:	0209                	addi	tp,tp,2
     38e:	01cc                	addi	a1,sp,196
     390:	0001                	nop
     392:	0000                	unimp
     394:	0000                	unimp
     396:	001d                	0x1d
     398:	0209                	addi	tp,tp,2
     39a:	01d0                	addi	a2,sp,196
     39c:	0001                	nop
     39e:	0000                	unimp
     3a0:	0000                	unimp
     3a2:	0011                	0x11
     3a4:	0209                	addi	tp,tp,2
     3a6:	01d8                	addi	a4,sp,196
     3a8:	0001                	nop
     3aa:	0000                	unimp
     3ac:	0000                	unimp
     3ae:	0001                	nop
     3b0:	0209                	addi	tp,tp,2
     3b2:	01dc                	addi	a5,sp,196
     3b4:	0001                	nop
     3b6:	0000                	unimp
     3b8:	0000                	unimp
     3ba:	001d                	0x1d
     3bc:	0209                	addi	tp,tp,2
     3be:	01e0                	addi	s0,sp,204
     3c0:	0001                	nop
     3c2:	0000                	unimp
     3c4:	0000                	unimp
     3c6:	0019                	0x19
     3c8:	0209                	addi	tp,tp,2
     3ca:	01ec                	addi	a1,sp,204
     3cc:	0001                	nop
     3ce:	0000                	unimp
     3d0:	0000                	unimp
     3d2:	0018                	addi	a4,sp,0
     3d4:	0209                	addi	tp,tp,2
     3d6:	01f0                	addi	a2,sp,204
     3d8:	0001                	nop
     3da:	0000                	unimp
     3dc:	0000                	unimp
     3de:	0018                	addi	a4,sp,0
     3e0:	0209                	addi	tp,tp,2
     3e2:	01f8                	addi	a4,sp,204
     3e4:	0001                	nop
     3e6:	0000                	unimp
     3e8:	0000                	unimp
     3ea:	0100                	addi	s0,sp,128
     3ec:	5901                	li	s2,-32
     3ee:	0001                	nop
     3f0:	0400                	addi	s0,sp,512
     3f2:	d100                	sw	s0,32(a0)
     3f4:	0000                	unimp
     3f6:	0100                	addi	s0,sp,128
     3f8:	0101                	addi	sp,sp,0
     3fa:	f2f6                	sd	t4,352(sp)
     3fc:	000d                	0xd
     3fe:	0101                	addi	sp,sp,0
     400:	0101                	addi	sp,sp,0
     402:	0000                	unimp
     404:	0100                	addi	s0,sp,128
     406:	0000                	unimp
     408:	2f01                	sext.w	t5,t5
     40a:	6f68                	ld	a0,216(a4)
     40c:	656d                	lui	a0,0x1b
     40e:	75696c2f          	0x75696c2f
     412:	6c6e6577          	0x6c6e6577
     416:	2f69                	addiw	t5,t5,26
     418:	6972                	ld	s2,280(sp)
     41a:	2d766373          	csrrs	t1,0x2d7,12
     41e:	6f74                	ld	a3,216(a4)
     420:	2f736c6f          	jal	s8,36f16 <_gp+0x251f6>
     424:	6972                	ld	s2,280(sp)
     426:	2d766373          	csrrs	t1,0x2d7,12
     42a:	2d756e67          	0x2d756e67
     42e:	6f74                	ld	a3,216(a4)
     430:	68636c6f          	jal	s8,36ab6 <_gp+0x24d96>
     434:	6961                	lui	s2,0x18
     436:	2f6e                	fld	ft10,216(sp)
     438:	7562                	ld	a0,56(sp)
     43a:	6c69                	lui	s8,0x1a
     43c:	2f64                	fld	fs1,216(a4)
     43e:	7562                	ld	a0,56(sp)
     440:	6c69                	lui	s8,0x1a
     442:	2d64                	fld	fs1,216(a0)
     444:	2d636367          	0x2d636367
     448:	656e                	ld	a0,216(sp)
     44a:	62696c77          	0x62696c77
     44e:	6363672f          	0x6363672f
     452:	636e692f          	0x636e692f
     456:	756c                	ld	a1,232(a0)
     458:	6564                	ld	s1,200(a0)
     45a:	2f00                	fld	fs0,24(a4)
     45c:	6f68                	ld	a0,216(a4)
     45e:	656d                	lui	a0,0x1b
     460:	75696c2f          	0x75696c2f
     464:	6c6e6577          	0x6c6e6577
     468:	2f69                	addiw	t5,t5,26
     46a:	6972                	ld	s2,280(sp)
     46c:	2d766373          	csrrs	t1,0x2d7,12
     470:	6f74                	ld	a3,216(a4)
     472:	2f736c6f          	jal	s8,36f68 <_gp+0x25248>
     476:	6972                	ld	s2,280(sp)
     478:	2d766373          	csrrs	t1,0x2d7,12
     47c:	2d756e67          	0x2d756e67
     480:	6f74                	ld	a3,216(a4)
     482:	68636c6f          	jal	s8,36b08 <_gp+0x24de8>
     486:	6961                	lui	s2,0x18
     488:	2f6e                	fld	ft10,216(sp)
     48a:	7562                	ld	a0,56(sp)
     48c:	6c69                	lui	s8,0x1a
     48e:	2f64                	fld	fs1,216(a4)
     490:	2f637273          	csrrc	tp,0x2f6,6
     494:	656e                	ld	a0,216(sp)
     496:	62696c77          	0x62696c77
     49a:	672d                	lui	a4,0xb
     49c:	6e2f6363          	bltu	t5,sp,b82 <_ftext-0xf47e>
     4a0:	7765                	lui	a4,0xffff9
     4a2:	696c                	ld	a1,208(a0)
     4a4:	2f62                	fld	ft10,24(sp)
     4a6:	696c                	ld	a1,208(a0)
     4a8:	6362                	ld	t1,24(sp)
     4aa:	73696d2f          	0x73696d2f
     4ae:	66000063          	beqz	zero,b0e <_ftext-0xf4f2>
     4b2:	6e69                	lui	t3,0x1a
     4b4:	2e69                	addiw	t3,t3,26
     4b6:	00020063          	beqz	tp,4b6 <_ftext-0xfb4a>
     4ba:	7300                	ld	s0,32(a4)
     4bc:	6474                	ld	a3,200(s0)
     4be:	6564                	ld	s1,200(a0)
     4c0:	2e66                	fld	ft8,88(sp)
     4c2:	0068                	addi	a0,sp,12
     4c4:	0001                	nop
     4c6:	0000                	unimp
     4c8:	0900                	addi	s0,sp,144
     4ca:	f802                	sd	zero,48(sp)
     4cc:	0101                	addi	sp,sp,0
     4ce:	0000                	unimp
     4d0:	0000                	unimp
     4d2:	2f00                	fld	fs0,24(a4)
     4d4:	0900                	addi	s0,sp,144
     4d6:	0402                	slli	s0,s0,0x0
     4d8:	0102                	slli	sp,sp,0x0
     4da:	0000                	unimp
     4dc:	0000                	unimp
     4de:	1b00                	addi	s0,sp,432
     4e0:	0900                	addi	s0,sp,144
     4e2:	1c02                	slli	s8,s8,0x20
     4e4:	0102                	slli	sp,sp,0x0
     4e6:	0000                	unimp
     4e8:	0000                	unimp
     4ea:	1300                	addi	s0,sp,416
     4ec:	0900                	addi	s0,sp,144
     4ee:	2002                	fld	ft0,0(sp)
     4f0:	0102                	slli	sp,sp,0x0
     4f2:	0000                	unimp
     4f4:	0000                	unimp
     4f6:	1b00                	addi	s0,sp,432
     4f8:	0900                	addi	s0,sp,144
     4fa:	2802                	fld	fa6,0(sp)
     4fc:	0102                	slli	sp,sp,0x0
     4fe:	0000                	unimp
     500:	0000                	unimp
     502:	1800                	addi	s0,sp,48
     504:	0900                	addi	s0,sp,144
     506:	2c02                	fld	fs8,0(sp)
     508:	0102                	slli	sp,sp,0x0
     50a:	0000                	unimp
     50c:	0000                	unimp
     50e:	0000                	unimp
     510:	0402                	slli	s0,s0,0x0
     512:	09001803          	lh	a6,144(zero)
     516:	3c02                	fld	fs8,32(sp)
     518:	0102                	slli	sp,sp,0x0
     51a:	0000                	unimp
     51c:	0000                	unimp
     51e:	1600                	addi	s0,sp,800
     520:	0900                	addi	s0,sp,144
     522:	4002                	0x4002
     524:	0102                	slli	sp,sp,0x0
     526:	0000                	unimp
     528:	0000                	unimp
     52a:	0000                	unimp
     52c:	0402                	slli	s0,s0,0x0
     52e:	1b00                	addi	s0,sp,432
     530:	0900                	addi	s0,sp,144
     532:	5002                	0x5002
     534:	0102                	slli	sp,sp,0x0
     536:	0000                	unimp
     538:	0000                	unimp
     53a:	1600                	addi	s0,sp,800
     53c:	0900                	addi	s0,sp,144
     53e:	5402                	lw	s0,32(sp)
     540:	0102                	slli	sp,sp,0x0
     542:	0000                	unimp
     544:	0000                	unimp
     546:	0000                	unimp
     548:	0101                	addi	sp,sp,0
     54a:	000001e7          	jalr	gp,zero
     54e:	0004                	addi	s1,sp,0
     550:	000001d3          	fadd.s	ft3,ft0,ft0,rne
     554:	0101                	addi	sp,sp,0
     556:	f601                	bnez	a2,45e <_ftext-0xfba2>
     558:	0df2                	slli	s11,s11,0x1c
     55a:	0100                	addi	s0,sp,128
     55c:	0101                	addi	sp,sp,0
     55e:	0001                	nop
     560:	0000                	unimp
     562:	0001                	nop
     564:	0100                	addi	s0,sp,128
     566:	6d6f682f          	0x6d6f682f
     56a:	2f65                	addiw	t5,t5,25
     56c:	696c                	ld	a1,208(a0)
     56e:	7775                	lui	a4,0xffffd
     570:	6e65                	lui	t3,0x19
     572:	696c                	ld	a1,208(a0)
     574:	7369722f          	0x7369722f
     578:	742d7663          	bleu	sp,s10,cc4 <_ftext-0xf33c>
     57c:	736c6f6f          	jal	t5,c6cb2 <_gp+0xb4f92>
     580:	7369722f          	0x7369722f
     584:	672d7663          	bleu	s2,s10,bf0 <_ftext-0xf410>
     588:	756e                	ld	a0,248(sp)
     58a:	742d                	lui	s0,0xfffeb
     58c:	636c6f6f          	jal	t5,c6bc2 <_gp+0xb4ea2>
     590:	6168                	ld	a0,192(a0)
     592:	6e69                	lui	t3,0x1a
     594:	6975622f          	0x6975622f
     598:	646c                	ld	a1,200(s0)
     59a:	6975622f          	0x6975622f
     59e:	646c                	ld	a1,200(s0)
     5a0:	672d                	lui	a4,0xb
     5a2:	6e2d6363          	bltu	s10,sp,c88 <_ftext-0xf378>
     5a6:	7765                	lui	a4,0xffff9
     5a8:	696c                	ld	a1,208(a0)
     5aa:	2f62                	fld	ft10,24(sp)
     5ac:	2f636367          	0x2f636367
     5b0:	6e69                	lui	t3,0x1a
     5b2:	64756c63          	bltu	a0,t2,c0a <_ftext-0xf3f6>
     5b6:	0065                	0x65
     5b8:	6d6f682f          	0x6d6f682f
     5bc:	2f65                	addiw	t5,t5,25
     5be:	696c                	ld	a1,208(a0)
     5c0:	7775                	lui	a4,0xffffd
     5c2:	6e65                	lui	t3,0x19
     5c4:	696c                	ld	a1,208(a0)
     5c6:	7369722f          	0x7369722f
     5ca:	742d7663          	bleu	sp,s10,d16 <_ftext-0xf2ea>
     5ce:	736c6f6f          	jal	t5,c6d04 <_gp+0xb4fe4>
     5d2:	7369722f          	0x7369722f
     5d6:	672d7663          	bleu	s2,s10,c42 <_ftext-0xf3be>
     5da:	756e                	ld	a0,248(sp)
     5dc:	742d                	lui	s0,0xfffeb
     5de:	636c6f6f          	jal	t5,c6c14 <_gp+0xb4ef4>
     5e2:	6168                	ld	a0,192(a0)
     5e4:	6e69                	lui	t3,0x1a
     5e6:	6975622f          	0x6975622f
     5ea:	646c                	ld	a1,200(s0)
     5ec:	6975622f          	0x6975622f
     5f0:	646c                	ld	a1,200(s0)
     5f2:	672d                	lui	a4,0xb
     5f4:	6e2d6363          	bltu	s10,sp,cda <_ftext-0xf326>
     5f8:	7765                	lui	a4,0xffff9
     5fa:	696c                	ld	a1,208(a0)
     5fc:	2f62                	fld	ft10,24(sp)
     5fe:	6972                	ld	s2,280(sp)
     600:	36766373          	csrrs	t1,0x367,12
     604:	2d34                	fld	fa3,88(a0)
     606:	6e75                	lui	t3,0x1d
     608:	776f6e6b          	0x776f6e6b
     60c:	2d6e                	fld	fs10,216(sp)
     60e:	6c65                	lui	s8,0x19
     610:	2f66                	fld	ft10,88(sp)
     612:	656e                	ld	a0,216(sp)
     614:	62696c77          	0x62696c77
     618:	7261742f          	0x7261742f
     61c:	6e692d67          	0x6e692d67
     620:	64756c63          	bltu	a0,t2,c78 <_ftext-0xf388>
     624:	2f65                	addiw	t5,t5,25
     626:	616d                	addi	sp,sp,240
     628:	6e696863          	bltu	s2,t1,d18 <_ftext-0xf2e8>
     62c:	0065                	0x65
     62e:	6d6f682f          	0x6d6f682f
     632:	2f65                	addiw	t5,t5,25
     634:	696c                	ld	a1,208(a0)
     636:	7775                	lui	a4,0xffffd
     638:	6e65                	lui	t3,0x19
     63a:	696c                	ld	a1,208(a0)
     63c:	7369722f          	0x7369722f
     640:	742d7663          	bleu	sp,s10,d8c <_ftext-0xf274>
     644:	736c6f6f          	jal	t5,c6d7a <_gp+0xb505a>
     648:	7369722f          	0x7369722f
     64c:	672d7663          	bleu	s2,s10,cb8 <_ftext-0xf348>
     650:	756e                	ld	a0,248(sp)
     652:	742d                	lui	s0,0xfffeb
     654:	636c6f6f          	jal	t5,c6c8a <_gp+0xb4f6a>
     658:	6168                	ld	a0,192(a0)
     65a:	6e69                	lui	t3,0x1a
     65c:	6975622f          	0x6975622f
     660:	646c                	ld	a1,200(s0)
     662:	6372732f          	0x6372732f
     666:	77656e2f          	0x77656e2f
     66a:	696c                	ld	a1,208(a0)
     66c:	2d62                	fld	fs10,24(sp)
     66e:	2f636367          	0x2f636367
     672:	656e                	ld	a0,216(sp)
     674:	62696c77          	0x62696c77
     678:	62696c2f          	0x62696c2f
     67c:	6e692f63          	0x6e692f63
     680:	64756c63          	bltu	a0,t2,cd8 <_ftext-0xf328>
     684:	2f65                	addiw	t5,t5,25
     686:	00737973          	csrrc	s2,0x7,6
     68a:	6d6f682f          	0x6d6f682f
     68e:	2f65                	addiw	t5,t5,25
     690:	696c                	ld	a1,208(a0)
     692:	7775                	lui	a4,0xffffd
     694:	6e65                	lui	t3,0x19
     696:	696c                	ld	a1,208(a0)
     698:	7369722f          	0x7369722f
     69c:	742d7663          	bleu	sp,s10,de8 <_ftext-0xf218>
     6a0:	736c6f6f          	jal	t5,c6dd6 <_gp+0xb50b6>
     6a4:	7369722f          	0x7369722f
     6a8:	672d7663          	bleu	s2,s10,d14 <_ftext-0xf2ec>
     6ac:	756e                	ld	a0,248(sp)
     6ae:	742d                	lui	s0,0xfffeb
     6b0:	636c6f6f          	jal	t5,c6ce6 <_gp+0xb4fc6>
     6b4:	6168                	ld	a0,192(a0)
     6b6:	6e69                	lui	t3,0x1a
     6b8:	6975622f          	0x6975622f
     6bc:	646c                	ld	a1,200(s0)
     6be:	6372732f          	0x6372732f
     6c2:	77656e2f          	0x77656e2f
     6c6:	696c                	ld	a1,208(a0)
     6c8:	2d62                	fld	fs10,24(sp)
     6ca:	2f636367          	0x2f636367
     6ce:	656e                	ld	a0,216(sp)
     6d0:	62696c77          	0x62696c77
     6d4:	62696c2f          	0x62696c2f
     6d8:	65722f63          	0x65722f63
     6dc:	6e65                	lui	t3,0x19
     6de:	0074                	addi	a3,sp,12
     6e0:	5f00                	lw	s0,56(a4)
     6e2:	7974                	ld	a3,240(a0)
     6e4:	6570                	ld	a2,200(a0)
     6e6:	00682e73          	csrrs	t3,0x6,a6
     6ea:	0002                	0x2
     6ec:	6c00                	ld	s0,24(s0)
     6ee:	2e6b636f          	jal	t1,b69d4 <_gp+0xa4cb4>
     6f2:	0068                	addi	a0,sp,12
     6f4:	73000003          	lb	zero,1840(zero)
     6f8:	6474                	ld	a3,200(s0)
     6fa:	6564                	ld	s1,200(a0)
     6fc:	2e66                	fld	ft8,88(sp)
     6fe:	0068                	addi	a0,sp,12
     700:	0001                	nop
     702:	5f00                	lw	s0,56(a4)
     704:	7974                	ld	a3,240(a0)
     706:	6570                	ld	a2,200(a0)
     708:	00682e73          	csrrs	t3,0x6,a6
     70c:	72000003          	lb	zero,1824(zero)
     710:	6565                	lui	a0,0x19
     712:	746e                	ld	s0,248(sp)
     714:	682e                	ld	a6,200(sp)
     716:	0300                	addi	s0,sp,384
     718:	0000                	unimp
     71a:	6d69                	lui	s10,0x1a
     71c:	7570                	ld	a2,232(a0)
     71e:	6572                	ld	a0,280(sp)
     720:	632e                	ld	t1,200(sp)
     722:	0400                	addi	s0,sp,512
     724:	0000                	unimp
     726:	0000                	unimp
     728:	0209                	addi	tp,tp,2
     72a:	0254                	addi	a3,sp,260
     72c:	0001                	nop
     72e:	0000                	unimp
     730:	0000                	unimp
     732:	0100                	addi	s0,sp,128
     734:	d901                	beqz	a0,644 <_ftext-0xf9bc>
     736:	0001                	nop
     738:	0400                	addi	s0,sp,512
     73a:	d100                	sw	s0,32(a0)
     73c:	0000                	unimp
     73e:	0100                	addi	s0,sp,128
     740:	0101                	addi	sp,sp,0
     742:	f2f6                	sd	t4,352(sp)
     744:	000d                	0xd
     746:	0101                	addi	sp,sp,0
     748:	0101                	addi	sp,sp,0
     74a:	0000                	unimp
     74c:	0100                	addi	s0,sp,128
     74e:	0000                	unimp
     750:	2f01                	sext.w	t5,t5
     752:	6f68                	ld	a0,216(a4)
     754:	656d                	lui	a0,0x1b
     756:	75696c2f          	0x75696c2f
     75a:	6c6e6577          	0x6c6e6577
     75e:	2f69                	addiw	t5,t5,26
     760:	6972                	ld	s2,280(sp)
     762:	2d766373          	csrrs	t1,0x2d7,12
     766:	6f74                	ld	a3,216(a4)
     768:	2f736c6f          	jal	s8,3725e <_gp+0x2553e>
     76c:	6972                	ld	s2,280(sp)
     76e:	2d766373          	csrrs	t1,0x2d7,12
     772:	2d756e67          	0x2d756e67
     776:	6f74                	ld	a3,216(a4)
     778:	68636c6f          	jal	s8,36dfe <_gp+0x250de>
     77c:	6961                	lui	s2,0x18
     77e:	2f6e                	fld	ft10,216(sp)
     780:	7562                	ld	a0,56(sp)
     782:	6c69                	lui	s8,0x1a
     784:	2f64                	fld	fs1,216(a4)
     786:	7562                	ld	a0,56(sp)
     788:	6c69                	lui	s8,0x1a
     78a:	2d64                	fld	fs1,216(a0)
     78c:	2d636367          	0x2d636367
     790:	656e                	ld	a0,216(sp)
     792:	62696c77          	0x62696c77
     796:	6363672f          	0x6363672f
     79a:	636e692f          	0x636e692f
     79e:	756c                	ld	a1,232(a0)
     7a0:	6564                	ld	s1,200(a0)
     7a2:	2f00                	fld	fs0,24(a4)
     7a4:	6f68                	ld	a0,216(a4)
     7a6:	656d                	lui	a0,0x1b
     7a8:	75696c2f          	0x75696c2f
     7ac:	6c6e6577          	0x6c6e6577
     7b0:	2f69                	addiw	t5,t5,26
     7b2:	6972                	ld	s2,280(sp)
     7b4:	2d766373          	csrrs	t1,0x2d7,12
     7b8:	6f74                	ld	a3,216(a4)
     7ba:	2f736c6f          	jal	s8,372b0 <_gp+0x25590>
     7be:	6972                	ld	s2,280(sp)
     7c0:	2d766373          	csrrs	t1,0x2d7,12
     7c4:	2d756e67          	0x2d756e67
     7c8:	6f74                	ld	a3,216(a4)
     7ca:	68636c6f          	jal	s8,36e50 <_gp+0x25130>
     7ce:	6961                	lui	s2,0x18
     7d0:	2f6e                	fld	ft10,216(sp)
     7d2:	7562                	ld	a0,56(sp)
     7d4:	6c69                	lui	s8,0x1a
     7d6:	2f64                	fld	fs1,216(a4)
     7d8:	2f637273          	csrrc	tp,0x2f6,6
     7dc:	656e                	ld	a0,216(sp)
     7de:	62696c77          	0x62696c77
     7e2:	672d                	lui	a4,0xb
     7e4:	6e2f6363          	bltu	t5,sp,eca <_ftext-0xf136>
     7e8:	7765                	lui	a4,0xffff9
     7ea:	696c                	ld	a1,208(a0)
     7ec:	2f62                	fld	ft10,24(sp)
     7ee:	696c                	ld	a1,208(a0)
     7f0:	6362                	ld	t1,24(sp)
     7f2:	73696d2f          	0x73696d2f
     7f6:	69000063          	beq	zero,a6,e76 <_ftext-0xf18a>
     7fa:	696e                	ld	s2,216(sp)
     7fc:	2e74                	fld	fa3,216(a2)
     7fe:	00020063          	beqz	tp,7fe <_ftext-0xf802>
     802:	7300                	ld	s0,32(a4)
     804:	6474                	ld	a3,200(s0)
     806:	6564                	ld	s1,200(a0)
     808:	2e66                	fld	ft8,88(sp)
     80a:	0068                	addi	a0,sp,12
     80c:	0001                	nop
     80e:	0000                	unimp
     810:	0900                	addi	s0,sp,144
     812:	5402                	lw	s0,32(sp)
     814:	0102                	slli	sp,sp,0x0
     816:	0000                	unimp
     818:	0000                	unimp
     81a:	3300                	fld	fs0,32(a4)
     81c:	0900                	addi	s0,sp,144
     81e:	5c02                	lw	s8,32(sp)
     820:	0102                	slli	sp,sp,0x0
     822:	0000                	unimp
     824:	0000                	unimp
     826:	1b00                	addi	s0,sp,432
     828:	0900                	addi	s0,sp,144
     82a:	6402                	ld	s0,0(sp)
     82c:	0102                	slli	sp,sp,0x0
     82e:	0000                	unimp
     830:	0000                	unimp
     832:	1300                	addi	s0,sp,416
     834:	0900                	addi	s0,sp,144
     836:	6802                	ld	a6,0(sp)
     838:	0102                	slli	sp,sp,0x0
     83a:	0000                	unimp
     83c:	0000                	unimp
     83e:	1b00                	addi	s0,sp,432
     840:	0900                	addi	s0,sp,144
     842:	7402                	ld	s0,32(sp)
     844:	0102                	slli	sp,sp,0x0
     846:	0000                	unimp
     848:	0000                	unimp
     84a:	1300                	addi	s0,sp,416
     84c:	0900                	addi	s0,sp,144
     84e:	7c02                	ld	s8,32(sp)
     850:	0102                	slli	sp,sp,0x0
     852:	0000                	unimp
     854:	0000                	unimp
     856:	1b00                	addi	s0,sp,432
     858:	0900                	addi	s0,sp,144
     85a:	8802                	jr	a6
     85c:	0102                	slli	sp,sp,0x0
     85e:	0000                	unimp
     860:	0000                	unimp
     862:	1800                	addi	s0,sp,48
     864:	0900                	addi	s0,sp,144
     866:	8c02                	jr	s8
     868:	0102                	slli	sp,sp,0x0
     86a:	0000                	unimp
     86c:	0000                	unimp
     86e:	0000                	unimp
     870:	0402                	slli	s0,s0,0x0
     872:	09001803          	lh	a6,144(zero)
     876:	9002                	ebreak
     878:	0102                	slli	sp,sp,0x0
     87a:	0000                	unimp
     87c:	0000                	unimp
     87e:	1600                	addi	s0,sp,800
     880:	0900                	addi	s0,sp,144
     882:	9802                	jalr	a6
     884:	0102                	slli	sp,sp,0x0
     886:	0000                	unimp
     888:	0000                	unimp
     88a:	1800                	addi	s0,sp,48
     88c:	0900                	addi	s0,sp,144
     88e:	9c02                	jalr	s8
     890:	0102                	slli	sp,sp,0x0
     892:	0000                	unimp
     894:	0000                	unimp
     896:	1600                	addi	s0,sp,800
     898:	0900                	addi	s0,sp,144
     89a:	a002                	fsd	ft0,0(sp)
     89c:	0102                	slli	sp,sp,0x0
     89e:	0000                	unimp
     8a0:	0000                	unimp
     8a2:	0000                	unimp
     8a4:	0402                	slli	s0,s0,0x0
     8a6:	1a00                	addi	s0,sp,304
     8a8:	0900                	addi	s0,sp,144
     8aa:	a402                	fsd	ft0,8(sp)
     8ac:	0102                	slli	sp,sp,0x0
     8ae:	0000                	unimp
     8b0:	0000                	unimp
     8b2:	1900                	addi	s0,sp,176
     8b4:	0900                	addi	s0,sp,144
     8b6:	c002                	sw	zero,0(sp)
     8b8:	0102                	slli	sp,sp,0x0
     8ba:	0000                	unimp
     8bc:	0000                	unimp
     8be:	1800                	addi	s0,sp,48
     8c0:	0900                	addi	s0,sp,144
     8c2:	c802                	sw	zero,16(sp)
     8c4:	0102                	slli	sp,sp,0x0
     8c6:	0000                	unimp
     8c8:	0000                	unimp
     8ca:	0000                	unimp
     8cc:	0402                	slli	s0,s0,0x0
     8ce:	09001803          	lh	a6,144(zero)
     8d2:	cc02                	sw	zero,24(sp)
     8d4:	0102                	slli	sp,sp,0x0
     8d6:	0000                	unimp
     8d8:	0000                	unimp
     8da:	1600                	addi	s0,sp,800
     8dc:	0900                	addi	s0,sp,144
     8de:	d402                	sw	zero,40(sp)
     8e0:	0102                	slli	sp,sp,0x0
     8e2:	0000                	unimp
     8e4:	0000                	unimp
     8e6:	1800                	addi	s0,sp,48
     8e8:	0900                	addi	s0,sp,144
     8ea:	d802                	sw	zero,48(sp)
     8ec:	0102                	slli	sp,sp,0x0
     8ee:	0000                	unimp
     8f0:	0000                	unimp
     8f2:	1600                	addi	s0,sp,800
     8f4:	0900                	addi	s0,sp,144
     8f6:	dc02                	sw	zero,56(sp)
     8f8:	0102                	slli	sp,sp,0x0
     8fa:	0000                	unimp
     8fc:	0000                	unimp
     8fe:	0000                	unimp
     900:	0402                	slli	s0,s0,0x0
     902:	1900                	addi	s0,sp,176
     904:	0900                	addi	s0,sp,144
     906:	f402                	sd	zero,40(sp)
     908:	0102                	slli	sp,sp,0x0
     90a:	0000                	unimp
     90c:	0000                	unimp
     90e:	0000                	unimp
     910:	0101                	addi	sp,sp,0
     912:	03de                	slli	t2,t2,0x17
     914:	0000                	unimp
     916:	0004                	addi	s1,sp,0
     918:	0252                	slli	tp,tp,0x14
     91a:	0000                	unimp
     91c:	0101                	addi	sp,sp,0
     91e:	f601                	bnez	a2,826 <_ftext-0xf7da>
     920:	0df2                	slli	s11,s11,0x1c
     922:	0100                	addi	s0,sp,128
     924:	0101                	addi	sp,sp,0
     926:	0001                	nop
     928:	0000                	unimp
     92a:	0001                	nop
     92c:	0100                	addi	s0,sp,128
     92e:	6d6f682f          	0x6d6f682f
     932:	2f65                	addiw	t5,t5,25
     934:	696c                	ld	a1,208(a0)
     936:	7775                	lui	a4,0xffffd
     938:	6e65                	lui	t3,0x19
     93a:	696c                	ld	a1,208(a0)
     93c:	7369722f          	0x7369722f
     940:	742d7663          	bleu	sp,s10,108c <_ftext-0xef74>
     944:	736c6f6f          	jal	t5,c707a <_gp+0xb535a>
     948:	7369722f          	0x7369722f
     94c:	672d7663          	bleu	s2,s10,fb8 <_ftext-0xf048>
     950:	756e                	ld	a0,248(sp)
     952:	742d                	lui	s0,0xfffeb
     954:	636c6f6f          	jal	t5,c6f8a <_gp+0xb526a>
     958:	6168                	ld	a0,192(a0)
     95a:	6e69                	lui	t3,0x1a
     95c:	6975622f          	0x6975622f
     960:	646c                	ld	a1,200(s0)
     962:	6975622f          	0x6975622f
     966:	646c                	ld	a1,200(s0)
     968:	672d                	lui	a4,0xb
     96a:	6e2d6363          	bltu	s10,sp,1050 <_ftext-0xefb0>
     96e:	7765                	lui	a4,0xffff9
     970:	696c                	ld	a1,208(a0)
     972:	2f62                	fld	ft10,24(sp)
     974:	2f636367          	0x2f636367
     978:	6e69                	lui	t3,0x1a
     97a:	64756c63          	bltu	a0,t2,fd2 <_ftext-0xf02e>
     97e:	0065                	0x65
     980:	6d6f682f          	0x6d6f682f
     984:	2f65                	addiw	t5,t5,25
     986:	696c                	ld	a1,208(a0)
     988:	7775                	lui	a4,0xffffd
     98a:	6e65                	lui	t3,0x19
     98c:	696c                	ld	a1,208(a0)
     98e:	7369722f          	0x7369722f
     992:	742d7663          	bleu	sp,s10,10de <_ftext-0xef22>
     996:	736c6f6f          	jal	t5,c70cc <_gp+0xb53ac>
     99a:	7369722f          	0x7369722f
     99e:	672d7663          	bleu	s2,s10,100a <_ftext-0xeff6>
     9a2:	756e                	ld	a0,248(sp)
     9a4:	742d                	lui	s0,0xfffeb
     9a6:	636c6f6f          	jal	t5,c6fdc <_gp+0xb52bc>
     9aa:	6168                	ld	a0,192(a0)
     9ac:	6e69                	lui	t3,0x1a
     9ae:	6975622f          	0x6975622f
     9b2:	646c                	ld	a1,200(s0)
     9b4:	6975622f          	0x6975622f
     9b8:	646c                	ld	a1,200(s0)
     9ba:	672d                	lui	a4,0xb
     9bc:	6e2d6363          	bltu	s10,sp,10a2 <_ftext-0xef5e>
     9c0:	7765                	lui	a4,0xffff9
     9c2:	696c                	ld	a1,208(a0)
     9c4:	2f62                	fld	ft10,24(sp)
     9c6:	6972                	ld	s2,280(sp)
     9c8:	36766373          	csrrs	t1,0x367,12
     9cc:	2d34                	fld	fa3,88(a0)
     9ce:	6e75                	lui	t3,0x1d
     9d0:	776f6e6b          	0x776f6e6b
     9d4:	2d6e                	fld	fs10,216(sp)
     9d6:	6c65                	lui	s8,0x19
     9d8:	2f66                	fld	ft10,88(sp)
     9da:	656e                	ld	a0,216(sp)
     9dc:	62696c77          	0x62696c77
     9e0:	7261742f          	0x7261742f
     9e4:	6e692d67          	0x6e692d67
     9e8:	64756c63          	bltu	a0,t2,1040 <_ftext-0xefc0>
     9ec:	2f65                	addiw	t5,t5,25
     9ee:	616d                	addi	sp,sp,240
     9f0:	6e696863          	bltu	s2,t1,10e0 <_ftext-0xef20>
     9f4:	0065                	0x65
     9f6:	6d6f682f          	0x6d6f682f
     9fa:	2f65                	addiw	t5,t5,25
     9fc:	696c                	ld	a1,208(a0)
     9fe:	7775                	lui	a4,0xffffd
     a00:	6e65                	lui	t3,0x19
     a02:	696c                	ld	a1,208(a0)
     a04:	7369722f          	0x7369722f
     a08:	742d7663          	bleu	sp,s10,1154 <_ftext-0xeeac>
     a0c:	736c6f6f          	jal	t5,c7142 <_gp+0xb5422>
     a10:	7369722f          	0x7369722f
     a14:	672d7663          	bleu	s2,s10,1080 <_ftext-0xef80>
     a18:	756e                	ld	a0,248(sp)
     a1a:	742d                	lui	s0,0xfffeb
     a1c:	636c6f6f          	jal	t5,c7052 <_gp+0xb5332>
     a20:	6168                	ld	a0,192(a0)
     a22:	6e69                	lui	t3,0x1a
     a24:	6975622f          	0x6975622f
     a28:	646c                	ld	a1,200(s0)
     a2a:	6372732f          	0x6372732f
     a2e:	77656e2f          	0x77656e2f
     a32:	696c                	ld	a1,208(a0)
     a34:	2d62                	fld	fs10,24(sp)
     a36:	2f636367          	0x2f636367
     a3a:	656e                	ld	a0,216(sp)
     a3c:	62696c77          	0x62696c77
     a40:	62696c2f          	0x62696c2f
     a44:	6e692f63          	0x6e692f63
     a48:	64756c63          	bltu	a0,t2,10a0 <_ftext-0xef60>
     a4c:	0065                	0x65
     a4e:	6d6f682f          	0x6d6f682f
     a52:	2f65                	addiw	t5,t5,25
     a54:	696c                	ld	a1,208(a0)
     a56:	7775                	lui	a4,0xffffd
     a58:	6e65                	lui	t3,0x19
     a5a:	696c                	ld	a1,208(a0)
     a5c:	7369722f          	0x7369722f
     a60:	742d7663          	bleu	sp,s10,11ac <_ftext-0xee54>
     a64:	736c6f6f          	jal	t5,c719a <_gp+0xb547a>
     a68:	7369722f          	0x7369722f
     a6c:	672d7663          	bleu	s2,s10,10d8 <_ftext-0xef28>
     a70:	756e                	ld	a0,248(sp)
     a72:	742d                	lui	s0,0xfffeb
     a74:	636c6f6f          	jal	t5,c70aa <_gp+0xb538a>
     a78:	6168                	ld	a0,192(a0)
     a7a:	6e69                	lui	t3,0x1a
     a7c:	6975622f          	0x6975622f
     a80:	646c                	ld	a1,200(s0)
     a82:	6372732f          	0x6372732f
     a86:	77656e2f          	0x77656e2f
     a8a:	696c                	ld	a1,208(a0)
     a8c:	2d62                	fld	fs10,24(sp)
     a8e:	2f636367          	0x2f636367
     a92:	656e                	ld	a0,216(sp)
     a94:	62696c77          	0x62696c77
     a98:	62696c2f          	0x62696c2f
     a9c:	6e692f63          	0x6e692f63
     aa0:	64756c63          	bltu	a0,t2,10f8 <_ftext-0xef08>
     aa4:	2f65                	addiw	t5,t5,25
     aa6:	00737973          	csrrc	s2,0x7,6
     aaa:	6d6f682f          	0x6d6f682f
     aae:	2f65                	addiw	t5,t5,25
     ab0:	696c                	ld	a1,208(a0)
     ab2:	7775                	lui	a4,0xffffd
     ab4:	6e65                	lui	t3,0x19
     ab6:	696c                	ld	a1,208(a0)
     ab8:	7369722f          	0x7369722f
     abc:	742d7663          	bleu	sp,s10,1208 <_ftext-0xedf8>
     ac0:	736c6f6f          	jal	t5,c71f6 <_gp+0xb54d6>
     ac4:	7369722f          	0x7369722f
     ac8:	672d7663          	bleu	s2,s10,1134 <_ftext-0xeecc>
     acc:	756e                	ld	a0,248(sp)
     ace:	742d                	lui	s0,0xfffeb
     ad0:	636c6f6f          	jal	t5,c7106 <_gp+0xb53e6>
     ad4:	6168                	ld	a0,192(a0)
     ad6:	6e69                	lui	t3,0x1a
     ad8:	6975622f          	0x6975622f
     adc:	646c                	ld	a1,200(s0)
     ade:	6372732f          	0x6372732f
     ae2:	77656e2f          	0x77656e2f
     ae6:	696c                	ld	a1,208(a0)
     ae8:	2d62                	fld	fs10,24(sp)
     aea:	2f636367          	0x2f636367
     aee:	656e                	ld	a0,216(sp)
     af0:	62696c77          	0x62696c77
     af4:	62696c2f          	0x62696c2f
     af8:	74732f63          	0x74732f63
     afc:	6c64                	ld	s1,216(s0)
     afe:	6269                	lui	tp,0x1a
     b00:	0000                	unimp
     b02:	5f5f 7461 7865      	0x786574615f5f
     b08:	7469                	lui	s0,0xffffa
     b0a:	632e                	ld	t1,200(sp)
     b0c:	0500                	addi	s0,sp,640
     b0e:	0000                	unimp
     b10:	745f 7079 7365      	0x73657079745f
     b16:	682e                	ld	a6,200(sp)
     b18:	0200                	addi	s0,sp,256
     b1a:	0000                	unimp
     b1c:	2f737973          	csrrc	s2,0x2f7,6
     b20:	6f6c                	ld	a1,216(a4)
     b22:	682e6b63          	bltu	t3,sp,11b8 <_ftext-0xee48>
     b26:	0300                	addi	s0,sp,384
     b28:	0000                	unimp
     b2a:	64647473          	csrrc	s0,0x646,8
     b2e:	6665                	lui	a2,0x19
     b30:	682e                	ld	a6,200(sp)
     b32:	0100                	addi	s0,sp,128
     b34:	0000                	unimp
     b36:	2f737973          	csrrc	s2,0x2f7,6
     b3a:	745f 7079 7365      	0x73657079745f
     b40:	682e                	ld	a6,200(sp)
     b42:	0300                	addi	s0,sp,384
     b44:	0000                	unimp
     b46:	2f737973          	csrrc	s2,0x2f7,6
     b4a:	6572                	ld	a0,280(sp)
     b4c:	6e65                	lui	t3,0x19
     b4e:	2e74                	fld	fa3,216(a2)
     b50:	0068                	addi	a0,sp,12
     b52:	61000003          	lb	zero,1552(zero)
     b56:	6574                	ld	a3,200(a0)
     b58:	6978                	ld	a4,208(a0)
     b5a:	2e74                	fld	fa3,216(a2)
     b5c:	0068                	addi	a0,sp,12
     b5e:	0005                	0x5
     b60:	7300                	ld	s0,32(a4)
     b62:	6474                	ld	a3,200(s0)
     b64:	696c                	ld	a1,208(a0)
     b66:	2e62                	fld	ft8,24(sp)
     b68:	0068                	addi	a0,sp,12
     b6a:	00000003          	lb	zero,0(zero)
     b6e:	0900                	addi	s0,sp,144
     b70:	f402                	sd	zero,40(sp)
     b72:	0102                	slli	sp,sp,0x0
     b74:	0000                	unimp
     b76:	0000                	unimp
     b78:	5e00                	lw	s0,56(a2)
     b7a:	0900                	addi	s0,sp,144
     b7c:	f802                	sd	zero,48(sp)
     b7e:	0102                	slli	sp,sp,0x0
     b80:	0000                	unimp
     b82:	0000                	unimp
     b84:	1f00                	addi	s0,sp,944
     b86:	0900                	addi	s0,sp,144
     b88:	f802                	sd	zero,48(sp)
     b8a:	0102                	slli	sp,sp,0x0
     b8c:	0000                	unimp
     b8e:	0000                	unimp
     b90:	0f00                	addi	s0,sp,912
     b92:	0900                	addi	s0,sp,144
     b94:	fc02                	sd	zero,56(sp)
     b96:	0102                	slli	sp,sp,0x0
     b98:	0000                	unimp
     b9a:	0000                	unimp
     b9c:	1f00                	addi	s0,sp,944
     b9e:	0900                	addi	s0,sp,144
     ba0:	0002                	0x2
     ba2:	00000103          	lb	sp,0(zero)
     ba6:	0000                	unimp
     ba8:	0f00                	addi	s0,sp,912
     baa:	0900                	addi	s0,sp,144
     bac:	0802                	slli	a6,a6,0x0
     bae:	00000103          	lb	sp,0(zero)
     bb2:	0000                	unimp
     bb4:	1f00                	addi	s0,sp,944
     bb6:	0900                	addi	s0,sp,144
     bb8:	0c02                	slli	s8,s8,0x0
     bba:	00000103          	lb	sp,0(zero)
     bbe:	0000                	unimp
     bc0:	0f00                	addi	s0,sp,912
     bc2:	0900                	addi	s0,sp,144
     bc4:	1c02                	slli	s8,s8,0x20
     bc6:	00000103          	lb	sp,0(zero)
     bca:	0000                	unimp
     bcc:	0100                	addi	s0,sp,128
     bce:	0900                	addi	s0,sp,144
     bd0:	2802                	fld	fa6,0(sp)
     bd2:	00000103          	lb	sp,0(zero)
     bd6:	0000                	unimp
     bd8:	2000                	fld	fs0,0(s0)
     bda:	0900                	addi	s0,sp,144
     bdc:	2c02                	fld	fs8,0(sp)
     bde:	00000103          	lb	sp,0(zero)
     be2:	0000                	unimp
     be4:	1900                	addi	s0,sp,176
     be6:	0900                	addi	s0,sp,144
     be8:	3c02                	fld	fs8,32(sp)
     bea:	00000103          	lb	sp,0(zero)
     bee:	0000                	unimp
     bf0:	1e00                	addi	s0,sp,816
     bf2:	0900                	addi	s0,sp,144
     bf4:	4802                	lw	a6,0(sp)
     bf6:	00000103          	lb	sp,0(zero)
     bfa:	0000                	unimp
     bfc:	1a00                	addi	s0,sp,304
     bfe:	0900                	addi	s0,sp,144
     c00:	5402                	lw	s0,32(sp)
     c02:	00000103          	lb	sp,0(zero)
     c06:	0000                	unimp
     c08:	1800                	addi	s0,sp,48
     c0a:	0900                	addi	s0,sp,144
     c0c:	5802                	lw	a6,32(sp)
     c0e:	00000103          	lb	sp,0(zero)
     c12:	0000                	unimp
     c14:	1f00                	addi	s0,sp,944
     c16:	0900                	addi	s0,sp,144
     c18:	5c02                	lw	s8,32(sp)
     c1a:	00000103          	lb	sp,0(zero)
     c1e:	0000                	unimp
     c20:	1600                	addi	s0,sp,800
     c22:	0900                	addi	s0,sp,144
     c24:	6002                	0x6002
     c26:	00000103          	lb	sp,0(zero)
     c2a:	0000                	unimp
     c2c:	1c00                	addi	s0,sp,560
     c2e:	0900                	addi	s0,sp,144
     c30:	6402                	ld	s0,0(sp)
     c32:	00000103          	lb	sp,0(zero)
     c36:	0000                	unimp
     c38:	1300                	addi	s0,sp,416
     c3a:	0900                	addi	s0,sp,144
     c3c:	6802                	ld	a6,0(sp)
     c3e:	00000103          	lb	sp,0(zero)
     c42:	0000                	unimp
     c44:	1800                	addi	s0,sp,48
     c46:	0900                	addi	s0,sp,144
     c48:	6c02                	ld	s8,0(sp)
     c4a:	00000103          	lb	sp,0(zero)
     c4e:	0000                	unimp
     c50:	1900                	addi	s0,sp,176
     c52:	0900                	addi	s0,sp,144
     c54:	7002                	0x7002
     c56:	00000103          	lb	sp,0(zero)
     c5a:	0000                	unimp
     c5c:	1800                	addi	s0,sp,48
     c5e:	0900                	addi	s0,sp,144
     c60:	7c02                	ld	s8,32(sp)
     c62:	00000103          	lb	sp,0(zero)
     c66:	0000                	unimp
     c68:	1e00                	addi	s0,sp,816
     c6a:	0900                	addi	s0,sp,144
     c6c:	8002                	0x8002
     c6e:	00000103          	lb	sp,0(zero)
     c72:	0000                	unimp
     c74:	3400                	fld	fs0,40(s0)
     c76:	0900                	addi	s0,sp,144
     c78:	9402                	jalr	s0
     c7a:	00000103          	lb	sp,0(zero)
     c7e:	0000                	unimp
     c80:	1b00                	addi	s0,sp,432
     c82:	0900                	addi	s0,sp,144
     c84:	9802                	jalr	a6
     c86:	00000103          	lb	sp,0(zero)
     c8a:	0000                	unimp
     c8c:	1800                	addi	s0,sp,48
     c8e:	0900                	addi	s0,sp,144
     c90:	c002                	sw	zero,0(sp)
     c92:	00000103          	lb	sp,0(zero)
     c96:	0000                	unimp
     c98:	0300                	addi	s0,sp,384
     c9a:	0175                	addi	sp,sp,29
     c9c:	0900                	addi	s0,sp,144
     c9e:	c402                	sw	zero,8(sp)
     ca0:	00000103          	lb	sp,0(zero)
     ca4:	0000                	unimp
     ca6:	1800                	addi	s0,sp,48
     ca8:	0900                	addi	s0,sp,144
     caa:	d802                	sw	zero,48(sp)
     cac:	00000103          	lb	sp,0(zero)
     cb0:	0000                	unimp
     cb2:	1800                	addi	s0,sp,48
     cb4:	0900                	addi	s0,sp,144
     cb6:	dc02                	sw	zero,56(sp)
     cb8:	00000103          	lb	sp,0(zero)
     cbc:	0000                	unimp
     cbe:	1800                	addi	s0,sp,48
     cc0:	0900                	addi	s0,sp,144
     cc2:	e402                	sd	zero,8(sp)
     cc4:	00000103          	lb	sp,0(zero)
     cc8:	0000                	unimp
     cca:	1800                	addi	s0,sp,48
     ccc:	0900                	addi	s0,sp,144
     cce:	f402                	sd	zero,40(sp)
     cd0:	00000103          	lb	sp,0(zero)
     cd4:	0000                	unimp
     cd6:	0300                	addi	s0,sp,384
     cd8:	0146                	slli	sp,sp,0x11
     cda:	0900                	addi	s0,sp,144
     cdc:	0002                	0x2
     cde:	0104                	addi	s1,sp,128
     ce0:	0000                	unimp
     ce2:	0000                	unimp
     ce4:	2000                	fld	fs0,0(s0)
     ce6:	0900                	addi	s0,sp,144
     ce8:	0802                	slli	a6,a6,0x0
     cea:	0104                	addi	s1,sp,128
     cec:	0000                	unimp
     cee:	0000                	unimp
     cf0:	0000                	unimp
     cf2:	0101                	addi	sp,sp,0
     cf4:	047a                	slli	s0,s0,0x1e
     cf6:	0000                	unimp
     cf8:	0004                	addi	s1,sp,0
     cfa:	0000024b          	fnmsub.s	ft4,ft0,ft0,ft0,rne
     cfe:	0101                	addi	sp,sp,0
     d00:	f601                	bnez	a2,c08 <_ftext-0xf3f8>
     d02:	0df2                	slli	s11,s11,0x1c
     d04:	0100                	addi	s0,sp,128
     d06:	0101                	addi	sp,sp,0
     d08:	0001                	nop
     d0a:	0000                	unimp
     d0c:	0001                	nop
     d0e:	0100                	addi	s0,sp,128
     d10:	6d6f682f          	0x6d6f682f
     d14:	2f65                	addiw	t5,t5,25
     d16:	696c                	ld	a1,208(a0)
     d18:	7775                	lui	a4,0xffffd
     d1a:	6e65                	lui	t3,0x19
     d1c:	696c                	ld	a1,208(a0)
     d1e:	7369722f          	0x7369722f
     d22:	742d7663          	bleu	sp,s10,146e <_ftext-0xeb92>
     d26:	736c6f6f          	jal	t5,c745c <_gp+0xb573c>
     d2a:	7369722f          	0x7369722f
     d2e:	672d7663          	bleu	s2,s10,139a <_ftext-0xec66>
     d32:	756e                	ld	a0,248(sp)
     d34:	742d                	lui	s0,0xfffeb
     d36:	636c6f6f          	jal	t5,c736c <_gp+0xb564c>
     d3a:	6168                	ld	a0,192(a0)
     d3c:	6e69                	lui	t3,0x1a
     d3e:	6975622f          	0x6975622f
     d42:	646c                	ld	a1,200(s0)
     d44:	6975622f          	0x6975622f
     d48:	646c                	ld	a1,200(s0)
     d4a:	672d                	lui	a4,0xb
     d4c:	6e2d6363          	bltu	s10,sp,1432 <_ftext-0xebce>
     d50:	7765                	lui	a4,0xffff9
     d52:	696c                	ld	a1,208(a0)
     d54:	2f62                	fld	ft10,24(sp)
     d56:	2f636367          	0x2f636367
     d5a:	6e69                	lui	t3,0x1a
     d5c:	64756c63          	bltu	a0,t2,13b4 <_ftext-0xec4c>
     d60:	0065                	0x65
     d62:	6d6f682f          	0x6d6f682f
     d66:	2f65                	addiw	t5,t5,25
     d68:	696c                	ld	a1,208(a0)
     d6a:	7775                	lui	a4,0xffffd
     d6c:	6e65                	lui	t3,0x19
     d6e:	696c                	ld	a1,208(a0)
     d70:	7369722f          	0x7369722f
     d74:	742d7663          	bleu	sp,s10,14c0 <_ftext-0xeb40>
     d78:	736c6f6f          	jal	t5,c74ae <_gp+0xb578e>
     d7c:	7369722f          	0x7369722f
     d80:	672d7663          	bleu	s2,s10,13ec <_ftext-0xec14>
     d84:	756e                	ld	a0,248(sp)
     d86:	742d                	lui	s0,0xfffeb
     d88:	636c6f6f          	jal	t5,c73be <_gp+0xb569e>
     d8c:	6168                	ld	a0,192(a0)
     d8e:	6e69                	lui	t3,0x1a
     d90:	6975622f          	0x6975622f
     d94:	646c                	ld	a1,200(s0)
     d96:	6975622f          	0x6975622f
     d9a:	646c                	ld	a1,200(s0)
     d9c:	672d                	lui	a4,0xb
     d9e:	6e2d6363          	bltu	s10,sp,1484 <_ftext-0xeb7c>
     da2:	7765                	lui	a4,0xffff9
     da4:	696c                	ld	a1,208(a0)
     da6:	2f62                	fld	ft10,24(sp)
     da8:	6972                	ld	s2,280(sp)
     daa:	36766373          	csrrs	t1,0x367,12
     dae:	2d34                	fld	fa3,88(a0)
     db0:	6e75                	lui	t3,0x1d
     db2:	776f6e6b          	0x776f6e6b
     db6:	2d6e                	fld	fs10,216(sp)
     db8:	6c65                	lui	s8,0x19
     dba:	2f66                	fld	ft10,88(sp)
     dbc:	656e                	ld	a0,216(sp)
     dbe:	62696c77          	0x62696c77
     dc2:	7261742f          	0x7261742f
     dc6:	6e692d67          	0x6e692d67
     dca:	64756c63          	bltu	a0,t2,1422 <_ftext-0xebde>
     dce:	2f65                	addiw	t5,t5,25
     dd0:	616d                	addi	sp,sp,240
     dd2:	6e696863          	bltu	s2,t1,14c2 <_ftext-0xeb3e>
     dd6:	0065                	0x65
     dd8:	6d6f682f          	0x6d6f682f
     ddc:	2f65                	addiw	t5,t5,25
     dde:	696c                	ld	a1,208(a0)
     de0:	7775                	lui	a4,0xffffd
     de2:	6e65                	lui	t3,0x19
     de4:	696c                	ld	a1,208(a0)
     de6:	7369722f          	0x7369722f
     dea:	742d7663          	bleu	sp,s10,1536 <_ftext-0xeaca>
     dee:	736c6f6f          	jal	t5,c7524 <_gp+0xb5804>
     df2:	7369722f          	0x7369722f
     df6:	672d7663          	bleu	s2,s10,1462 <_ftext-0xeb9e>
     dfa:	756e                	ld	a0,248(sp)
     dfc:	742d                	lui	s0,0xfffeb
     dfe:	636c6f6f          	jal	t5,c7434 <_gp+0xb5714>
     e02:	6168                	ld	a0,192(a0)
     e04:	6e69                	lui	t3,0x1a
     e06:	6975622f          	0x6975622f
     e0a:	646c                	ld	a1,200(s0)
     e0c:	6372732f          	0x6372732f
     e10:	77656e2f          	0x77656e2f
     e14:	696c                	ld	a1,208(a0)
     e16:	2d62                	fld	fs10,24(sp)
     e18:	2f636367          	0x2f636367
     e1c:	656e                	ld	a0,216(sp)
     e1e:	62696c77          	0x62696c77
     e22:	62696c2f          	0x62696c2f
     e26:	6e692f63          	0x6e692f63
     e2a:	64756c63          	bltu	a0,t2,1482 <_ftext-0xeb7e>
     e2e:	0065                	0x65
     e30:	6d6f682f          	0x6d6f682f
     e34:	2f65                	addiw	t5,t5,25
     e36:	696c                	ld	a1,208(a0)
     e38:	7775                	lui	a4,0xffffd
     e3a:	6e65                	lui	t3,0x19
     e3c:	696c                	ld	a1,208(a0)
     e3e:	7369722f          	0x7369722f
     e42:	742d7663          	bleu	sp,s10,158e <_ftext-0xea72>
     e46:	736c6f6f          	jal	t5,c757c <_gp+0xb585c>
     e4a:	7369722f          	0x7369722f
     e4e:	672d7663          	bleu	s2,s10,14ba <_ftext-0xeb46>
     e52:	756e                	ld	a0,248(sp)
     e54:	742d                	lui	s0,0xfffeb
     e56:	636c6f6f          	jal	t5,c748c <_gp+0xb576c>
     e5a:	6168                	ld	a0,192(a0)
     e5c:	6e69                	lui	t3,0x1a
     e5e:	6975622f          	0x6975622f
     e62:	646c                	ld	a1,200(s0)
     e64:	6372732f          	0x6372732f
     e68:	77656e2f          	0x77656e2f
     e6c:	696c                	ld	a1,208(a0)
     e6e:	2d62                	fld	fs10,24(sp)
     e70:	2f636367          	0x2f636367
     e74:	656e                	ld	a0,216(sp)
     e76:	62696c77          	0x62696c77
     e7a:	62696c2f          	0x62696c2f
     e7e:	6e692f63          	0x6e692f63
     e82:	64756c63          	bltu	a0,t2,14da <_ftext-0xeb26>
     e86:	2f65                	addiw	t5,t5,25
     e88:	00737973          	csrrc	s2,0x7,6
     e8c:	6d6f682f          	0x6d6f682f
     e90:	2f65                	addiw	t5,t5,25
     e92:	696c                	ld	a1,208(a0)
     e94:	7775                	lui	a4,0xffffd
     e96:	6e65                	lui	t3,0x19
     e98:	696c                	ld	a1,208(a0)
     e9a:	7369722f          	0x7369722f
     e9e:	742d7663          	bleu	sp,s10,15ea <_ftext-0xea16>
     ea2:	736c6f6f          	jal	t5,c75d8 <_gp+0xb58b8>
     ea6:	7369722f          	0x7369722f
     eaa:	672d7663          	bleu	s2,s10,1516 <_ftext-0xeaea>
     eae:	756e                	ld	a0,248(sp)
     eb0:	742d                	lui	s0,0xfffeb
     eb2:	636c6f6f          	jal	t5,c74e8 <_gp+0xb57c8>
     eb6:	6168                	ld	a0,192(a0)
     eb8:	6e69                	lui	t3,0x1a
     eba:	6975622f          	0x6975622f
     ebe:	646c                	ld	a1,200(s0)
     ec0:	6372732f          	0x6372732f
     ec4:	77656e2f          	0x77656e2f
     ec8:	696c                	ld	a1,208(a0)
     eca:	2d62                	fld	fs10,24(sp)
     ecc:	2f636367          	0x2f636367
     ed0:	656e                	ld	a0,216(sp)
     ed2:	62696c77          	0x62696c77
     ed6:	62696c2f          	0x62696c2f
     eda:	74732f63          	0x74732f63
     ede:	6c64                	ld	s1,216(s0)
     ee0:	6269                	lui	tp,0x1a
     ee2:	0000                	unimp
     ee4:	5f5f 6163 6c6c      	0x6c6c61635f5f
     eea:	615f 6574 6978      	0x69786574615f
     ef0:	2e74                	fld	fa3,216(a2)
     ef2:	00050063          	beqz	a0,ef2 <_ftext-0xf10e>
     ef6:	5f00                	lw	s0,56(a4)
     ef8:	7974                	ld	a3,240(a0)
     efa:	6570                	ld	a2,200(a0)
     efc:	00682e73          	csrrs	t3,0x6,a6
     f00:	0002                	0x2
     f02:	7300                	ld	s0,32(a4)
     f04:	7379                	lui	t1,0xffffe
     f06:	636f6c2f          	0x636f6c2f
     f0a:	00682e6b          	0x682e6b
     f0e:	73000003          	lb	zero,1840(zero)
     f12:	6474                	ld	a3,200(s0)
     f14:	6564                	ld	s1,200(a0)
     f16:	2e66                	fld	ft8,88(sp)
     f18:	0068                	addi	a0,sp,12
     f1a:	0001                	nop
     f1c:	7300                	ld	s0,32(a4)
     f1e:	7379                	lui	t1,0xffffe
     f20:	79745f2f          	0x79745f2f
     f24:	6570                	ld	a2,200(a0)
     f26:	00682e73          	csrrs	t3,0x6,a6
     f2a:	73000003          	lb	zero,1840(zero)
     f2e:	7379                	lui	t1,0xffffe
     f30:	6565722f          	0x6565722f
     f34:	746e                	ld	s0,248(sp)
     f36:	682e                	ld	a6,200(sp)
     f38:	0300                	addi	s0,sp,384
     f3a:	0000                	unimp
     f3c:	6c647473          	csrrc	s0,0x6c6,8
     f40:	6269                	lui	tp,0x1a
     f42:	682e                	ld	a6,200(sp)
     f44:	0300                	addi	s0,sp,384
     f46:	0000                	unimp
     f48:	0000                	unimp
     f4a:	0209                	addi	tp,tp,2
     f4c:	0408                	addi	a0,sp,512
     f4e:	0001                	nop
     f50:	0000                	unimp
     f52:	0000                	unimp
     f54:	005a                	0x5a
     f56:	0209                	addi	tp,tp,2
     f58:	0418                	addi	a4,sp,512
     f5a:	0001                	nop
     f5c:	0000                	unimp
     f5e:	0000                	unimp
     f60:	0209005b          	custom2	0,18,0,1
     f64:	041c                	addi	a5,sp,512
     f66:	0001                	nop
     f68:	0000                	unimp
     f6a:	0000                	unimp
     f6c:	017fbc03          	ld	s8,23(t6)
     f70:	0900                	addi	s0,sp,144
     f72:	4402                	lw	s0,0(sp)
     f74:	0104                	addi	s1,sp,128
     f76:	0000                	unimp
     f78:	0000                	unimp
     f7a:	0100                	addi	s0,sp,128
     f7c:	0900                	addi	s0,sp,144
     f7e:	5002                	0x5002
     f80:	0104                	addi	s1,sp,128
     f82:	0000                	unimp
     f84:	0000                	unimp
     f86:	4800                	lw	s0,16(s0)
     f88:	0900                	addi	s0,sp,144
     f8a:	5402                	lw	s0,32(sp)
     f8c:	0104                	addi	s1,sp,128
     f8e:	0000                	unimp
     f90:	0000                	unimp
     f92:	0300                	addi	s0,sp,384
     f94:	09000167          	jalr	sp,zero,144
     f98:	5802                	lw	a6,32(sp)
     f9a:	0104                	addi	s1,sp,128
     f9c:	0000                	unimp
     f9e:	0000                	unimp
     fa0:	4300                	lw	s0,0(a4)
     fa2:	0900                	addi	s0,sp,144
     fa4:	5c02                	lw	s8,32(sp)
     fa6:	0104                	addi	s1,sp,128
     fa8:	0000                	unimp
     faa:	0000                	unimp
     fac:	0300                	addi	s0,sp,384
     fae:	0900014b          	fnmsub.s	ft2,ft0,fa6,ft1,rne
     fb2:	6002                	0x6002
     fb4:	0104                	addi	s1,sp,128
     fb6:	0000                	unimp
     fb8:	0000                	unimp
     fba:	1900                	addi	s0,sp,176
     fbc:	0900                	addi	s0,sp,144
     fbe:	6802                	ld	a6,0(sp)
     fc0:	0104                	addi	s1,sp,128
     fc2:	0000                	unimp
     fc4:	0000                	unimp
     fc6:	1e00                	addi	s0,sp,816
     fc8:	0900                	addi	s0,sp,144
     fca:	7802                	ld	a6,32(sp)
     fcc:	0104                	addi	s1,sp,128
     fce:	0000                	unimp
     fd0:	0000                	unimp
     fd2:	0000                	unimp
     fd4:	0402                	slli	s0,s0,0x0
     fd6:	1e02                	slli	t3,t3,0x20
     fd8:	0900                	addi	s0,sp,144
     fda:	8c02                	jr	s8
     fdc:	0104                	addi	s1,sp,128
     fde:	0000                	unimp
     fe0:	0000                	unimp
     fe2:	0000                	unimp
     fe4:	0402                	slli	s0,s0,0x0
     fe6:	1000                	addi	s0,sp,32
     fe8:	0900                	addi	s0,sp,144
     fea:	9402                	jalr	s0
     fec:	0104                	addi	s1,sp,128
     fee:	0000                	unimp
     ff0:	0000                	unimp
     ff2:	1e00                	addi	s0,sp,816
     ff4:	0900                	addi	s0,sp,144
     ff6:	9c02                	jalr	s8
     ff8:	0104                	addi	s1,sp,128
     ffa:	0000                	unimp
     ffc:	0000                	unimp
     ffe:	1d00                	addi	s0,sp,688
    1000:	0900                	addi	s0,sp,144
    1002:	ac02                	fsd	ft0,24(sp)
    1004:	0104                	addi	s1,sp,128
    1006:	0000                	unimp
    1008:	0000                	unimp
    100a:	1600                	addi	s0,sp,800
    100c:	0900                	addi	s0,sp,144
    100e:	b002                	fsd	ft0,32(sp)
    1010:	0104                	addi	s1,sp,128
    1012:	0000                	unimp
    1014:	0000                	unimp
    1016:	1800                	addi	s0,sp,48
    1018:	0900                	addi	s0,sp,144
    101a:	b402                	fsd	ft0,40(sp)
    101c:	0104                	addi	s1,sp,128
    101e:	0000                	unimp
    1020:	0000                	unimp
    1022:	1a00                	addi	s0,sp,304
    1024:	0900                	addi	s0,sp,144
    1026:	b802                	fsd	ft0,48(sp)
    1028:	0104                	addi	s1,sp,128
    102a:	0000                	unimp
    102c:	0000                	unimp
    102e:	1a00                	addi	s0,sp,304
    1030:	0900                	addi	s0,sp,144
    1032:	bc02                	fsd	ft0,56(sp)
    1034:	0104                	addi	s1,sp,128
    1036:	0000                	unimp
    1038:	0000                	unimp
    103a:	1d00                	addi	s0,sp,688
    103c:	0900                	addi	s0,sp,144
    103e:	c402                	sw	zero,8(sp)
    1040:	0104                	addi	s1,sp,128
    1042:	0000                	unimp
    1044:	0000                	unimp
    1046:	1400                	addi	s0,sp,544
    1048:	0900                	addi	s0,sp,144
    104a:	c802                	sw	zero,16(sp)
    104c:	0104                	addi	s1,sp,128
    104e:	0000                	unimp
    1050:	0000                	unimp
    1052:	1a00                	addi	s0,sp,304
    1054:	0900                	addi	s0,sp,144
    1056:	d002                	sw	zero,32(sp)
    1058:	0104                	addi	s1,sp,128
    105a:	0000                	unimp
    105c:	0000                	unimp
    105e:	1900                	addi	s0,sp,176
    1060:	0900                	addi	s0,sp,144
    1062:	dc02                	sw	zero,56(sp)
    1064:	0104                	addi	s1,sp,128
    1066:	0000                	unimp
    1068:	0000                	unimp
    106a:	1800                	addi	s0,sp,48
    106c:	0900                	addi	s0,sp,144
    106e:	e802                	sd	zero,16(sp)
    1070:	0104                	addi	s1,sp,128
    1072:	0000                	unimp
    1074:	0000                	unimp
    1076:	1e00                	addi	s0,sp,816
    1078:	0900                	addi	s0,sp,144
    107a:	f002                	sd	zero,32(sp)
    107c:	0104                	addi	s1,sp,128
    107e:	0000                	unimp
    1080:	0000                	unimp
    1082:	0000                	unimp
    1084:	0402                	slli	s0,s0,0x0
    1086:	0601                	addi	a2,a2,0
    1088:	0001                	nop
    108a:	0209                	addi	tp,tp,2
    108c:	04f8                	addi	a4,sp,588
    108e:	0001                	nop
    1090:	0000                	unimp
    1092:	0000                	unimp
    1094:	0200                	addi	s0,sp,256
    1096:	0004                	addi	s1,sp,0
    1098:	0306                	slli	t1,t1,0x1
    109a:	015d                	addi	sp,sp,23
    109c:	0900                	addi	s0,sp,144
    109e:	0002                	0x2
    10a0:	0105                	addi	sp,sp,1
    10a2:	0000                	unimp
    10a4:	0000                	unimp
    10a6:	4300                	lw	s0,0(a4)
    10a8:	0900                	addi	s0,sp,144
    10aa:	0402                	slli	s0,s0,0x0
    10ac:	0105                	addi	sp,sp,1
    10ae:	0000                	unimp
    10b0:	0000                	unimp
    10b2:	1c00                	addi	s0,sp,560
    10b4:	0900                	addi	s0,sp,144
    10b6:	0c02                	slli	s8,s8,0x0
    10b8:	0105                	addi	sp,sp,1
    10ba:	0000                	unimp
    10bc:	0000                	unimp
    10be:	0000                	unimp
    10c0:	0402                	slli	s0,s0,0x0
    10c2:	0601                	addi	a2,a2,0
    10c4:	0001                	nop
    10c6:	0209                	addi	tp,tp,2
    10c8:	0514                	addi	a3,sp,640
    10ca:	0001                	nop
    10cc:	0000                	unimp
    10ce:	0000                	unimp
    10d0:	0200                	addi	s0,sp,256
    10d2:	0004                	addi	s1,sp,0
    10d4:	1f06                	slli	t5,t5,0x21
    10d6:	0900                	addi	s0,sp,144
    10d8:	1802                	slli	a6,a6,0x20
    10da:	0105                	addi	sp,sp,1
    10dc:	0000                	unimp
    10de:	0000                	unimp
    10e0:	1200                	addi	s0,sp,288
    10e2:	0900                	addi	s0,sp,144
    10e4:	1c02                	slli	s8,s8,0x20
    10e6:	0105                	addi	sp,sp,1
    10e8:	0000                	unimp
    10ea:	0000                	unimp
    10ec:	1c00                	addi	s0,sp,560
    10ee:	0900                	addi	s0,sp,144
    10f0:	2402                	fld	fs0,0(sp)
    10f2:	0105                	addi	sp,sp,1
    10f4:	0000                	unimp
    10f6:	0000                	unimp
    10f8:	1800                	addi	s0,sp,48
    10fa:	0900                	addi	s0,sp,144
    10fc:	2802                	fld	fa6,0(sp)
    10fe:	0105                	addi	sp,sp,1
    1100:	0000                	unimp
    1102:	0000                	unimp
    1104:	0300                	addi	s0,sp,384
    1106:	00017fbf 052c0209 	0x52c020900017fbf
    110e:	0001                	nop
    1110:	0000                	unimp
    1112:	0000                	unimp
    1114:	0065                	0x65
    1116:	0209                	addi	tp,tp,2
    1118:	0564                	addi	s1,sp,652
    111a:	0001                	nop
    111c:	0000                	unimp
    111e:	0000                	unimp
    1120:	00015303          	lhu	t1,0(sp) # 130974 <_gp+0x11ec54>
    1124:	0209                	addi	tp,tp,2
    1126:	056c                	addi	a1,sp,652
    1128:	0001                	nop
    112a:	0000                	unimp
    112c:	0000                	unimp
    112e:	00017403          	0x17403
    1132:	0209                	addi	tp,tp,2
    1134:	0574                	addi	a3,sp,652
    1136:	0001                	nop
    1138:	0000                	unimp
    113a:	0000                	unimp
    113c:	02090027          	0x2090027
    1140:	0584                	addi	s1,sp,704
    1142:	0001                	nop
    1144:	0000                	unimp
    1146:	0000                	unimp
    1148:	02090037          	lui	zero,0x2090
    114c:	0588                	addi	a0,sp,704
    114e:	0001                	nop
    1150:	0000                	unimp
    1152:	0000                	unimp
    1154:	0018                	addi	a4,sp,0
    1156:	0209                	addi	tp,tp,2
    1158:	058c                	addi	a1,sp,704
    115a:	0001                	nop
    115c:	0000                	unimp
    115e:	0000                	unimp
    1160:	017fba03          	ld	s4,23(t6)
    1164:	0900                	addi	s0,sp,144
    1166:	9c02                	jalr	s8
    1168:	0105                	addi	sp,sp,1
    116a:	0000                	unimp
    116c:	0000                	unimp
    116e:	0000                	unimp
    1170:	0101                	addi	sp,sp,0
    1172:	0c06                	slli	s8,s8,0x1
    1174:	0000                	unimp
    1176:	0004                	addi	s1,sp,0
    1178:	0278                	addi	a4,sp,268
    117a:	0000                	unimp
    117c:	0101                	addi	sp,sp,0
    117e:	f601                	bnez	a2,1086 <_ftext-0xef7a>
    1180:	0df2                	slli	s11,s11,0x1c
    1182:	0100                	addi	s0,sp,128
    1184:	0101                	addi	sp,sp,0
    1186:	0001                	nop
    1188:	0000                	unimp
    118a:	0001                	nop
    118c:	0100                	addi	s0,sp,128
    118e:	6d6f682f          	0x6d6f682f
    1192:	2f65                	addiw	t5,t5,25
    1194:	696c                	ld	a1,208(a0)
    1196:	7775                	lui	a4,0xffffd
    1198:	6e65                	lui	t3,0x19
    119a:	696c                	ld	a1,208(a0)
    119c:	7369722f          	0x7369722f
    11a0:	742d7663          	bleu	sp,s10,18ec <_ftext-0xe714>
    11a4:	736c6f6f          	jal	t5,c78da <_gp+0xb5bba>
    11a8:	7369722f          	0x7369722f
    11ac:	672d7663          	bleu	s2,s10,1818 <_ftext-0xe7e8>
    11b0:	756e                	ld	a0,248(sp)
    11b2:	742d                	lui	s0,0xfffeb
    11b4:	636c6f6f          	jal	t5,c77ea <_gp+0xb5aca>
    11b8:	6168                	ld	a0,192(a0)
    11ba:	6e69                	lui	t3,0x1a
    11bc:	6975622f          	0x6975622f
    11c0:	646c                	ld	a1,200(s0)
    11c2:	6975622f          	0x6975622f
    11c6:	646c                	ld	a1,200(s0)
    11c8:	672d                	lui	a4,0xb
    11ca:	6e2d6363          	bltu	s10,sp,18b0 <_ftext-0xe750>
    11ce:	7765                	lui	a4,0xffff9
    11d0:	696c                	ld	a1,208(a0)
    11d2:	2f62                	fld	ft10,24(sp)
    11d4:	2f636367          	0x2f636367
    11d8:	6e69                	lui	t3,0x1a
    11da:	64756c63          	bltu	a0,t2,1832 <_ftext-0xe7ce>
    11de:	0065                	0x65
    11e0:	6d6f682f          	0x6d6f682f
    11e4:	2f65                	addiw	t5,t5,25
    11e6:	696c                	ld	a1,208(a0)
    11e8:	7775                	lui	a4,0xffffd
    11ea:	6e65                	lui	t3,0x19
    11ec:	696c                	ld	a1,208(a0)
    11ee:	7369722f          	0x7369722f
    11f2:	742d7663          	bleu	sp,s10,193e <_ftext-0xe6c2>
    11f6:	736c6f6f          	jal	t5,c792c <_gp+0xb5c0c>
    11fa:	7369722f          	0x7369722f
    11fe:	672d7663          	bleu	s2,s10,186a <_ftext-0xe796>
    1202:	756e                	ld	a0,248(sp)
    1204:	742d                	lui	s0,0xfffeb
    1206:	636c6f6f          	jal	t5,c783c <_gp+0xb5b1c>
    120a:	6168                	ld	a0,192(a0)
    120c:	6e69                	lui	t3,0x1a
    120e:	6975622f          	0x6975622f
    1212:	646c                	ld	a1,200(s0)
    1214:	6975622f          	0x6975622f
    1218:	646c                	ld	a1,200(s0)
    121a:	672d                	lui	a4,0xb
    121c:	6e2d6363          	bltu	s10,sp,1902 <_ftext-0xe6fe>
    1220:	7765                	lui	a4,0xffff9
    1222:	696c                	ld	a1,208(a0)
    1224:	2f62                	fld	ft10,24(sp)
    1226:	6972                	ld	s2,280(sp)
    1228:	36766373          	csrrs	t1,0x367,12
    122c:	2d34                	fld	fa3,88(a0)
    122e:	6e75                	lui	t3,0x1d
    1230:	776f6e6b          	0x776f6e6b
    1234:	2d6e                	fld	fs10,216(sp)
    1236:	6c65                	lui	s8,0x19
    1238:	2f66                	fld	ft10,88(sp)
    123a:	656e                	ld	a0,216(sp)
    123c:	62696c77          	0x62696c77
    1240:	7261742f          	0x7261742f
    1244:	6e692d67          	0x6e692d67
    1248:	64756c63          	bltu	a0,t2,18a0 <_ftext-0xe760>
    124c:	2f65                	addiw	t5,t5,25
    124e:	616d                	addi	sp,sp,240
    1250:	6e696863          	bltu	s2,t1,1940 <_ftext-0xe6c0>
    1254:	0065                	0x65
    1256:	6d6f682f          	0x6d6f682f
    125a:	2f65                	addiw	t5,t5,25
    125c:	696c                	ld	a1,208(a0)
    125e:	7775                	lui	a4,0xffffd
    1260:	6e65                	lui	t3,0x19
    1262:	696c                	ld	a1,208(a0)
    1264:	7369722f          	0x7369722f
    1268:	742d7663          	bleu	sp,s10,19b4 <_ftext-0xe64c>
    126c:	736c6f6f          	jal	t5,c79a2 <_gp+0xb5c82>
    1270:	7369722f          	0x7369722f
    1274:	672d7663          	bleu	s2,s10,18e0 <_ftext-0xe720>
    1278:	756e                	ld	a0,248(sp)
    127a:	742d                	lui	s0,0xfffeb
    127c:	636c6f6f          	jal	t5,c78b2 <_gp+0xb5b92>
    1280:	6168                	ld	a0,192(a0)
    1282:	6e69                	lui	t3,0x1a
    1284:	6975622f          	0x6975622f
    1288:	646c                	ld	a1,200(s0)
    128a:	6372732f          	0x6372732f
    128e:	77656e2f          	0x77656e2f
    1292:	696c                	ld	a1,208(a0)
    1294:	2d62                	fld	fs10,24(sp)
    1296:	2f636367          	0x2f636367
    129a:	696c                	ld	a1,208(a0)
    129c:	6762                	ld	a4,24(sp)
    129e:	6f6c                	ld	a1,216(a4)
    12a0:	722f7373          	csrrc	t1,0x722,30
    12a4:	7369                	lui	t1,0xffffa
    12a6:	2f007663          	bleu	a6,zero,1592 <_ftext-0xea6e>
    12aa:	6f68                	ld	a0,216(a4)
    12ac:	656d                	lui	a0,0x1b
    12ae:	75696c2f          	0x75696c2f
    12b2:	6c6e6577          	0x6c6e6577
    12b6:	2f69                	addiw	t5,t5,26
    12b8:	6972                	ld	s2,280(sp)
    12ba:	2d766373          	csrrs	t1,0x2d7,12
    12be:	6f74                	ld	a3,216(a4)
    12c0:	2f736c6f          	jal	s8,37db6 <_gp+0x26096>
    12c4:	6972                	ld	s2,280(sp)
    12c6:	2d766373          	csrrs	t1,0x2d7,12
    12ca:	2d756e67          	0x2d756e67
    12ce:	6f74                	ld	a3,216(a4)
    12d0:	68636c6f          	jal	s8,37956 <_gp+0x25c36>
    12d4:	6961                	lui	s2,0x18
    12d6:	2f6e                	fld	ft10,216(sp)
    12d8:	7562                	ld	a0,56(sp)
    12da:	6c69                	lui	s8,0x1a
    12dc:	2f64                	fld	fs1,216(a4)
    12de:	2f637273          	csrrc	tp,0x2f6,6
    12e2:	656e                	ld	a0,216(sp)
    12e4:	62696c77          	0x62696c77
    12e8:	672d                	lui	a4,0xb
    12ea:	6c2f6363          	bltu	t5,sp,19b0 <_ftext-0xe650>
    12ee:	6269                	lui	tp,0x1a
    12f0:	736f6c67          	0x736f6c67
    12f4:	69722f73          	csrrs	t5,0x697,tp
    12f8:	2f766373          	csrrs	t1,0x2f7,12
    12fc:	616d                	addi	sp,sp,240
    12fe:	6e696863          	bltu	s2,t1,19ee <_ftext-0xe612>
    1302:	0065                	0x65
    1304:	6d6f682f          	0x6d6f682f
    1308:	2f65                	addiw	t5,t5,25
    130a:	696c                	ld	a1,208(a0)
    130c:	7775                	lui	a4,0xffffd
    130e:	6e65                	lui	t3,0x19
    1310:	696c                	ld	a1,208(a0)
    1312:	7369722f          	0x7369722f
    1316:	742d7663          	bleu	sp,s10,1a62 <_ftext-0xe59e>
    131a:	736c6f6f          	jal	t5,c7a50 <_gp+0xb5d30>
    131e:	7369722f          	0x7369722f
    1322:	672d7663          	bleu	s2,s10,198e <_ftext-0xe672>
    1326:	756e                	ld	a0,248(sp)
    1328:	742d                	lui	s0,0xfffeb
    132a:	636c6f6f          	jal	t5,c7960 <_gp+0xb5c40>
    132e:	6168                	ld	a0,192(a0)
    1330:	6e69                	lui	t3,0x1a
    1332:	6975622f          	0x6975622f
    1336:	646c                	ld	a1,200(s0)
    1338:	6372732f          	0x6372732f
    133c:	77656e2f          	0x77656e2f
    1340:	696c                	ld	a1,208(a0)
    1342:	2d62                	fld	fs10,24(sp)
    1344:	2f636367          	0x2f636367
    1348:	656e                	ld	a0,216(sp)
    134a:	62696c77          	0x62696c77
    134e:	62696c2f          	0x62696c2f
    1352:	6e692f63          	0x6e692f63
    1356:	64756c63          	bltu	a0,t2,19ae <_ftext-0xe652>
    135a:	2f65                	addiw	t5,t5,25
    135c:	00737973          	csrrc	s2,0x7,6
    1360:	7300                	ld	s0,32(a4)
    1362:	7379                	lui	t1,0xffffe
    1364:	6c6c6163          	bltu	s8,t1,1a26 <_ftext-0xe5da>
    1368:	00632e73          	csrrs	t3,0x6,t1
    136c:	6d000003          	lb	zero,1744(zero) # 20906d0 <_gp+0x207e9b0>
    1370:	6361                	lui	t1,0x18
    1372:	6968                	ld	a0,208(a0)
    1374:	656e                	ld	a0,216(sp)
    1376:	7379732f          	0x7379732f
    137a:	6c6c6163          	bltu	s8,t1,1a3c <_ftext-0xe5c4>
    137e:	682e                	ld	a6,200(sp)
    1380:	0300                	addi	s0,sp,384
    1382:	0000                	unimp
    1384:	64647473          	csrrc	s0,0x646,8
    1388:	6665                	lui	a2,0x19
    138a:	682e                	ld	a6,200(sp)
    138c:	0100                	addi	s0,sp,128
    138e:	0000                	unimp
    1390:	745f 7079 7365      	0x73657079745f
    1396:	682e                	ld	a6,200(sp)
    1398:	0200                	addi	s0,sp,256
    139a:	0000                	unimp
    139c:	7974                	ld	a3,240(a0)
    139e:	6570                	ld	a2,200(a0)
    13a0:	00682e73          	csrrs	t3,0x6,a6
    13a4:	0005                	0x5
    13a6:	7300                	ld	s0,32(a4)
    13a8:	6174                	ld	a3,192(a0)
    13aa:	2e74                	fld	fa3,216(a2)
    13ac:	0068                	addi	a0,sp,12
    13ae:	0005                	0x5
    13b0:	7400                	ld	s0,40(s0)
    13b2:	6d69                	lui	s10,0x1a
    13b4:	7365                	lui	t1,0xffff9
    13b6:	682e                	ld	a6,200(sp)
    13b8:	0500                	addi	s0,sp,640
    13ba:	0000                	unimp
    13bc:	6974                	ld	a3,208(a0)
    13be:	656d                	lui	a0,0x1b
    13c0:	682e                	ld	a6,200(sp)
    13c2:	0500                	addi	s0,sp,640
    13c4:	0000                	unimp
    13c6:	6974                	ld	a3,208(a0)
    13c8:	656d                	lui	a0,0x1b
    13ca:	2e62                	fld	ft8,24(sp)
    13cc:	0068                	addi	a0,sp,12
    13ce:	0005                	0x5
    13d0:	7500                	ld	s0,40(a0)
    13d2:	6974                	ld	a3,208(a0)
    13d4:	656d                	lui	a0,0x1b
    13d6:	682e                	ld	a6,200(sp)
    13d8:	0500                	addi	s0,sp,640
    13da:	0000                	unimp
    13dc:	6e75                	lui	t3,0x1d
    13de:	7369                	lui	t1,0xffffa
    13e0:	6474                	ld	a3,200(s0)
    13e2:	682e                	ld	a6,200(sp)
    13e4:	0500                	addi	s0,sp,640
    13e6:	0000                	unimp
    13e8:	7265                	lui	tp,0xffff9
    13ea:	6e72                	ld	t3,280(sp)
    13ec:	00682e6f          	jal	t3,833f2 <_gp+0x716d2>
    13f0:	0005                	0x5
    13f2:	0000                	unimp
    13f4:	0900                	addi	s0,sp,144
    13f6:	9c02                	jalr	s8
    13f8:	0105                	addi	sp,sp,1
    13fa:	0000                	unimp
    13fc:	0000                	unimp
    13fe:	7500                	ld	s0,40(a0)
    1400:	0900                	addi	s0,sp,144
    1402:	a802                	fsd	ft0,16(sp)
    1404:	0105                	addi	sp,sp,1
    1406:	0000                	unimp
    1408:	0000                	unimp
    140a:	0100                	addi	s0,sp,128
    140c:	0900                	addi	s0,sp,144
    140e:	ac02                	fsd	ft0,24(sp)
    1410:	0105                	addi	sp,sp,1
    1412:	0000                	unimp
    1414:	0000                	unimp
    1416:	1800                	addi	s0,sp,48
    1418:	0900                	addi	s0,sp,144
    141a:	b002                	fsd	ft0,32(sp)
    141c:	0105                	addi	sp,sp,1
    141e:	0000                	unimp
    1420:	0000                	unimp
    1422:	1900                	addi	s0,sp,176
    1424:	0900                	addi	s0,sp,144
    1426:	b402                	fsd	ft0,40(sp)
    1428:	0105                	addi	sp,sp,1
    142a:	0000                	unimp
    142c:	0000                	unimp
    142e:	1500                	addi	s0,sp,672
    1430:	0900                	addi	s0,sp,144
    1432:	bc02                	fsd	ft0,56(sp)
    1434:	0105                	addi	sp,sp,1
    1436:	0000                	unimp
    1438:	0000                	unimp
    143a:	1900                	addi	s0,sp,176
    143c:	0900                	addi	s0,sp,144
    143e:	cc02                	sw	zero,24(sp)
    1440:	0105                	addi	sp,sp,1
    1442:	0000                	unimp
    1444:	0000                	unimp
    1446:	1a00                	addi	s0,sp,304
    1448:	0900                	addi	s0,sp,144
    144a:	cc02                	sw	zero,24(sp)
    144c:	0105                	addi	sp,sp,1
    144e:	0000                	unimp
    1450:	0000                	unimp
    1452:	0400                	addi	s0,sp,512
    1454:	0302                	slli	t1,t1,0x0
    1456:	0900014f          	fnmadd.s	ft2,ft0,fa6,ft1,rne
    145a:	d002                	sw	zero,32(sp)
    145c:	0105                	addi	sp,sp,1
    145e:	0000                	unimp
    1460:	0000                	unimp
    1462:	1800                	addi	s0,sp,48
    1464:	0900                	addi	s0,sp,144
    1466:	d402                	sw	zero,40(sp)
    1468:	0105                	addi	sp,sp,1
    146a:	0000                	unimp
    146c:	0000                	unimp
    146e:	1900                	addi	s0,sp,176
    1470:	0900                	addi	s0,sp,144
    1472:	dc02                	sw	zero,56(sp)
    1474:	0105                	addi	sp,sp,1
    1476:	0000                	unimp
    1478:	0000                	unimp
    147a:	0400                	addi	s0,sp,512
    147c:	4701                	li	a4,0
    147e:	0900                	addi	s0,sp,144
    1480:	e402                	sd	zero,8(sp)
    1482:	0105                	addi	sp,sp,1
    1484:	0000                	unimp
    1486:	0000                	unimp
    1488:	1e00                	addi	s0,sp,816
    148a:	0900                	addi	s0,sp,144
    148c:	e402                	sd	zero,8(sp)
    148e:	0105                	addi	sp,sp,1
    1490:	0000                	unimp
    1492:	0000                	unimp
    1494:	0400                	addi	s0,sp,512
    1496:	0302                	slli	t1,t1,0x0
    1498:	09000147          	fmsub.s	ft2,ft0,fa6,ft1,rne
    149c:	e802                	sd	zero,16(sp)
    149e:	0105                	addi	sp,sp,1
    14a0:	0000                	unimp
    14a2:	0000                	unimp
    14a4:	1900                	addi	s0,sp,176
    14a6:	0900                	addi	s0,sp,144
    14a8:	f002                	sd	zero,32(sp)
    14aa:	0105                	addi	sp,sp,1
    14ac:	0000                	unimp
    14ae:	0000                	unimp
    14b0:	0400                	addi	s0,sp,512
    14b2:	5001                	0x5001
    14b4:	0900                	addi	s0,sp,144
    14b6:	f802                	sd	zero,48(sp)
    14b8:	0105                	addi	sp,sp,1
    14ba:	0000                	unimp
    14bc:	0000                	unimp
    14be:	1f00                	addi	s0,sp,944
    14c0:	0900                	addi	s0,sp,144
    14c2:	f802                	sd	zero,48(sp)
    14c4:	0105                	addi	sp,sp,1
    14c6:	0000                	unimp
    14c8:	0000                	unimp
    14ca:	0400                	addi	s0,sp,512
    14cc:	0302                	slli	t1,t1,0x0
    14ce:	7fbc                	ld	a5,120(a5)
    14d0:	0001                	nop
    14d2:	0209                	addi	tp,tp,2
    14d4:	05fc                	addi	a5,sp,716
    14d6:	0001                	nop
    14d8:	0000                	unimp
    14da:	0000                	unimp
    14dc:	0018                	addi	a4,sp,0
    14de:	0209                	addi	tp,tp,2
    14e0:	0600                	addi	s0,sp,768
    14e2:	0001                	nop
    14e4:	0000                	unimp
    14e6:	0000                	unimp
    14e8:	0019                	0x19
    14ea:	0209                	addi	tp,tp,2
    14ec:	0608                	addi	a0,sp,768
    14ee:	0001                	nop
    14f0:	0000                	unimp
    14f2:	0000                	unimp
    14f4:	0104                	addi	s1,sp,128
    14f6:	005a                	0x5a
    14f8:	0209                	addi	tp,tp,2
    14fa:	060c                	addi	a1,sp,768
    14fc:	0001                	nop
    14fe:	0000                	unimp
    1500:	0000                	unimp
    1502:	001f 0209 060c      	0x60c0209001f
    1508:	0001                	nop
    150a:	0000                	unimp
    150c:	0000                	unimp
    150e:	0204                	addi	s1,sp,256
    1510:	017fb203          	ld	tp,23(t6)
    1514:	0900                	addi	s0,sp,144
    1516:	1002                	0x1002
    1518:	0106                	slli	sp,sp,0x1
    151a:	0000                	unimp
    151c:	0000                	unimp
    151e:	1800                	addi	s0,sp,48
    1520:	0900                	addi	s0,sp,144
    1522:	1402                	slli	s0,s0,0x20
    1524:	0106                	slli	sp,sp,0x1
    1526:	0000                	unimp
    1528:	0000                	unimp
    152a:	1900                	addi	s0,sp,176
    152c:	0900                	addi	s0,sp,144
    152e:	1c02                	slli	s8,s8,0x20
    1530:	0106                	slli	sp,sp,0x1
    1532:	0000                	unimp
    1534:	0000                	unimp
    1536:	0400                	addi	s0,sp,512
    1538:	6401                	lui	s0,0x0
    153a:	0900                	addi	s0,sp,144
    153c:	2002                	fld	ft0,0(sp)
    153e:	0106                	slli	sp,sp,0x1
    1540:	0000                	unimp
    1542:	0000                	unimp
    1544:	1f00                	addi	s0,sp,944
    1546:	0900                	addi	s0,sp,144
    1548:	2002                	fld	ft0,0(sp)
    154a:	0106                	slli	sp,sp,0x1
    154c:	0000                	unimp
    154e:	0000                	unimp
    1550:	0400                	addi	s0,sp,512
    1552:	0302                	slli	t1,t1,0x0
    1554:	7fa8                	ld	a0,120(a5)
    1556:	0001                	nop
    1558:	0209                	addi	tp,tp,2
    155a:	0624                	addi	s1,sp,776
    155c:	0001                	nop
    155e:	0000                	unimp
    1560:	0000                	unimp
    1562:	0018                	addi	a4,sp,0
    1564:	0209                	addi	tp,tp,2
    1566:	0628                	addi	a0,sp,776
    1568:	0001                	nop
    156a:	0000                	unimp
    156c:	0000                	unimp
    156e:	0019                	0x19
    1570:	0209                	addi	tp,tp,2
    1572:	0630                	addi	a2,sp,776
    1574:	0001                	nop
    1576:	0000                	unimp
    1578:	0000                	unimp
    157a:	0104                	addi	s1,sp,128
    157c:	006e                	0x6e
    157e:	0209                	addi	tp,tp,2
    1580:	0634                	addi	a3,sp,776
    1582:	0001                	nop
    1584:	0000                	unimp
    1586:	0000                	unimp
    1588:	0020                	addi	s0,sp,8
    158a:	0209                	addi	tp,tp,2
    158c:	0634                	addi	a3,sp,776
    158e:	0001                	nop
    1590:	0000                	unimp
    1592:	0000                	unimp
    1594:	0204                	addi	s1,sp,256
    1596:	017f9c03          	lh	s8,23(t6)
    159a:	0900                	addi	s0,sp,144
    159c:	3802                	fld	fa6,32(sp)
    159e:	0106                	slli	sp,sp,0x1
    15a0:	0000                	unimp
    15a2:	0000                	unimp
    15a4:	1800                	addi	s0,sp,48
    15a6:	0900                	addi	s0,sp,144
    15a8:	3c02                	fld	fs8,32(sp)
    15aa:	0106                	slli	sp,sp,0x1
    15ac:	0000                	unimp
    15ae:	0000                	unimp
    15b0:	1800                	addi	s0,sp,48
    15b2:	0900                	addi	s0,sp,144
    15b4:	4002                	0x4002
    15b6:	0106                	slli	sp,sp,0x1
    15b8:	0000                	unimp
    15ba:	0000                	unimp
    15bc:	1900                	addi	s0,sp,176
    15be:	0900                	addi	s0,sp,144
    15c0:	4802                	lw	a6,0(sp)
    15c2:	0106                	slli	sp,sp,0x1
    15c4:	0000                	unimp
    15c6:	0000                	unimp
    15c8:	0400                	addi	s0,sp,512
    15ca:	7901                	lui	s2,0xfffe0
    15cc:	0900                	addi	s0,sp,144
    15ce:	5002                	0x5002
    15d0:	0106                	slli	sp,sp,0x1
    15d2:	0000                	unimp
    15d4:	0000                	unimp
    15d6:	1f00                	addi	s0,sp,944
    15d8:	0900                	addi	s0,sp,144
    15da:	5002                	0x5002
    15dc:	0106                	slli	sp,sp,0x1
    15de:	0000                	unimp
    15e0:	0000                	unimp
    15e2:	0400                	addi	s0,sp,512
    15e4:	0302                	slli	t1,t1,0x0
    15e6:	7f92                	ld	t6,288(sp)
    15e8:	0001                	nop
    15ea:	0209                	addi	tp,tp,2
    15ec:	0654                	addi	a3,sp,772
    15ee:	0001                	nop
    15f0:	0000                	unimp
    15f2:	0000                	unimp
    15f4:	0018                	addi	a4,sp,0
    15f6:	0209                	addi	tp,tp,2
    15f8:	0658                	addi	a4,sp,772
    15fa:	0001                	nop
    15fc:	0000                	unimp
    15fe:	0000                	unimp
    1600:	0018                	addi	a4,sp,0
    1602:	0209                	addi	tp,tp,2
    1604:	065c                	addi	a5,sp,772
    1606:	0001                	nop
    1608:	0000                	unimp
    160a:	0000                	unimp
    160c:	0019                	0x19
    160e:	0209                	addi	tp,tp,2
    1610:	0664                	addi	s1,sp,780
    1612:	0001                	nop
    1614:	0000                	unimp
    1616:	0000                	unimp
    1618:	0104                	addi	s1,sp,128
    161a:	02090083          	lb	ra,32(s2) # fffffffffffe0020 <_gp+0xfffffffffffce300>
    161e:	066c                	addi	a1,sp,780
    1620:	0001                	nop
    1622:	0000                	unimp
    1624:	0000                	unimp
    1626:	001f 0209 066c      	0x66c0209001f
    162c:	0001                	nop
    162e:	0000                	unimp
    1630:	0000                	unimp
    1632:	0204                	addi	s1,sp,256
    1634:	017f8803          	lb	a6,23(t6)
    1638:	0900                	addi	s0,sp,144
    163a:	7002                	0x7002
    163c:	0106                	slli	sp,sp,0x1
    163e:	0000                	unimp
    1640:	0000                	unimp
    1642:	1800                	addi	s0,sp,48
    1644:	0900                	addi	s0,sp,144
    1646:	7402                	ld	s0,32(sp)
    1648:	0106                	slli	sp,sp,0x1
    164a:	0000                	unimp
    164c:	0000                	unimp
    164e:	1800                	addi	s0,sp,48
    1650:	0900                	addi	s0,sp,144
    1652:	7802                	ld	a6,32(sp)
    1654:	0106                	slli	sp,sp,0x1
    1656:	0000                	unimp
    1658:	0000                	unimp
    165a:	1900                	addi	s0,sp,176
    165c:	0900                	addi	s0,sp,144
    165e:	8002                	0x8002
    1660:	0106                	slli	sp,sp,0x1
    1662:	0000                	unimp
    1664:	0000                	unimp
    1666:	0400                	addi	s0,sp,512
    1668:	8d01                	sub	a0,a0,s0
    166a:	0900                	addi	s0,sp,144
    166c:	8802                	jr	a6
    166e:	0106                	slli	sp,sp,0x1
    1670:	0000                	unimp
    1672:	0000                	unimp
    1674:	1f00                	addi	s0,sp,944
    1676:	0900                	addi	s0,sp,144
    1678:	8802                	jr	a6
    167a:	0106                	slli	sp,sp,0x1
    167c:	0000                	unimp
    167e:	0000                	unimp
    1680:	0400                	addi	s0,sp,512
    1682:	0302                	slli	t1,t1,0x0
    1684:	7f80                	ld	s0,56(a5)
    1686:	0001                	nop
    1688:	0209                	addi	tp,tp,2
    168a:	068c                	addi	a1,sp,832
    168c:	0001                	nop
    168e:	0000                	unimp
    1690:	0000                	unimp
    1692:	0019                	0x19
    1694:	0209                	addi	tp,tp,2
    1696:	0694                	addi	a3,sp,832
    1698:	0001                	nop
    169a:	0000                	unimp
    169c:	0000                	unimp
    169e:	0104                	addi	s1,sp,128
    16a0:	02090097          	auipc	ra,0x2090
    16a4:	069c                	addi	a5,sp,832
    16a6:	0001                	nop
    16a8:	0000                	unimp
    16aa:	0000                	unimp
    16ac:	001f 0209 069c      	0x69c0209001f
    16b2:	0001                	nop
    16b4:	0000                	unimp
    16b6:	0000                	unimp
    16b8:	0204                	addi	s1,sp,256
    16ba:	017ef403          	0x17ef403
    16be:	0900                	addi	s0,sp,144
    16c0:	a002                	fsd	ft0,0(sp)
    16c2:	0106                	slli	sp,sp,0x1
    16c4:	0000                	unimp
    16c6:	0000                	unimp
    16c8:	1800                	addi	s0,sp,48
    16ca:	0900                	addi	s0,sp,144
    16cc:	a402                	fsd	ft0,8(sp)
    16ce:	0106                	slli	sp,sp,0x1
    16d0:	0000                	unimp
    16d2:	0000                	unimp
    16d4:	1800                	addi	s0,sp,48
    16d6:	0900                	addi	s0,sp,144
    16d8:	a802                	fsd	ft0,16(sp)
    16da:	0106                	slli	sp,sp,0x1
    16dc:	0000                	unimp
    16de:	0000                	unimp
    16e0:	1900                	addi	s0,sp,176
    16e2:	0900                	addi	s0,sp,144
    16e4:	b002                	fsd	ft0,32(sp)
    16e6:	0106                	slli	sp,sp,0x1
    16e8:	0000                	unimp
    16ea:	0000                	unimp
    16ec:	0400                	addi	s0,sp,512
    16ee:	a101                	j	1aee <_ftext-0xe512>
    16f0:	0900                	addi	s0,sp,144
    16f2:	b802                	fsd	ft0,48(sp)
    16f4:	0106                	slli	sp,sp,0x1
    16f6:	0000                	unimp
    16f8:	0000                	unimp
    16fa:	1f00                	addi	s0,sp,944
    16fc:	0900                	addi	s0,sp,144
    16fe:	b802                	fsd	ft0,48(sp)
    1700:	0106                	slli	sp,sp,0x1
    1702:	0000                	unimp
    1704:	0000                	unimp
    1706:	0400                	addi	s0,sp,512
    1708:	0302                	slli	t1,t1,0x0
    170a:	7eec                	ld	a1,248(a3)
    170c:	0001                	nop
    170e:	0209                	addi	tp,tp,2
    1710:	06bc                	addi	a5,sp,840
    1712:	0001                	nop
    1714:	0000                	unimp
    1716:	0000                	unimp
    1718:	0019                	0x19
    171a:	0209                	addi	tp,tp,2
    171c:	06c4                	addi	s1,sp,836
    171e:	0001                	nop
    1720:	0000                	unimp
    1722:	0000                	unimp
    1724:	0104                	addi	s1,sp,128
    1726:	020900ab          	custom1	1,18,0,1
    172a:	06cc                	addi	a1,sp,836
    172c:	0001                	nop
    172e:	0000                	unimp
    1730:	0000                	unimp
    1732:	001f 0209 06cc      	0x6cc0209001f
    1738:	0001                	nop
    173a:	0000                	unimp
    173c:	0000                	unimp
    173e:	0204                	addi	s1,sp,256
    1740:	017edf03          	lhu	t5,23(t4)
    1744:	0900                	addi	s0,sp,144
    1746:	d002                	sw	zero,32(sp)
    1748:	0106                	slli	sp,sp,0x1
    174a:	0000                	unimp
    174c:	0000                	unimp
    174e:	1800                	addi	s0,sp,48
    1750:	0900                	addi	s0,sp,144
    1752:	d402                	sw	zero,40(sp)
    1754:	0106                	slli	sp,sp,0x1
    1756:	0000                	unimp
    1758:	0000                	unimp
    175a:	1800                	addi	s0,sp,48
    175c:	0900                	addi	s0,sp,144
    175e:	d802                	sw	zero,48(sp)
    1760:	0106                	slli	sp,sp,0x1
    1762:	0000                	unimp
    1764:	0000                	unimp
    1766:	1800                	addi	s0,sp,48
    1768:	0900                	addi	s0,sp,144
    176a:	dc02                	sw	zero,56(sp)
    176c:	0106                	slli	sp,sp,0x1
    176e:	0000                	unimp
    1770:	0000                	unimp
    1772:	1900                	addi	s0,sp,176
    1774:	0900                	addi	s0,sp,144
    1776:	e402                	sd	zero,8(sp)
    1778:	0106                	slli	sp,sp,0x1
    177a:	0000                	unimp
    177c:	0000                	unimp
    177e:	0400                	addi	s0,sp,512
    1780:	b501                	j	1580 <_ftext-0xea80>
    1782:	0900                	addi	s0,sp,144
    1784:	ec02                	sd	zero,24(sp)
    1786:	0106                	slli	sp,sp,0x1
    1788:	0000                	unimp
    178a:	0000                	unimp
    178c:	1f00                	addi	s0,sp,944
    178e:	0900                	addi	s0,sp,144
    1790:	ec02                	sd	zero,24(sp)
    1792:	0106                	slli	sp,sp,0x1
    1794:	0000                	unimp
    1796:	0000                	unimp
    1798:	0400                	addi	s0,sp,512
    179a:	0302                	slli	t1,t1,0x0
    179c:	7ed6                	ld	t4,368(sp)
    179e:	0001                	nop
    17a0:	0209                	addi	tp,tp,2
    17a2:	06f0                	addi	a2,sp,844
    17a4:	0001                	nop
    17a6:	0000                	unimp
    17a8:	0000                	unimp
    17aa:	0018                	addi	a4,sp,0
    17ac:	0209                	addi	tp,tp,2
    17ae:	06f4                	addi	a3,sp,844
    17b0:	0001                	nop
    17b2:	0000                	unimp
    17b4:	0000                	unimp
    17b6:	0018                	addi	a4,sp,0
    17b8:	0209                	addi	tp,tp,2
    17ba:	06f8                	addi	a4,sp,844
    17bc:	0001                	nop
    17be:	0000                	unimp
    17c0:	0000                	unimp
    17c2:	0019                	0x19
    17c4:	0209                	addi	tp,tp,2
    17c6:	0700                	addi	s0,sp,896
    17c8:	0001                	nop
    17ca:	0000                	unimp
    17cc:	0000                	unimp
    17ce:	0104                	addi	s1,sp,128
    17d0:	020900bf 00010708 	0x10708020900bf
    17d8:	0000                	unimp
    17da:	0000                	unimp
    17dc:	001f 0209 0708      	0x7080209001f
    17e2:	0001                	nop
    17e4:	0000                	unimp
    17e6:	0000                	unimp
    17e8:	0204                	addi	s1,sp,256
    17ea:	017ecb03          	lbu	s6,23(t4)
    17ee:	0900                	addi	s0,sp,144
    17f0:	0c02                	slli	s8,s8,0x0
    17f2:	00000107          	0x107
    17f6:	0000                	unimp
    17f8:	1800                	addi	s0,sp,48
    17fa:	0900                	addi	s0,sp,144
    17fc:	1002                	0x1002
    17fe:	00000107          	0x107
    1802:	0000                	unimp
    1804:	1800                	addi	s0,sp,48
    1806:	0900                	addi	s0,sp,144
    1808:	1402                	slli	s0,s0,0x20
    180a:	00000107          	0x107
    180e:	0000                	unimp
    1810:	1800                	addi	s0,sp,48
    1812:	0900                	addi	s0,sp,144
    1814:	1802                	slli	a6,a6,0x20
    1816:	00000107          	0x107
    181a:	0000                	unimp
    181c:	1900                	addi	s0,sp,176
    181e:	0900                	addi	s0,sp,144
    1820:	2002                	fld	ft0,0(sp)
    1822:	00000107          	0x107
    1826:	0000                	unimp
    1828:	0400                	addi	s0,sp,512
    182a:	c901                	beqz	a0,183a <_ftext-0xe7c6>
    182c:	0900                	addi	s0,sp,144
    182e:	2802                	fld	fa6,0(sp)
    1830:	00000107          	0x107
    1834:	0000                	unimp
    1836:	2000                	fld	fs0,0(s0)
    1838:	0900                	addi	s0,sp,144
    183a:	3002                	fld	ft0,32(sp)
    183c:	00000107          	0x107
    1840:	0000                	unimp
    1842:	1800                	addi	s0,sp,48
    1844:	0900                	addi	s0,sp,144
    1846:	3402                	fld	fs0,32(sp)
    1848:	00000107          	0x107
    184c:	0000                	unimp
    184e:	1900                	addi	s0,sp,176
    1850:	0900                	addi	s0,sp,144
    1852:	3802                	fld	fa6,32(sp)
    1854:	00000107          	0x107
    1858:	0000                	unimp
    185a:	1500                	addi	s0,sp,672
    185c:	0900                	addi	s0,sp,144
    185e:	4002                	0x4002
    1860:	00000107          	0x107
    1864:	0000                	unimp
    1866:	1900                	addi	s0,sp,176
    1868:	0900                	addi	s0,sp,144
    186a:	4c02                	lw	s8,0(sp)
    186c:	00000107          	0x107
    1870:	0000                	unimp
    1872:	2000                	fld	fs0,0(s0)
    1874:	0900                	addi	s0,sp,144
    1876:	5402                	lw	s0,32(sp)
    1878:	00000107          	0x107
    187c:	0000                	unimp
    187e:	1800                	addi	s0,sp,48
    1880:	0900                	addi	s0,sp,144
    1882:	5802                	lw	a6,32(sp)
    1884:	00000107          	0x107
    1888:	0000                	unimp
    188a:	1900                	addi	s0,sp,176
    188c:	0900                	addi	s0,sp,144
    188e:	5c02                	lw	s8,32(sp)
    1890:	00000107          	0x107
    1894:	0000                	unimp
    1896:	1500                	addi	s0,sp,672
    1898:	0900                	addi	s0,sp,144
    189a:	6402                	ld	s0,0(sp)
    189c:	00000107          	0x107
    18a0:	0000                	unimp
    18a2:	1900                	addi	s0,sp,176
    18a4:	0900                	addi	s0,sp,144
    18a6:	7002                	0x7002
    18a8:	00000107          	0x107
    18ac:	0000                	unimp
    18ae:	2100                	fld	fs0,0(a0)
    18b0:	0900                	addi	s0,sp,144
    18b2:	7002                	0x7002
    18b4:	00000107          	0x107
    18b8:	0000                	unimp
    18ba:	1900                	addi	s0,sp,176
    18bc:	0900                	addi	s0,sp,144
    18be:	7802                	ld	a6,32(sp)
    18c0:	00000107          	0x107
    18c4:	0000                	unimp
    18c6:	2000                	fld	fs0,0(s0)
    18c8:	0900                	addi	s0,sp,144
    18ca:	8002                	0x8002
    18cc:	00000107          	0x107
    18d0:	0000                	unimp
    18d2:	1800                	addi	s0,sp,48
    18d4:	0900                	addi	s0,sp,144
    18d6:	8402                	jr	s0
    18d8:	00000107          	0x107
    18dc:	0000                	unimp
    18de:	1900                	addi	s0,sp,176
    18e0:	0900                	addi	s0,sp,144
    18e2:	8802                	jr	a6
    18e4:	00000107          	0x107
    18e8:	0000                	unimp
    18ea:	1500                	addi	s0,sp,672
    18ec:	0900                	addi	s0,sp,144
    18ee:	9002                	ebreak
    18f0:	00000107          	0x107
    18f4:	0000                	unimp
    18f6:	1900                	addi	s0,sp,176
    18f8:	0900                	addi	s0,sp,144
    18fa:	9c02                	jalr	s8
    18fc:	00000107          	0x107
    1900:	0000                	unimp
    1902:	2000                	fld	fs0,0(s0)
    1904:	0900                	addi	s0,sp,144
    1906:	a402                	fsd	ft0,8(sp)
    1908:	00000107          	0x107
    190c:	0000                	unimp
    190e:	1800                	addi	s0,sp,48
    1910:	0900                	addi	s0,sp,144
    1912:	a802                	fsd	ft0,16(sp)
    1914:	00000107          	0x107
    1918:	0000                	unimp
    191a:	1900                	addi	s0,sp,176
    191c:	0900                	addi	s0,sp,144
    191e:	ac02                	fsd	ft0,24(sp)
    1920:	00000107          	0x107
    1924:	0000                	unimp
    1926:	1500                	addi	s0,sp,672
    1928:	0900                	addi	s0,sp,144
    192a:	b402                	fsd	ft0,40(sp)
    192c:	00000107          	0x107
    1930:	0000                	unimp
    1932:	1900                	addi	s0,sp,176
    1934:	0900                	addi	s0,sp,144
    1936:	c002                	sw	zero,0(sp)
    1938:	00000107          	0x107
    193c:	0000                	unimp
    193e:	2100                	fld	fs0,0(a0)
    1940:	0900                	addi	s0,sp,144
    1942:	c402                	sw	zero,8(sp)
    1944:	00000107          	0x107
    1948:	0000                	unimp
    194a:	0400                	addi	s0,sp,512
    194c:	0302                	slli	t1,t1,0x0
    194e:	00017e83          	0x17e83
    1952:	0209                	addi	tp,tp,2
    1954:	07c8                	addi	a0,sp,964
    1956:	0001                	nop
    1958:	0000                	unimp
    195a:	0000                	unimp
    195c:	0018                	addi	a4,sp,0
    195e:	0209                	addi	tp,tp,2
    1960:	07cc                	addi	a1,sp,964
    1962:	0001                	nop
    1964:	0000                	unimp
    1966:	0000                	unimp
    1968:	0018                	addi	a4,sp,0
    196a:	0209                	addi	tp,tp,2
    196c:	07d0                	addi	a2,sp,964
    196e:	0001                	nop
    1970:	0000                	unimp
    1972:	0000                	unimp
    1974:	0018                	addi	a4,sp,0
    1976:	0209                	addi	tp,tp,2
    1978:	07d4                	addi	a3,sp,964
    197a:	0001                	nop
    197c:	0000                	unimp
    197e:	0000                	unimp
    1980:	0019                	0x19
    1982:	0209                	addi	tp,tp,2
    1984:	07dc                	addi	a5,sp,964
    1986:	0001                	nop
    1988:	0000                	unimp
    198a:	0000                	unimp
    198c:	0104                	addi	s1,sp,128
    198e:	0101fb03          	0x101fb03
    1992:	0900                	addi	s0,sp,144
    1994:	e002                	sd	zero,0(sp)
    1996:	00000107          	0x107
    199a:	0000                	unimp
    199c:	0300                	addi	s0,sp,384
    199e:	7ee6                	ld	t4,120(sp)
    19a0:	0001                	nop
    19a2:	0209                	addi	tp,tp,2
    19a4:	07e4                	addi	s1,sp,972
    19a6:	0001                	nop
    19a8:	0000                	unimp
    19aa:	0000                	unimp
    19ac:	00b1                	addi	ra,ra,12
    19ae:	0209                	addi	tp,tp,2
    19b0:	07e8                	addi	a0,sp,972
    19b2:	0001                	nop
    19b4:	0000                	unimp
    19b6:	0000                	unimp
    19b8:	0200                	addi	s0,sp,256
    19ba:	0104                	addi	s1,sp,128
    19bc:	0106                	slli	sp,sp,0x1
    19be:	0900                	addi	s0,sp,144
    19c0:	f402                	sd	zero,40(sp)
    19c2:	00000107          	0x107
    19c6:	0000                	unimp
    19c8:	0000                	unimp
    19ca:	0402                	slli	s0,s0,0x0
    19cc:	0604                	addi	s1,sp,768
    19ce:	0018                	addi	a4,sp,0
    19d0:	0209                	addi	tp,tp,2
    19d2:	07fc                	addi	a5,sp,972
    19d4:	0001                	nop
    19d6:	0000                	unimp
    19d8:	0000                	unimp
    19da:	0200                	addi	s0,sp,256
    19dc:	0004                	addi	s1,sp,0
    19de:	002a                	0x2a
    19e0:	0209                	addi	tp,tp,2
    19e2:	07fc                	addi	a5,sp,972
    19e4:	0001                	nop
    19e6:	0000                	unimp
    19e8:	0000                	unimp
    19ea:	001a                	0x1a
    19ec:	0209                	addi	tp,tp,2
    19ee:	0804                	addi	s1,sp,16
    19f0:	0001                	nop
    19f2:	0000                	unimp
    19f4:	0000                	unimp
    19f6:	0014                	addi	a3,sp,0
    19f8:	0209                	addi	tp,tp,2
    19fa:	0808                	addi	a0,sp,16
    19fc:	0001                	nop
    19fe:	0000                	unimp
    1a00:	0000                	unimp
    1a02:	0001                	nop
    1a04:	0209                	addi	tp,tp,2
    1a06:	080c                	addi	a1,sp,16
    1a08:	0001                	nop
    1a0a:	0000                	unimp
    1a0c:	0000                	unimp
    1a0e:	001a                	0x1a
    1a10:	0209                	addi	tp,tp,2
    1a12:	0810                	addi	a2,sp,16
    1a14:	0001                	nop
    1a16:	0000                	unimp
    1a18:	0000                	unimp
    1a1a:	0204                	addi	s1,sp,256
    1a1c:	017de803          	lwu	a6,23(s11)
    1a20:	0900                	addi	s0,sp,144
    1a22:	1402                	slli	s0,s0,0x20
    1a24:	0108                	addi	a0,sp,128
    1a26:	0000                	unimp
    1a28:	0000                	unimp
    1a2a:	1800                	addi	s0,sp,48
    1a2c:	0900                	addi	s0,sp,144
    1a2e:	1802                	slli	a6,a6,0x20
    1a30:	0108                	addi	a0,sp,128
    1a32:	0000                	unimp
    1a34:	0000                	unimp
    1a36:	1800                	addi	s0,sp,48
    1a38:	0900                	addi	s0,sp,144
    1a3a:	1c02                	slli	s8,s8,0x20
    1a3c:	0108                	addi	a0,sp,128
    1a3e:	0000                	unimp
    1a40:	0000                	unimp
    1a42:	1800                	addi	s0,sp,48
    1a44:	0900                	addi	s0,sp,144
    1a46:	2002                	fld	ft0,0(sp)
    1a48:	0108                	addi	a0,sp,128
    1a4a:	0000                	unimp
    1a4c:	0000                	unimp
    1a4e:	1800                	addi	s0,sp,48
    1a50:	0900                	addi	s0,sp,144
    1a52:	2402                	fld	fs0,0(sp)
    1a54:	0108                	addi	a0,sp,128
    1a56:	0000                	unimp
    1a58:	0000                	unimp
    1a5a:	1900                	addi	s0,sp,176
    1a5c:	0900                	addi	s0,sp,144
    1a5e:	2c02                	fld	fs8,0(sp)
    1a60:	0108                	addi	a0,sp,128
    1a62:	0000                	unimp
    1a64:	0000                	unimp
    1a66:	1100                	addi	s0,sp,160
    1a68:	0900                	addi	s0,sp,144
    1a6a:	3002                	fld	ft0,32(sp)
    1a6c:	0108                	addi	a0,sp,128
    1a6e:	0000                	unimp
    1a70:	0000                	unimp
    1a72:	1800                	addi	s0,sp,48
    1a74:	0900                	addi	s0,sp,144
    1a76:	3402                	fld	fs0,32(sp)
    1a78:	0108                	addi	a0,sp,128
    1a7a:	0000                	unimp
    1a7c:	0000                	unimp
    1a7e:	1800                	addi	s0,sp,48
    1a80:	0900                	addi	s0,sp,144
    1a82:	3802                	fld	fa6,32(sp)
    1a84:	0108                	addi	a0,sp,128
    1a86:	0000                	unimp
    1a88:	0000                	unimp
    1a8a:	1800                	addi	s0,sp,48
    1a8c:	0900                	addi	s0,sp,144
    1a8e:	3c02                	fld	fs8,32(sp)
    1a90:	0108                	addi	a0,sp,128
    1a92:	0000                	unimp
    1a94:	0000                	unimp
    1a96:	1800                	addi	s0,sp,48
    1a98:	0900                	addi	s0,sp,144
    1a9a:	4002                	0x4002
    1a9c:	0108                	addi	a0,sp,128
    1a9e:	0000                	unimp
    1aa0:	0000                	unimp
    1aa2:	1900                	addi	s0,sp,176
    1aa4:	0900                	addi	s0,sp,144
    1aa6:	4802                	lw	a6,0(sp)
    1aa8:	0108                	addi	a0,sp,128
    1aaa:	0000                	unimp
    1aac:	0000                	unimp
    1aae:	0400                	addi	s0,sp,512
    1ab0:	0301                	addi	t1,t1,0
    1ab2:	0299                	addi	t0,t0,6
    1ab4:	0001                	nop
    1ab6:	0209                	addi	tp,tp,2
    1ab8:	0850                	addi	a2,sp,20
    1aba:	0001                	nop
    1abc:	0000                	unimp
    1abe:	0000                	unimp
    1ac0:	0209001b          	addiw	zero,s2,32
    1ac4:	0854                	addi	a3,sp,20
    1ac6:	0001                	nop
    1ac8:	0000                	unimp
    1aca:	0000                	unimp
    1acc:	0014                	addi	a3,sp,0
    1ace:	0209                	addi	tp,tp,2
    1ad0:	0858                	addi	a4,sp,20
    1ad2:	0001                	nop
    1ad4:	0000                	unimp
    1ad6:	0000                	unimp
    1ad8:	0016                	0x16
    1ada:	0209                	addi	tp,tp,2
    1adc:	0870                	addi	a2,sp,28
    1ade:	0001                	nop
    1ae0:	0000                	unimp
    1ae2:	0000                	unimp
    1ae4:	0018                	addi	a4,sp,0
    1ae6:	0209                	addi	tp,tp,2
    1ae8:	0878                	addi	a4,sp,28
    1aea:	0001                	nop
    1aec:	0000                	unimp
    1aee:	0000                	unimp
    1af0:	0016                	0x16
    1af2:	0209                	addi	tp,tp,2
    1af4:	087c                	addi	a5,sp,28
    1af6:	0001                	nop
    1af8:	0000                	unimp
    1afa:	0000                	unimp
    1afc:	0209001b          	addiw	zero,s2,32
    1b00:	0880                	addi	s0,sp,80
    1b02:	0001                	nop
    1b04:	0000                	unimp
    1b06:	0000                	unimp
    1b08:	02090013          	addi	zero,s2,32
    1b0c:	0888                	addi	a0,sp,80
    1b0e:	0001                	nop
    1b10:	0000                	unimp
    1b12:	0000                	unimp
    1b14:	0209001b          	addiw	zero,s2,32
    1b18:	088c                	addi	a1,sp,80
    1b1a:	0001                	nop
    1b1c:	0000                	unimp
    1b1e:	0000                	unimp
    1b20:	001f 0209 088c      	0x88c0209001f
    1b26:	0001                	nop
    1b28:	0000                	unimp
    1b2a:	0000                	unimp
    1b2c:	0204                	addi	s1,sp,256
    1b2e:	017dd603          	lhu	a2,23(s11)
    1b32:	0900                	addi	s0,sp,144
    1b34:	9002                	ebreak
    1b36:	0108                	addi	a0,sp,128
    1b38:	0000                	unimp
    1b3a:	0000                	unimp
    1b3c:	1800                	addi	s0,sp,48
    1b3e:	0900                	addi	s0,sp,144
    1b40:	9402                	jalr	s0
    1b42:	0108                	addi	a0,sp,128
    1b44:	0000                	unimp
    1b46:	0000                	unimp
    1b48:	1800                	addi	s0,sp,48
    1b4a:	0900                	addi	s0,sp,144
    1b4c:	9802                	jalr	a6
    1b4e:	0108                	addi	a0,sp,128
    1b50:	0000                	unimp
    1b52:	0000                	unimp
    1b54:	1800                	addi	s0,sp,48
    1b56:	0900                	addi	s0,sp,144
    1b58:	9c02                	jalr	s8
    1b5a:	0108                	addi	a0,sp,128
    1b5c:	0000                	unimp
    1b5e:	0000                	unimp
    1b60:	1900                	addi	s0,sp,176
    1b62:	0900                	addi	s0,sp,144
    1b64:	a402                	fsd	ft0,8(sp)
    1b66:	0108                	addi	a0,sp,128
    1b68:	0000                	unimp
    1b6a:	0000                	unimp
    1b6c:	0400                	addi	s0,sp,512
    1b6e:	0301                	addi	t1,t1,0
    1b70:	000102a7          	0x102a7
    1b74:	0209                	addi	tp,tp,2
    1b76:	08ac                	addi	a1,sp,88
    1b78:	0001                	nop
    1b7a:	0000                	unimp
    1b7c:	0000                	unimp
    1b7e:	001f 0209 08ac      	0x8ac0209001f
    1b84:	0001                	nop
    1b86:	0000                	unimp
    1b88:	0000                	unimp
    1b8a:	0018                	addi	a4,sp,0
    1b8c:	0209                	addi	tp,tp,2
    1b8e:	08b4                	addi	a3,sp,88
    1b90:	0001                	nop
    1b92:	0000                	unimp
    1b94:	0000                	unimp
    1b96:	0019                	0x19
    1b98:	0209                	addi	tp,tp,2
    1b9a:	08bc                	addi	a5,sp,88
    1b9c:	0001                	nop
    1b9e:	0000                	unimp
    1ba0:	0000                	unimp
    1ba2:	001f 0209 08bc      	0x8bc0209001f
    1ba8:	0001                	nop
    1baa:	0000                	unimp
    1bac:	0000                	unimp
    1bae:	0019                	0x19
    1bb0:	0209                	addi	tp,tp,2
    1bb2:	08c4                	addi	s1,sp,84
    1bb4:	0001                	nop
    1bb6:	0000                	unimp
    1bb8:	0000                	unimp
    1bba:	001f 0209 08c4      	0x8c40209001f
    1bc0:	0001                	nop
    1bc2:	0000                	unimp
    1bc4:	0000                	unimp
    1bc6:	0019                	0x19
    1bc8:	0209                	addi	tp,tp,2
    1bca:	08cc                	addi	a1,sp,84
    1bcc:	0001                	nop
    1bce:	0000                	unimp
    1bd0:	0000                	unimp
    1bd2:	001f 0209 08cc      	0x8cc0209001f
    1bd8:	0001                	nop
    1bda:	0000                	unimp
    1bdc:	0000                	unimp
    1bde:	0019                	0x19
    1be0:	0209                	addi	tp,tp,2
    1be2:	08d4                	addi	a3,sp,84
    1be4:	0001                	nop
    1be6:	0000                	unimp
    1be8:	0000                	unimp
    1bea:	001f 0209 08d4      	0x8d40209001f
    1bf0:	0001                	nop
    1bf2:	0000                	unimp
    1bf4:	0000                	unimp
    1bf6:	0019                	0x19
    1bf8:	0209                	addi	tp,tp,2
    1bfa:	08dc                	addi	a5,sp,84
    1bfc:	0001                	nop
    1bfe:	0000                	unimp
    1c00:	0000                	unimp
    1c02:	001f 0209 08dc      	0x8dc0209001f
    1c08:	0001                	nop
    1c0a:	0000                	unimp
    1c0c:	0000                	unimp
    1c0e:	0019                	0x19
    1c10:	0209                	addi	tp,tp,2
    1c12:	08e4                	addi	s1,sp,92
    1c14:	0001                	nop
    1c16:	0000                	unimp
    1c18:	0000                	unimp
    1c1a:	001f 0209 08e4      	0x8e40209001f
    1c20:	0001                	nop
    1c22:	0000                	unimp
    1c24:	0000                	unimp
    1c26:	0018                	addi	a4,sp,0
    1c28:	0209                	addi	tp,tp,2
    1c2a:	08ec                	addi	a1,sp,92
    1c2c:	0001                	nop
    1c2e:	0000                	unimp
    1c30:	0000                	unimp
    1c32:	001a                	0x1a
    1c34:	0209                	addi	tp,tp,2
    1c36:	08f4                	addi	a3,sp,92
    1c38:	0001                	nop
    1c3a:	0000                	unimp
    1c3c:	0000                	unimp
    1c3e:	0209001b          	addiw	zero,s2,32
    1c42:	08f8                	addi	a4,sp,92
    1c44:	0001                	nop
    1c46:	0000                	unimp
    1c48:	0000                	unimp
    1c4a:	0016                	0x16
    1c4c:	0209                	addi	tp,tp,2
    1c4e:	0900                	addi	s0,sp,144
    1c50:	0001                	nop
    1c52:	0000                	unimp
    1c54:	0000                	unimp
    1c56:	02090023          	sb	zero,32(s2)
    1c5a:	0900                	addi	s0,sp,144
    1c5c:	0001                	nop
    1c5e:	0000                	unimp
    1c60:	0000                	unimp
    1c62:	0209001b          	addiw	zero,s2,32
    1c66:	0904                	addi	s1,sp,144
    1c68:	0001                	nop
    1c6a:	0000                	unimp
    1c6c:	0000                	unimp
    1c6e:	02090013          	addi	zero,s2,32
    1c72:	0908                	addi	a0,sp,144
    1c74:	0001                	nop
    1c76:	0000                	unimp
    1c78:	0000                	unimp
    1c7a:	0209001b          	addiw	zero,s2,32
    1c7e:	090c                	addi	a1,sp,144
    1c80:	0001                	nop
    1c82:	0000                	unimp
    1c84:	0000                	unimp
    1c86:	0018                	addi	a4,sp,0
    1c88:	0209                	addi	tp,tp,2
    1c8a:	0914                	addi	a3,sp,144
    1c8c:	0001                	nop
    1c8e:	0000                	unimp
    1c90:	0000                	unimp
    1c92:	0204                	addi	s1,sp,256
    1c94:	017cf603          	0x17cf603
    1c98:	0900                	addi	s0,sp,144
    1c9a:	1802                	slli	a6,a6,0x20
    1c9c:	0109                	addi	sp,sp,2
    1c9e:	0000                	unimp
    1ca0:	0000                	unimp
    1ca2:	1800                	addi	s0,sp,48
    1ca4:	0900                	addi	s0,sp,144
    1ca6:	1c02                	slli	s8,s8,0x20
    1ca8:	0109                	addi	sp,sp,2
    1caa:	0000                	unimp
    1cac:	0000                	unimp
    1cae:	1800                	addi	s0,sp,48
    1cb0:	0900                	addi	s0,sp,144
    1cb2:	2002                	fld	ft0,0(sp)
    1cb4:	0109                	addi	sp,sp,2
    1cb6:	0000                	unimp
    1cb8:	0000                	unimp
    1cba:	1800                	addi	s0,sp,48
    1cbc:	0900                	addi	s0,sp,144
    1cbe:	2402                	fld	fs0,0(sp)
    1cc0:	0109                	addi	sp,sp,2
    1cc2:	0000                	unimp
    1cc4:	0000                	unimp
    1cc6:	1800                	addi	s0,sp,48
    1cc8:	0900                	addi	s0,sp,144
    1cca:	2802                	fld	fa6,0(sp)
    1ccc:	0109                	addi	sp,sp,2
    1cce:	0000                	unimp
    1cd0:	0000                	unimp
    1cd2:	1900                	addi	s0,sp,176
    1cd4:	0900                	addi	s0,sp,144
    1cd6:	3002                	fld	ft0,32(sp)
    1cd8:	0109                	addi	sp,sp,2
    1cda:	0000                	unimp
    1cdc:	0000                	unimp
    1cde:	0400                	addi	s0,sp,512
    1ce0:	0301                	addi	t1,t1,0
    1ce2:	0385                	addi	t2,t2,1
    1ce4:	0001                	nop
    1ce6:	0209                	addi	tp,tp,2
    1ce8:	0934                	addi	a3,sp,152
    1cea:	0001                	nop
    1cec:	0000                	unimp
    1cee:	0000                	unimp
    1cf0:	0018                	addi	a4,sp,0
    1cf2:	0209                	addi	tp,tp,2
    1cf4:	0938                	addi	a4,sp,152
    1cf6:	0001                	nop
    1cf8:	0000                	unimp
    1cfa:	0000                	unimp
    1cfc:	0016                	0x16
    1cfe:	0209                	addi	tp,tp,2
    1d00:	0940                	addi	s0,sp,148
    1d02:	0001                	nop
    1d04:	0000                	unimp
    1d06:	0000                	unimp
    1d08:	001a                	0x1a
    1d0a:	0209                	addi	tp,tp,2
    1d0c:	0944                	addi	s1,sp,148
    1d0e:	0001                	nop
    1d10:	0000                	unimp
    1d12:	0000                	unimp
    1d14:	0018                	addi	a4,sp,0
    1d16:	0209                	addi	tp,tp,2
    1d18:	0948                	addi	a0,sp,148
    1d1a:	0001                	nop
    1d1c:	0000                	unimp
    1d1e:	0000                	unimp
    1d20:	0018                	addi	a4,sp,0
    1d22:	0209                	addi	tp,tp,2
    1d24:	0950                	addi	a2,sp,148
    1d26:	0001                	nop
    1d28:	0000                	unimp
    1d2a:	0000                	unimp
    1d2c:	001f 0209 0950      	0x9500209001f
    1d32:	0001                	nop
    1d34:	0000                	unimp
    1d36:	0000                	unimp
    1d38:	0204                	addi	s1,sp,256
    1d3a:	017ce903          	lwu	s2,23(s9)
    1d3e:	0900                	addi	s0,sp,144
    1d40:	5402                	lw	s0,32(sp)
    1d42:	0109                	addi	sp,sp,2
    1d44:	0000                	unimp
    1d46:	0000                	unimp
    1d48:	1800                	addi	s0,sp,48
    1d4a:	0900                	addi	s0,sp,144
    1d4c:	5802                	lw	a6,32(sp)
    1d4e:	0109                	addi	sp,sp,2
    1d50:	0000                	unimp
    1d52:	0000                	unimp
    1d54:	1800                	addi	s0,sp,48
    1d56:	0900                	addi	s0,sp,144
    1d58:	5c02                	lw	s8,32(sp)
    1d5a:	0109                	addi	sp,sp,2
    1d5c:	0000                	unimp
    1d5e:	0000                	unimp
    1d60:	1800                	addi	s0,sp,48
    1d62:	0900                	addi	s0,sp,144
    1d64:	6002                	0x6002
    1d66:	0109                	addi	sp,sp,2
    1d68:	0000                	unimp
    1d6a:	0000                	unimp
    1d6c:	1900                	addi	s0,sp,176
    1d6e:	0900                	addi	s0,sp,144
    1d70:	6c02                	ld	s8,0(sp)
    1d72:	0109                	addi	sp,sp,2
    1d74:	0000                	unimp
    1d76:	0000                	unimp
    1d78:	0000                	unimp
    1d7a:	0101                	addi	sp,sp,0
    1d7c:	0215                	addi	tp,tp,5
    1d7e:	0000                	unimp
    1d80:	0004                	addi	s1,sp,0
    1d82:	01dd                	addi	gp,gp,23
    1d84:	0000                	unimp
    1d86:	0101                	addi	sp,sp,0
    1d88:	f601                	bnez	a2,1c90 <_ftext-0xe370>
    1d8a:	0df2                	slli	s11,s11,0x1c
    1d8c:	0100                	addi	s0,sp,128
    1d8e:	0101                	addi	sp,sp,0
    1d90:	0001                	nop
    1d92:	0000                	unimp
    1d94:	0001                	nop
    1d96:	0100                	addi	s0,sp,128
    1d98:	6d6f682f          	0x6d6f682f
    1d9c:	2f65                	addiw	t5,t5,25
    1d9e:	696c                	ld	a1,208(a0)
    1da0:	7775                	lui	a4,0xffffd
    1da2:	6e65                	lui	t3,0x19
    1da4:	696c                	ld	a1,208(a0)
    1da6:	7369722f          	0x7369722f
    1daa:	742d7663          	bleu	sp,s10,24f6 <_ftext-0xdb0a>
    1dae:	736c6f6f          	jal	t5,c84e4 <_gp+0xb67c4>
    1db2:	7369722f          	0x7369722f
    1db6:	672d7663          	bleu	s2,s10,2422 <_ftext-0xdbde>
    1dba:	756e                	ld	a0,248(sp)
    1dbc:	742d                	lui	s0,0xfffeb
    1dbe:	636c6f6f          	jal	t5,c83f4 <_gp+0xb66d4>
    1dc2:	6168                	ld	a0,192(a0)
    1dc4:	6e69                	lui	t3,0x1a
    1dc6:	6975622f          	0x6975622f
    1dca:	646c                	ld	a1,200(s0)
    1dcc:	6975622f          	0x6975622f
    1dd0:	646c                	ld	a1,200(s0)
    1dd2:	672d                	lui	a4,0xb
    1dd4:	6e2d6363          	bltu	s10,sp,24ba <_ftext-0xdb46>
    1dd8:	7765                	lui	a4,0xffff9
    1dda:	696c                	ld	a1,208(a0)
    1ddc:	2f62                	fld	ft10,24(sp)
    1dde:	2f636367          	0x2f636367
    1de2:	6e69                	lui	t3,0x1a
    1de4:	64756c63          	bltu	a0,t2,243c <_ftext-0xdbc4>
    1de8:	0065                	0x65
    1dea:	6d6f682f          	0x6d6f682f
    1dee:	2f65                	addiw	t5,t5,25
    1df0:	696c                	ld	a1,208(a0)
    1df2:	7775                	lui	a4,0xffffd
    1df4:	6e65                	lui	t3,0x19
    1df6:	696c                	ld	a1,208(a0)
    1df8:	7369722f          	0x7369722f
    1dfc:	742d7663          	bleu	sp,s10,2548 <_ftext-0xdab8>
    1e00:	736c6f6f          	jal	t5,c8536 <_gp+0xb6816>
    1e04:	7369722f          	0x7369722f
    1e08:	672d7663          	bleu	s2,s10,2474 <_ftext-0xdb8c>
    1e0c:	756e                	ld	a0,248(sp)
    1e0e:	742d                	lui	s0,0xfffeb
    1e10:	636c6f6f          	jal	t5,c8446 <_gp+0xb6726>
    1e14:	6168                	ld	a0,192(a0)
    1e16:	6e69                	lui	t3,0x1a
    1e18:	6975622f          	0x6975622f
    1e1c:	646c                	ld	a1,200(s0)
    1e1e:	6975622f          	0x6975622f
    1e22:	646c                	ld	a1,200(s0)
    1e24:	672d                	lui	a4,0xb
    1e26:	6e2d6363          	bltu	s10,sp,250c <_ftext-0xdaf4>
    1e2a:	7765                	lui	a4,0xffff9
    1e2c:	696c                	ld	a1,208(a0)
    1e2e:	2f62                	fld	ft10,24(sp)
    1e30:	6972                	ld	s2,280(sp)
    1e32:	36766373          	csrrs	t1,0x367,12
    1e36:	2d34                	fld	fa3,88(a0)
    1e38:	6e75                	lui	t3,0x1d
    1e3a:	776f6e6b          	0x776f6e6b
    1e3e:	2d6e                	fld	fs10,216(sp)
    1e40:	6c65                	lui	s8,0x19
    1e42:	2f66                	fld	ft10,88(sp)
    1e44:	656e                	ld	a0,216(sp)
    1e46:	62696c77          	0x62696c77
    1e4a:	7261742f          	0x7261742f
    1e4e:	6e692d67          	0x6e692d67
    1e52:	64756c63          	bltu	a0,t2,24aa <_ftext-0xdb56>
    1e56:	2f65                	addiw	t5,t5,25
    1e58:	616d                	addi	sp,sp,240
    1e5a:	6e696863          	bltu	s2,t1,254a <_ftext-0xdab6>
    1e5e:	0065                	0x65
    1e60:	6d6f682f          	0x6d6f682f
    1e64:	2f65                	addiw	t5,t5,25
    1e66:	696c                	ld	a1,208(a0)
    1e68:	7775                	lui	a4,0xffffd
    1e6a:	6e65                	lui	t3,0x19
    1e6c:	696c                	ld	a1,208(a0)
    1e6e:	7369722f          	0x7369722f
    1e72:	742d7663          	bleu	sp,s10,25be <_ftext-0xda42>
    1e76:	736c6f6f          	jal	t5,c85ac <_gp+0xb688c>
    1e7a:	7369722f          	0x7369722f
    1e7e:	672d7663          	bleu	s2,s10,24ea <_ftext-0xdb16>
    1e82:	756e                	ld	a0,248(sp)
    1e84:	742d                	lui	s0,0xfffeb
    1e86:	636c6f6f          	jal	t5,c84bc <_gp+0xb679c>
    1e8a:	6168                	ld	a0,192(a0)
    1e8c:	6e69                	lui	t3,0x1a
    1e8e:	6975622f          	0x6975622f
    1e92:	646c                	ld	a1,200(s0)
    1e94:	6372732f          	0x6372732f
    1e98:	77656e2f          	0x77656e2f
    1e9c:	696c                	ld	a1,208(a0)
    1e9e:	2d62                	fld	fs10,24(sp)
    1ea0:	2f636367          	0x2f636367
    1ea4:	656e                	ld	a0,216(sp)
    1ea6:	62696c77          	0x62696c77
    1eaa:	62696c2f          	0x62696c2f
    1eae:	72652f63          	0x72652f63
    1eb2:	6e72                	ld	t3,280(sp)
    1eb4:	682f006f          	j	f2536 <_gp+0xe0816>
    1eb8:	2f656d6f          	jal	s10,581ae <_gp+0x4648e>
    1ebc:	696c                	ld	a1,208(a0)
    1ebe:	7775                	lui	a4,0xffffd
    1ec0:	6e65                	lui	t3,0x19
    1ec2:	696c                	ld	a1,208(a0)
    1ec4:	7369722f          	0x7369722f
    1ec8:	742d7663          	bleu	sp,s10,2614 <_ftext-0xd9ec>
    1ecc:	736c6f6f          	jal	t5,c8602 <_gp+0xb68e2>
    1ed0:	7369722f          	0x7369722f
    1ed4:	672d7663          	bleu	s2,s10,2540 <_ftext-0xdac0>
    1ed8:	756e                	ld	a0,248(sp)
    1eda:	742d                	lui	s0,0xfffeb
    1edc:	636c6f6f          	jal	t5,c8512 <_gp+0xb67f2>
    1ee0:	6168                	ld	a0,192(a0)
    1ee2:	6e69                	lui	t3,0x1a
    1ee4:	6975622f          	0x6975622f
    1ee8:	646c                	ld	a1,200(s0)
    1eea:	6372732f          	0x6372732f
    1eee:	77656e2f          	0x77656e2f
    1ef2:	696c                	ld	a1,208(a0)
    1ef4:	2d62                	fld	fs10,24(sp)
    1ef6:	2f636367          	0x2f636367
    1efa:	656e                	ld	a0,216(sp)
    1efc:	62696c77          	0x62696c77
    1f00:	62696c2f          	0x62696c2f
    1f04:	6e692f63          	0x6e692f63
    1f08:	64756c63          	bltu	a0,t2,2560 <_ftext-0xdaa0>
    1f0c:	2f65                	addiw	t5,t5,25
    1f0e:	00737973          	csrrc	s2,0x7,6
    1f12:	6500                	ld	s0,8(a0)
    1f14:	7272                	ld	tp,312(sp)
    1f16:	6f6e                	ld	t5,216(sp)
    1f18:	632e                	ld	t1,200(sp)
    1f1a:	0300                	addi	s0,sp,384
    1f1c:	0000                	unimp
    1f1e:	745f 7079 7365      	0x73657079745f
    1f24:	682e                	ld	a6,200(sp)
    1f26:	0200                	addi	s0,sp,256
    1f28:	0000                	unimp
    1f2a:	6f6c                	ld	a1,216(a4)
    1f2c:	682e6b63          	bltu	t3,sp,25c2 <_ftext-0xda3e>
    1f30:	0400                	addi	s0,sp,512
    1f32:	0000                	unimp
    1f34:	64647473          	csrrc	s0,0x646,8
    1f38:	6665                	lui	a2,0x19
    1f3a:	682e                	ld	a6,200(sp)
    1f3c:	0100                	addi	s0,sp,128
    1f3e:	0000                	unimp
    1f40:	745f 7079 7365      	0x73657079745f
    1f46:	682e                	ld	a6,200(sp)
    1f48:	0400                	addi	s0,sp,512
    1f4a:	0000                	unimp
    1f4c:	6572                	ld	a0,280(sp)
    1f4e:	6e65                	lui	t3,0x19
    1f50:	2e74                	fld	fa3,216(a2)
    1f52:	0068                	addi	a0,sp,12
    1f54:	0004                	addi	s1,sp,0
    1f56:	6500                	ld	s0,8(a0)
    1f58:	7272                	ld	tp,312(sp)
    1f5a:	6f6e                	ld	t5,216(sp)
    1f5c:	682e                	ld	a6,200(sp)
    1f5e:	0400                	addi	s0,sp,512
    1f60:	0000                	unimp
    1f62:	0000                	unimp
    1f64:	0209                	addi	tp,tp,2
    1f66:	096c                	addi	a1,sp,156
    1f68:	0001                	nop
    1f6a:	0000                	unimp
    1f6c:	0000                	unimp
    1f6e:	0022                	0x22
    1f70:	0209                	addi	tp,tp,2
    1f72:	096c                	addi	a1,sp,156
    1f74:	0001                	nop
    1f76:	0000                	unimp
    1f78:	0000                	unimp
    1f7a:	0018                	addi	a4,sp,0
    1f7c:	0209                	addi	tp,tp,2
    1f7e:	096c                	addi	a1,sp,156
    1f80:	0001                	nop
    1f82:	0000                	unimp
    1f84:	0000                	unimp
    1f86:	0018                	addi	a4,sp,0
    1f88:	0209                	addi	tp,tp,2
    1f8a:	0974                	addi	a3,sp,156
    1f8c:	0001                	nop
    1f8e:	0000                	unimp
    1f90:	0000                	unimp
    1f92:	0100                	addi	s0,sp,128
    1f94:	01 30 30 00 81          	Address 0x0000000000001f94 is out of bounds.


Disassembly of section .debug_str:

0000000000000000 <.debug_str>:
   0:	6f6c                	ld	a1,216(a4)
   2:	676e                	ld	a4,216(sp)
   4:	6c20                	ld	s0,88(s0)
   6:	20676e6f          	jal	t3,7620c <_gp+0x644ec>
   a:	6e69                	lui	t3,0x1a
   c:	0074                	addi	a3,sp,12
   e:	726f6873          	csrrs	a6,0x726,30
  12:	2074                	fld	fa3,192(s0)
  14:	6e75                	lui	t3,0x1d
  16:	6e676973          	csrrs	s2,0x6e6,14
  1a:	6465                	lui	s0,0x19
  1c:	6920                	ld	s0,80(a0)
  1e:	746e                	ld	s0,248(sp)
  20:	5f00                	lw	s0,56(a4)
  22:	615f 6574 6978      	0x69786574615f
  28:	5f74                	lw	a3,124(a4)
  2a:	7974                	ld	a3,240(a0)
  2c:	6570                	ld	a2,200(a0)
  2e:	682f0073          	0x682f0073
  32:	2f656d6f          	jal	s10,56328 <_gp+0x44608>
  36:	696c                	ld	a1,208(a0)
  38:	7775                	lui	a4,0xffffd
  3a:	6e65                	lui	t3,0x19
  3c:	696c                	ld	a1,208(a0)
  3e:	7369722f          	0x7369722f
  42:	742d7663          	bleu	sp,s10,78e <_ftext-0xf872>
  46:	736c6f6f          	jal	t5,c677c <_gp+0xb4a5c>
  4a:	7369722f          	0x7369722f
  4e:	672d7663          	bleu	s2,s10,6ba <_ftext-0xf946>
  52:	756e                	ld	a0,248(sp)
  54:	742d                	lui	s0,0xfffeb
  56:	636c6f6f          	jal	t5,c668c <_gp+0xb496c>
  5a:	6168                	ld	a0,192(a0)
  5c:	6e69                	lui	t3,0x1a
  5e:	6975622f          	0x6975622f
  62:	646c                	ld	a1,200(s0)
  64:	6372732f          	0x6372732f
  68:	77656e2f          	0x77656e2f
  6c:	696c                	ld	a1,208(a0)
  6e:	2d62                	fld	fs10,24(sp)
  70:	2f636367          	0x2f636367
  74:	656e                	ld	a0,216(sp)
  76:	62696c77          	0x62696c77
  7a:	62696c2f          	0x62696c2f
  7e:	74732f63          	0x74732f63
  82:	6c64                	ld	s1,216(s0)
  84:	6269                	lui	tp,0x1a
  86:	6574612f          	0x6574612f
  8a:	6978                	ld	a4,208(a0)
  8c:	2e74                	fld	fa3,216(a2)
  8e:	6f6c0063          	beq	s8,s6,76e <_ftext-0xf892>
  92:	676e                	ld	a4,216(sp)
  94:	6c20                	ld	s0,88(s0)
  96:	20676e6f          	jal	t3,7629c <_gp+0x6457c>
  9a:	6e75                	lui	t3,0x1d
  9c:	6e676973          	csrrs	s2,0x6e6,14
  a0:	6465                	lui	s0,0x19
  a2:	6920                	ld	s0,80(a0)
  a4:	746e                	ld	s0,248(sp)
  a6:	5f00                	lw	s0,56(a4)
  a8:	655f 5f74 7863      	0x78635f74655f
  ae:	0061                	0x61
  b0:	6e75                	lui	t3,0x1d
  b2:	6e676973          	csrrs	s2,0x6e6,14
  b6:	6465                	lui	s0,0x19
  b8:	6320                	ld	s0,64(a4)
  ba:	6168                	ld	a0,192(a0)
  bc:	0072                	0x72
  be:	5f5f 7465 615f      	0x615f74655f5f
  c4:	6574                	ld	a3,200(a0)
  c6:	6978                	ld	a4,208(a0)
  c8:	0074                	addi	a3,sp,12
  ca:	5f5f 6572 6967      	0x696765725f5f
  d0:	72657473          	csrrc	s0,0x726,10
  d4:	655f 6978 7074      	0x70746978655f
  da:	6f72                	ld	t5,280(sp)
  dc:	5f5f0063          	beq	t5,s5,6bc <_ftext-0xf944>
  e0:	7465                	lui	s0,0xffff9
  e2:	6f5f 656e 6978      	0x6978656e6f5f
  e8:	0074                	addi	a3,sp,12
  ea:	6f6c                	ld	a1,216(a4)
  ec:	676e                	ld	a4,216(sp)
  ee:	6420                	ld	s0,72(s0)
  f0:	6c62756f          	jal	a0,277b6 <_gp+0x15a96>
  f4:	0065                	0x65
  f6:	726f6873          	csrrs	a6,0x726,30
  fa:	2074                	fld	fa3,192(s0)
  fc:	6e69                	lui	t3,0x1a
  fe:	0074                	addi	a3,sp,12
 100:	20554e47          	fmsub.s	ft8,fa0,ft5,ft4,rmm
 104:	20313143          	fmadd.s	ft2,ft2,ft3,ft4,rup
 108:	2e35                	addiw	t3,t3,13
 10a:	20302e33          	0x20302e33
 10e:	672d                	lui	a4,0xb
 110:	2d20                	fld	fs0,88(a0)
 112:	2d20324f          	0x2d20324f
 116:	6e66                	ld	t3,88(sp)
 118:	75622d6f          	jal	s10,2286e <_gp+0x10b4e>
 11c:	6c69                	lui	s8,0x1a
 11e:	6974                	ld	a3,208(a0)
 120:	006e                	0x6e
 122:	657a6973          	csrrs	s2,0x657,20
 126:	7974                	ld	a3,240(a0)
 128:	6570                	ld	a2,200(a0)
 12a:	5f00                	lw	s0,56(a4)
 12c:	7364                	ld	s1,224(a4)
 12e:	61685f6f          	jal	t5,85744 <_gp+0x73a24>
 132:	646e                	ld	s0,216(sp)
 134:	656c                	ld	a1,200(a0)
 136:	5f00                	lw	s0,56(a4)
 138:	6172                	ld	sp,280(sp)
 13a:	646e                	ld	s0,216(sp)
 13c:	3834                	fld	fa3,112(s0)
 13e:	5f00                	lw	s0,56(a4)
 140:	6d65                	lui	s10,0x19
 142:	7265                	lui	tp,0xffff9
 144:	636e6567          	0x636e6567
 148:	0079                	0x79
 14a:	775f 7263 6f74      	0x6f747263775f
 150:	626d                	lui	tp,0x1b
 152:	735f 6174 6574      	0x65746174735f
 158:	5f00                	lw	s0,56(a4)
 15a:	72736377          	0x72736377
 15e:	6f74                	ld	a3,216(a4)
 160:	626d                	lui	tp,0x1b
 162:	74735f73          	csrrw	t5,0x747,6
 166:	7461                	lui	s0,0xffff8
 168:	0065                	0x65
 16a:	6d6f682f          	0x6d6f682f
 16e:	2f65                	addiw	t5,t5,25
 170:	696c                	ld	a1,208(a0)
 172:	7775                	lui	a4,0xffffd
 174:	6e65                	lui	t3,0x19
 176:	696c                	ld	a1,208(a0)
 178:	7369722f          	0x7369722f
 17c:	742d7663          	bleu	sp,s10,8c8 <_ftext-0xf738>
 180:	736c6f6f          	jal	t5,c68b6 <_gp+0xb4b96>
 184:	7369722f          	0x7369722f
 188:	672d7663          	bleu	s2,s10,7f4 <_ftext-0xf80c>
 18c:	756e                	ld	a0,248(sp)
 18e:	742d                	lui	s0,0xfffeb
 190:	636c6f6f          	jal	t5,c67c6 <_gp+0xb4aa6>
 194:	6168                	ld	a0,192(a0)
 196:	6e69                	lui	t3,0x1a
 198:	6975622f          	0x6975622f
 19c:	646c                	ld	a1,200(s0)
 19e:	6372732f          	0x6372732f
 1a2:	77656e2f          	0x77656e2f
 1a6:	696c                	ld	a1,208(a0)
 1a8:	2d62                	fld	fs10,24(sp)
 1aa:	2f636367          	0x2f636367
 1ae:	656e                	ld	a0,216(sp)
 1b0:	62696c77          	0x62696c77
 1b4:	62696c2f          	0x62696c2f
 1b8:	74732f63          	0x74732f63
 1bc:	6c64                	ld	s1,216(s0)
 1be:	6269                	lui	tp,0x1a
 1c0:	6978652f          	0x6978652f
 1c4:	2e74                	fld	fa3,216(a2)
 1c6:	6c5f0063          	beq	t5,t0,886 <_ftext-0xf77a>
 1ca:	6662                	ld	a2,24(sp)
 1cc:	657a6973          	csrrs	s2,0x657,20
 1d0:	5f00                	lw	s0,56(a4)
 1d2:	626d                	lui	tp,0x1b
 1d4:	7472                	ld	s0,312(sp)
 1d6:	5f63776f          	jal	a4,377cc <_gp+0x25aac>
 1da:	74617473          	csrrc	s0,0x746,2
 1de:	0065                	0x65
 1e0:	775f 7463 6d6f      	0x6d6f7463775f
 1e6:	5f62                	lw	t5,56(sp)
 1e8:	74617473          	csrrc	s0,0x746,2
 1ec:	0065                	0x65
 1ee:	5f5f 6d74 735f      	0x735f6d745f5f
 1f4:	6365                	lui	t1,0x19
 1f6:	5f00                	lw	s0,56(a4)
 1f8:	7865                	lui	a6,0xffff9
 1fa:	7469                	lui	s0,0xffffa
 1fc:	5f00                	lw	s0,56(a4)
 1fe:	6275                	lui	tp,0x1d
 200:	6675                	lui	a2,0x1d
 202:	5f00                	lw	s0,56(a4)
 204:	6162                	ld	sp,24(sp)
 206:	5f006573          	csrrs	a0,0x5f0,0
 20a:	745f 5f6d 6f68      	0x6f685f6d745f
 210:	7275                	lui	tp,0xffffd
 212:	5f00                	lw	s0,56(a4)
 214:	735f 0066 6f5f      	0x6f5f0066735f
 21a:	5f6e                	lw	t5,248(sp)
 21c:	7865                	lui	a6,0xffff9
 21e:	7469                	lui	s0,0xffffa
 220:	615f 6772 0073      	0x736772615f
 226:	635f 6f6f 696b      	0x696b6f6f635f
 22c:	0065                	0x65
 22e:	5f5f 6773 756c      	0x756c67735f5f
 234:	0065                	0x65
 236:	665f 616c 7367      	0x7367616c665f
 23c:	5f00                	lw	s0,56(a4)
 23e:	7369                	lui	t1,0xffffa
 240:	635f 6178 5f00      	0x5f006178635f
 246:	69647473          	csrrc	s0,0x696,8
 24a:	006e                	0x6e
 24c:	635f 7476 7562      	0x75627476635f
 252:	0066                	0x66
 254:	6f5f 6666 6573      	0x657366666f5f
 25a:	0074                	addi	a3,sp,12
 25c:	6d5f 7362 7472      	0x747273626d5f
 262:	7363776f          	jal	a4,37998 <_gp+0x25c78>
 266:	735f 6174 6574      	0x65746174735f
 26c:	5f00                	lw	s0,56(a4)
 26e:	626d                	lui	tp,0x1b
 270:	6c72                	ld	s8,280(sp)
 272:	6e65                	lui	t3,0x19
 274:	735f 6174 6574      	0x65746174735f
 27a:	5f00                	lw	s0,56(a4)
 27c:	6e66                	ld	t3,88(sp)
 27e:	7261                	lui	tp,0xffff8
 280:	5f007367          	0x5f007367
 284:	6e66                	ld	t3,88(sp)
 286:	735f0073          	0x735f0073
 28a:	6769                	lui	a4,0x1a
 28c:	006e                	0x6e
 28e:	665f 6f6c 6b63      	0x6b636f6c665f
 294:	745f 5f00 7473      	0x74735f00745f
 29a:	6564                	ld	s1,200(a0)
 29c:	7272                	ld	tp,312(sp)
 29e:	5f00                	lw	s0,56(a4)
 2a0:	6942                	ld	s2,16(sp)
 2a2:	746e6967          	0x746e6967
 2a6:	5f00                	lw	s0,56(a4)
 2a8:	6d6d6167          	0x6d6d6167
 2ac:	5f61                	li	t5,-8
 2ae:	6e676973          	csrrs	s2,0x6e6,14
 2b2:	006d6167          	0x6d6167
 2b6:	725f 6165 0064      	0x646165725f
 2bc:	725f 7365 6c75      	0x6c757365725f
 2c2:	5f74                	lw	a3,124(a4)
 2c4:	5f5f006b          	0x5f5f006b
 2c8:	6d74                	ld	a3,216(a0)
 2ca:	5f00                	lw	s0,56(a4)
 2cc:	775f 6863 0062      	0x626863775f
 2d2:	735f 6474 756f      	0x756f6474735f
 2d8:	0074                	addi	a3,sp,12
 2da:	635f 7476 656c      	0x656c7476635f
 2e0:	006e                	0x6e
 2e2:	665f 6c69 0065      	0x656c69665f
 2e8:	6e5f 6f69 7362      	0x73626f696e5f
 2ee:	5f00                	lw	s0,56(a4)
 2f0:	7461                	lui	s0,0xffff8
 2f2:	7865                	lui	a6,0xffff9
 2f4:	7469                	lui	s0,0xffffa
 2f6:	0030                	addi	a2,sp,8
 2f8:	735f 6769 616e      	0x616e6769735f
 2fe:	5f6c                	lw	a1,124(a4)
 300:	7562                	ld	a0,56(sp)
 302:	0066                	0x66
 304:	615f 6373 6974      	0x69746373615f
 30a:	656d                	lui	a0,0x1b
 30c:	625f 6675 5f00      	0x5f006675625f
 312:	6572                	ld	a0,280(sp)
 314:	746c7573          	csrrc	a0,0x746,24
 318:	5f00                	lw	s0,56(a4)
 31a:	775f 6863 7700      	0x77006863775f
 320:	6e69                	lui	t3,0x1a
 322:	5f74                	lw	a3,124(a4)
 324:	0074                	addi	a3,sp,12
 326:	665f 616c 7367      	0x7367616c665f
 32c:	0032                	0x32
 32e:	775f 6972 6574      	0x65746972775f
 334:	5f00                	lw	s0,56(a4)
 336:	745f 5f6d 6579      	0x65795f6d745f
 33c:	7261                	lui	tp,0xffff8
 33e:	5f00                	lw	s0,56(a4)
 340:	6d6e                	ld	s10,216(sp)
 342:	6c61                	lui	s8,0x18
 344:	6f6c                	ld	a1,216(a4)
 346:	6e5f0063          	beq	t5,t0,a26 <_ftext-0xf5da>
 34a:	7865                	lui	a6,0xffff9
 34c:	6674                	ld	a3,200(a2)
 34e:	5f00                	lw	s0,56(a4)
 350:	745f 5f6d 6f6d      	0x6f6d5f6d745f
 356:	006e                	0x6e
 358:	5f5f 6473 6469      	0x646964735f5f
 35e:	6e69                	lui	t3,0x1a
 360:	7469                	lui	s0,0xffffa
 362:	5f00                	lw	s0,56(a4)
 364:	5f66666f          	jal	a2,6695a <_gp+0x54c3a>
 368:	0074                	addi	a3,sp,12
 36a:	5f5f 6163 6c6c      	0x6c6c61635f5f
 370:	655f 6978 7074      	0x70746978655f
 376:	6f72                	ld	t5,280(sp)
 378:	5f007363          	bleu	a6,zero,95e <_ftext-0xf6a2>
 37c:	7266                	ld	tp,120(sp)
 37e:	6565                	lui	a0,0x19
 380:	696c                	ld	a1,208(a0)
 382:	5f007473          	csrrc	s0,0x5f0,0
 386:	4f4c                	lw	a1,28(a4)
 388:	525f4b43          	fmadd.d	fs6,ft10,ft5,fa0,rmm
 38c:	4345                	li	t1,17
 38e:	5255                	li	tp,-11
 390:	45564953          	0x45564953
 394:	545f 5f00 656e      	0x656e5f00545f
 39a:	685f0077          	0x685f0077
 39e:	655f 7272 6f6e      	0x6f6e7272655f
 3a4:	5f00                	lw	s0,56(a4)
 3a6:	745f 5f6d 6479      	0x64795f6d745f
 3ac:	7961                	lui	s2,0xffff8
 3ae:	5f00                	lw	s0,56(a4)
 3b0:	735f 7562 0066      	0x667562735f
 3b6:	695f 626f 0073      	0x73626f695f
 3bc:	5f5f 4946 454c      	0x454c49465f5f
 3c2:	5f00                	lw	s0,56(a4)
 3c4:	626d                	lui	tp,0x1b
 3c6:	74617473          	csrrc	s0,0x746,2
 3ca:	5f65                	li	t5,-7
 3cc:	0074                	addi	a3,sp,12
 3ce:	5f5f 4673 4c49      	0x4c4946735f5f
 3d4:	0045                	0x45
 3d6:	6d5f 7362 6174      	0x617473626d5f
 3dc:	6574                	ld	a3,200(a0)
 3de:	5f00                	lw	s0,56(a4)
 3e0:	6172                	ld	sp,280(sp)
 3e2:	646e                	ld	s0,216(sp)
 3e4:	6e5f 7865 0074      	0x7478656e5f
 3ea:	6d5f 6c62 6e65      	0x6e656c626d5f
 3f0:	735f 6174 6574      	0x65746174735f
 3f6:	5f00                	lw	s0,56(a4)
 3f8:	6e69                	lui	t3,0x1a
 3fa:	695f0063          	beq	t5,s5,a7a <_ftext-0xf586>
 3fe:	646e                	ld	s0,216(sp)
 400:	5f00                	lw	s0,56(a4)
 402:	72727563          	bleu	t2,tp,b2c <_ftext-0xf4d4>
 406:	6e65                	lui	t3,0x19
 408:	5f74                	lw	a3,124(a4)
 40a:	6f6c                	ld	a1,216(a4)
 40c:	656c6163          	bltu	s8,s6,a4e <_ftext-0xf5b2>
 410:	5f00                	lw	s0,56(a4)
 412:	635f 656c 6e61      	0x6e61656c635f
 418:	7075                	0x7075
 41a:	5f00                	lw	s0,56(a4)
 41c:	616d                	addi	sp,sp,240
 41e:	7778                	ld	a4,232(a4)
 420:	7364                	ld	s1,224(a4)
 422:	5f00                	lw	s0,56(a4)
 424:	6572                	ld	a0,280(sp)
 426:	6e65                	lui	t3,0x19
 428:	0074                	addi	a3,sp,12
 42a:	735f 6565 0064      	0x646565735f
 430:	5f5f 6f63 6e75      	0x6e756f635f5f
 436:	0074                	addi	a3,sp,12
 438:	5f5f 6176 756c      	0x756c61765f5f
 43e:	0065                	0x65
 440:	735f 6565 006b      	0x6b6565735f
 446:	665f 6f70 5f73      	0x5f736f70665f
 44c:	0074                	addi	a3,sp,12
 44e:	5f5f 6d74 6d5f      	0x6d5f6d745f5f
 454:	6e69                	lui	t3,0x1a
 456:	5f00                	lw	s0,56(a4)
 458:	756d                	lui	a0,0xffffb
 45a:	746c                	ld	a1,232(s0)
 45c:	5f00                	lw	s0,56(a4)
 45e:	74727473          	csrrc	s0,0x747,4
 462:	6c5f6b6f          	jal	s6,f7326 <_gp+0xe5606>
 466:	7361                	lui	t1,0xffff8
 468:	0074                	addi	a3,sp,12
 46a:	665f 746e 7079      	0x7079746e665f
 470:	7365                	lui	t1,0xffff9
 472:	5f00                	lw	s0,56(a4)
 474:	6461                	lui	s0,0x18
 476:	0064                	addi	s1,sp,12
 478:	5f5f 4c55 6e6f      	0x6e6f4c555f5f
 47e:	675f0067          	jr	t5,1653 # 329d9 <_gp+0x20cb9>
 482:	7465                	lui	s0,0xffff9
 484:	6164                	ld	s1,192(a0)
 486:	6574                	ld	a3,200(a0)
 488:	655f 7272 5f00      	0x5f007272655f
 48e:	626f6c67          	0x626f6c67
 492:	6c61                	lui	s8,0x18
 494:	695f 706d 7275      	0x7275706d695f
 49a:	5f65                	li	t5,-7
 49c:	7470                	ld	a2,232(s0)
 49e:	0072                	0x72
 4a0:	635f 7275 6572      	0x65727275635f
 4a6:	746e                	ld	s0,248(sp)
 4a8:	635f 7461 6765      	0x67657461635f
 4ae:	0079726f          	jal	tp,97cb4 <_gp+0x85f94>
 4b2:	65646f63          	bltu	s0,s6,b10 <_ftext-0xf4f0>
 4b6:	5f00                	lw	s0,56(a4)
 4b8:	6e75                	lui	t3,0x1d
 4ba:	7375                	lui	t1,0xffffd
 4bc:	6465                	lui	s0,0x19
 4be:	725f 6e61 0064      	0x646e61725f
 4c4:	775f 7364 5f00      	0x5f007364775f
 4ca:	745f 5f6d 6477      	0x64775f6d745f
 4d0:	7961                	lui	s2,0xffff8
 4d2:	5f00                	lw	s0,56(a4)
 4d4:	65756c67          	0x65756c67
 4d8:	5f00                	lw	s0,56(a4)
 4da:	7a697373          	csrrc	t1,0x7a6,18
 4de:	5f65                	li	t5,-7
 4e0:	0074                	addi	a3,sp,12
 4e2:	6c5f 3436 5f61      	0x5f6134366c5f
 4e8:	7562                	ld	a0,56(sp)
 4ea:	0066                	0x66
 4ec:	735f 6769 665f      	0x665f6769735f
 4f2:	6e75                	lui	t3,0x1d
 4f4:	6e5f0063          	beq	t5,t0,bd4 <_ftext-0xf42c>
 4f8:	7562                	ld	a0,56(sp)
 4fa:	0066                	0x66
 4fc:	755f 756e 6573      	0x6573756e755f
 502:	0064                	addi	s1,sp,12
 504:	5f5f 6d74 695f      	0x695f6d745f5f
 50a:	74736473          	csrrs	s0,0x747,6
 50e:	5f00                	lw	s0,56(a4)
 510:	6f6c                	ld	a1,216(a4)
 512:	746c6163          	bltu	s8,t1,c54 <_ftext-0xf3ac>
 516:	6d69                	lui	s10,0x1a
 518:	5f65                	li	t5,-7
 51a:	7562                	ld	a0,56(sp)
 51c:	0066                	0x66
 51e:	635f 6f6c 6573      	0x65736f6c635f
 524:	5f00                	lw	s0,56(a4)
 526:	3472                	fld	fs0,312(sp)
 528:	0038                	addi	a4,sp,8
 52a:	6d5f 7462 776f      	0x776f74626d5f
 530:	74735f63          	ble	t2,t1,c8e <_ftext-0xf372>
 534:	7461                	lui	s0,0xffff8
 536:	0065                	0x65
 538:	705f 7335 5f00      	0x5f007335705f
 53e:	745f 5f6d 646d      	0x646d5f6d745f
 544:	7961                	lui	s2,0xffff8
 546:	5f00                	lw	s0,56(a4)
 548:	665f 6e69 5f69      	0x5f696e69665f
 54e:	7261                	lui	tp,0xffff8
 550:	6172                	ld	sp,280(sp)
 552:	5f79                	li	t5,-2
 554:	72617473          	csrrc	s0,0x726,2
 558:	0074                	addi	a3,sp,12
 55a:	6d6f682f          	0x6d6f682f
 55e:	2f65                	addiw	t5,t5,25
 560:	696c                	ld	a1,208(a0)
 562:	7775                	lui	a4,0xffffd
 564:	6e65                	lui	t3,0x19
 566:	696c                	ld	a1,208(a0)
 568:	7369722f          	0x7369722f
 56c:	742d7663          	bleu	sp,s10,cb8 <_ftext-0xf348>
 570:	736c6f6f          	jal	t5,c6ca6 <_gp+0xb4f86>
 574:	7369722f          	0x7369722f
 578:	672d7663          	bleu	s2,s10,be4 <_ftext-0xf41c>
 57c:	756e                	ld	a0,248(sp)
 57e:	742d                	lui	s0,0xfffeb
 580:	636c6f6f          	jal	t5,c6bb6 <_gp+0xb4e96>
 584:	6168                	ld	a0,192(a0)
 586:	6e69                	lui	t3,0x1a
 588:	6975622f          	0x6975622f
 58c:	646c                	ld	a1,200(s0)
 58e:	6372732f          	0x6372732f
 592:	77656e2f          	0x77656e2f
 596:	696c                	ld	a1,208(a0)
 598:	2d62                	fld	fs10,24(sp)
 59a:	2f636367          	0x2f636367
 59e:	656e                	ld	a0,216(sp)
 5a0:	62696c77          	0x62696c77
 5a4:	62696c2f          	0x62696c2f
 5a8:	696d2f63          	0x696d2f63
 5ac:	662f6373          	csrrs	t1,0x662,30
 5b0:	6e69                	lui	t3,0x1a
 5b2:	2e69                	addiw	t3,t3,26
 5b4:	5f5f0063          	beq	t5,s5,b94 <_ftext-0xf46c>
 5b8:	6966                	ld	s2,88(sp)
 5ba:	696e                	ld	s2,216(sp)
 5bc:	615f 7272 7961      	0x79617272615f
 5c2:	655f 646e 5f00      	0x5f00646e655f
 5c8:	6966                	ld	s2,88(sp)
 5ca:	696e                	ld	s2,216(sp)
 5cc:	5f00                	lw	s0,56(a4)
 5ce:	6c5f 6269 5f63      	0x5f6362696c5f
 5d4:	6966                	ld	s2,88(sp)
 5d6:	696e                	ld	s2,216(sp)
 5d8:	615f 7272 7961      	0x79617272615f
 5de:	6900                	ld	s0,16(a0)
 5e0:	706d                	0x706d
 5e2:	7275                	lui	tp,0xffffd
 5e4:	5f65                	li	t5,-7
 5e6:	6164                	ld	s1,192(a0)
 5e8:	6174                	ld	a3,192(a0)
 5ea:	2f00                	fld	fs0,24(a4)
 5ec:	6f68                	ld	a0,216(a4)
 5ee:	656d                	lui	a0,0x1b
 5f0:	75696c2f          	0x75696c2f
 5f4:	6c6e6577          	0x6c6e6577
 5f8:	2f69                	addiw	t5,t5,26
 5fa:	6972                	ld	s2,280(sp)
 5fc:	2d766373          	csrrs	t1,0x2d7,12
 600:	6f74                	ld	a3,216(a4)
 602:	2f736c6f          	jal	s8,370f8 <_gp+0x253d8>
 606:	6972                	ld	s2,280(sp)
 608:	2d766373          	csrrs	t1,0x2d7,12
 60c:	2d756e67          	0x2d756e67
 610:	6f74                	ld	a3,216(a4)
 612:	68636c6f          	jal	s8,36c98 <_gp+0x24f78>
 616:	6961                	lui	s2,0x18
 618:	2f6e                	fld	ft10,216(sp)
 61a:	7562                	ld	a0,56(sp)
 61c:	6c69                	lui	s8,0x1a
 61e:	2f64                	fld	fs1,216(a4)
 620:	2f637273          	csrrc	tp,0x2f6,6
 624:	656e                	ld	a0,216(sp)
 626:	62696c77          	0x62696c77
 62a:	672d                	lui	a4,0xb
 62c:	6e2f6363          	bltu	t5,sp,d12 <_ftext-0xf2ee>
 630:	7765                	lui	a4,0xffff9
 632:	696c                	ld	a1,208(a0)
 634:	2f62                	fld	ft10,24(sp)
 636:	696c                	ld	a1,208(a0)
 638:	6362                	ld	t1,24(sp)
 63a:	6565722f          	0x6565722f
 63e:	746e                	ld	s0,248(sp)
 640:	706d692f          	0x706d692f
 644:	7275                	lui	tp,0xffffd
 646:	2e65                	addiw	t3,t3,25
 648:	5f5f0063          	beq	t5,s5,c28 <_ftext-0xf3d8>
 64c:	6e69                	lui	t3,0x1a
 64e:	7469                	lui	s0,0xffffa
 650:	615f 7272 7961      	0x79617272615f
 656:	735f 6174 7472      	0x74726174735f
 65c:	5f00                	lw	s0,56(a4)
 65e:	6c5f 6269 5f63      	0x5f6362696c5f
 664:	6e69                	lui	t3,0x1a
 666:	7469                	lui	s0,0xffffa
 668:	615f 7272 7961      	0x79617272615f
 66e:	5f00                	lw	s0,56(a4)
 670:	705f 6572 6e69      	0x6e696572705f
 676:	7469                	lui	s0,0xffffa
 678:	615f 7272 7961      	0x79617272615f
 67e:	735f 6174 7472      	0x74726174735f
 684:	2f00                	fld	fs0,24(a4)
 686:	6f68                	ld	a0,216(a4)
 688:	656d                	lui	a0,0x1b
 68a:	75696c2f          	0x75696c2f
 68e:	6c6e6577          	0x6c6e6577
 692:	2f69                	addiw	t5,t5,26
 694:	6972                	ld	s2,280(sp)
 696:	2d766373          	csrrs	t1,0x2d7,12
 69a:	6f74                	ld	a3,216(a4)
 69c:	2f736c6f          	jal	s8,37192 <_gp+0x25472>
 6a0:	6972                	ld	s2,280(sp)
 6a2:	2d766373          	csrrs	t1,0x2d7,12
 6a6:	2d756e67          	0x2d756e67
 6aa:	6f74                	ld	a3,216(a4)
 6ac:	68636c6f          	jal	s8,36d32 <_gp+0x25012>
 6b0:	6961                	lui	s2,0x18
 6b2:	2f6e                	fld	ft10,216(sp)
 6b4:	7562                	ld	a0,56(sp)
 6b6:	6c69                	lui	s8,0x1a
 6b8:	2f64                	fld	fs1,216(a4)
 6ba:	2f637273          	csrrc	tp,0x2f6,6
 6be:	656e                	ld	a0,216(sp)
 6c0:	62696c77          	0x62696c77
 6c4:	672d                	lui	a4,0xb
 6c6:	6e2f6363          	bltu	t5,sp,dac <_ftext-0xf254>
 6ca:	7765                	lui	a4,0xffff9
 6cc:	696c                	ld	a1,208(a0)
 6ce:	2f62                	fld	ft10,24(sp)
 6d0:	696c                	ld	a1,208(a0)
 6d2:	6362                	ld	t1,24(sp)
 6d4:	73696d2f          	0x73696d2f
 6d8:	6e692f63          	0x6e692f63
 6dc:	7469                	lui	s0,0xffffa
 6de:	632e                	ld	t1,200(sp)
 6e0:	5f00                	lw	s0,56(a4)
 6e2:	705f 6572 6e69      	0x6e696572705f
 6e8:	7469                	lui	s0,0xffffa
 6ea:	615f 7272 7961      	0x79617272615f
 6f0:	655f 646e 5f00      	0x5f00646e655f
 6f6:	6e69                	lui	t3,0x1a
 6f8:	7469                	lui	s0,0xffffa
 6fa:	5f00                	lw	s0,56(a4)
 6fc:	695f 696e 5f74      	0x5f74696e695f
 702:	7261                	lui	tp,0xffff8
 704:	6172                	ld	sp,280(sp)
 706:	5f79                	li	t5,-2
 708:	6e65                	lui	t3,0x19
 70a:	0064                	addi	s1,sp,12
 70c:	6d6f682f          	0x6d6f682f
 710:	2f65                	addiw	t5,t5,25
 712:	696c                	ld	a1,208(a0)
 714:	7775                	lui	a4,0xffffd
 716:	6e65                	lui	t3,0x19
 718:	696c                	ld	a1,208(a0)
 71a:	7369722f          	0x7369722f
 71e:	742d7663          	bleu	sp,s10,e6a <_ftext-0xf196>
 722:	736c6f6f          	jal	t5,c6e58 <_gp+0xb5138>
 726:	7369722f          	0x7369722f
 72a:	672d7663          	bleu	s2,s10,d96 <_ftext-0xf26a>
 72e:	756e                	ld	a0,248(sp)
 730:	742d                	lui	s0,0xfffeb
 732:	636c6f6f          	jal	t5,c6d68 <_gp+0xb5048>
 736:	6168                	ld	a0,192(a0)
 738:	6e69                	lui	t3,0x1a
 73a:	6975622f          	0x6975622f
 73e:	646c                	ld	a1,200(s0)
 740:	6372732f          	0x6372732f
 744:	77656e2f          	0x77656e2f
 748:	696c                	ld	a1,208(a0)
 74a:	2d62                	fld	fs10,24(sp)
 74c:	2f636367          	0x2f636367
 750:	656e                	ld	a0,216(sp)
 752:	62696c77          	0x62696c77
 756:	62696c2f          	0x62696c2f
 75a:	74732f63          	0x74732f63
 75e:	6c64                	ld	s1,216(s0)
 760:	6269                	lui	tp,0x1a
 762:	615f5f2f          	0x615f5f2f
 766:	6574                	ld	a3,200(a0)
 768:	6978                	ld	a4,208(a0)
 76a:	2e74                	fld	fa3,216(a2)
 76c:	682f0063          	beq	t5,sp,dec <_ftext-0xf214>
 770:	2f656d6f          	jal	s10,56a66 <_gp+0x44d46>
 774:	696c                	ld	a1,208(a0)
 776:	7775                	lui	a4,0xffffd
 778:	6e65                	lui	t3,0x19
 77a:	696c                	ld	a1,208(a0)
 77c:	7369722f          	0x7369722f
 780:	742d7663          	bleu	sp,s10,ecc <_ftext-0xf134>
 784:	736c6f6f          	jal	t5,c6eba <_gp+0xb519a>
 788:	7369722f          	0x7369722f
 78c:	672d7663          	bleu	s2,s10,df8 <_ftext-0xf208>
 790:	756e                	ld	a0,248(sp)
 792:	742d                	lui	s0,0xfffeb
 794:	636c6f6f          	jal	t5,c6dca <_gp+0xb50aa>
 798:	6168                	ld	a0,192(a0)
 79a:	6e69                	lui	t3,0x1a
 79c:	6975622f          	0x6975622f
 7a0:	646c                	ld	a1,200(s0)
 7a2:	6372732f          	0x6372732f
 7a6:	77656e2f          	0x77656e2f
 7aa:	696c                	ld	a1,208(a0)
 7ac:	2d62                	fld	fs10,24(sp)
 7ae:	2f636367          	0x2f636367
 7b2:	656e                	ld	a0,216(sp)
 7b4:	62696c77          	0x62696c77
 7b8:	62696c2f          	0x62696c2f
 7bc:	74732f63          	0x74732f63
 7c0:	6c64                	ld	s1,216(s0)
 7c2:	6269                	lui	tp,0x1a
 7c4:	635f5f2f          	0x635f5f2f
 7c8:	6c61                	lui	s8,0x18
 7ca:	5f6c                	lw	a1,124(a4)
 7cc:	7461                	lui	s0,0xffff8
 7ce:	7865                	lui	a6,0xffff9
 7d0:	7469                	lui	s0,0xffffa
 7d2:	632e                	ld	t1,200(sp)
 7d4:	6600                	ld	s0,8(a2)
 7d6:	6572                	ld	a0,280(sp)
 7d8:	0065                	0x65
 7da:	616c                	ld	a1,192(a0)
 7dc:	00707473          	csrrc	s0,0x7,0
 7e0:	6572                	ld	a0,280(sp)
 7e2:	72617473          	csrrc	s0,0x726,2
 7e6:	0074                	addi	a3,sp,12
 7e8:	5f5f 7461 7865      	0x786574615f5f
 7ee:	7469                	lui	s0,0xffffa
 7f0:	6c5f 636f 006b      	0x6b636f6c5f
 7f6:	6361                	lui	t1,0x18
 7f8:	6974                	ld	a3,208(a0)
 7fa:	656d                	lui	a0,0x1b
 7fc:	5f00                	lw	s0,56(a4)
 7fe:	675f 6469 745f      	0x745f6469675f
 804:	6600                	ld	s0,8(a2)
 806:	6361                	lui	t1,0x18
 808:	73736563          	bltu	t1,s7,f32 <_ftext-0xf0ce>
 80c:	7461                	lui	s0,0xffff8
 80e:	5f00                	lw	s0,56(a4)
 810:	695f 746e 7265      	0x7265746e695f
 816:	616e                	ld	sp,216(sp)
 818:	5f6c                	lw	a1,124(a4)
 81a:	63737973          	csrrc	s2,0x637,6
 81e:	6c61                	lui	s8,0x18
 820:	006c                	addi	a1,sp,12
 822:	776f6863          	bltu	t5,s6,f92 <_ftext-0xf06e>
 826:	006e                	0x6e
 828:	6170                	ld	a2,192(a0)
 82a:	6874                	ld	a3,208(s0)
 82c:	7300                	ld	s0,32(a4)
 82e:	5f74                	lw	a3,124(a4)
 830:	6c62                	ld	s8,24(sp)
 832:	736b636f          	jal	t1,b6f68 <_gp+0xa5248>
 836:	7400                	ld	s0,40(s0)
 838:	736d                	lui	t1,0xffffb
 83a:	635f 7475 6d69      	0x6d697475635f
 840:	0065                	0x65
 842:	7364                	ld	s1,224(a4)
 844:	6674                	ld	a3,200(a2)
 846:	616c                	ld	a1,192(a0)
 848:	696b0067          	jr	s6,1686
 84c:	6c6c                	ld	a1,216(s0)
 84e:	7300                	ld	s0,32(a4)
 850:	5f74                	lw	a3,124(a4)
 852:	6e69                	lui	t3,0x1a
 854:	6177006f          	j	7166a <_gp+0x5f94a>
 858:	7469                	lui	s0,0xffffa
 85a:	6700                	ld	s0,8(a4)
 85c:	6f72                	ld	t5,280(sp)
 85e:	7075                	0x7075
 860:	5f00                	lw	s0,56(a4)
 862:	655f 7272 6f6e      	0x6f6e7272655f
 868:	7300                	ld	s0,32(a4)
 86a:	7379                	lui	t1,0xffffe
 86c:	666e6f63          	bltu	t3,t1,eea <_ftext-0xf116>
 870:	7400                	ld	s0,40(s0)
 872:	736d                	lui	t1,0xffffb
 874:	735f 6974 656d      	0x656d6974735f
 87a:	6500                	ld	s0,8(a0)
 87c:	6578                	ld	a4,200(a0)
 87e:	00657663          	bleu	t1,a0,88a <_ftext-0xf776>
 882:	69646863          	bltu	s0,s6,f12 <_ftext-0xf0ee>
 886:	0072                	0x72
 888:	6f66                	ld	t5,88(sp)
 88a:	6b72                	ld	s6,280(sp)
 88c:	6900                	ld	s0,16(a0)
 88e:	636e                	ld	t1,216(sp)
 890:	0072                	0x72
 892:	636f6c63          	bltu	t5,s6,eca <_ftext-0xf136>
 896:	00745f6b          	0x745f6b
 89a:	7366                	ld	t1,120(sp)
 89c:	6174                	ld	a3,192(a0)
 89e:	6174                	ld	a3,192(a0)
 8a0:	0074                	addi	a3,sp,12
 8a2:	6974                	ld	a3,208(a0)
 8a4:	656d                	lui	a0,0x1b
 8a6:	6f7a                	ld	t5,408(sp)
 8a8:	656e                	ld	a0,216(sp)
 8aa:	6d00                	ld	s0,24(a0)
 8ac:	6c69                	lui	s8,0x1a
 8ae:	696c                	ld	a1,208(a0)
 8b0:	6d74                	ld	a3,216(a0)
 8b2:	7300                	ld	s0,32(a4)
 8b4:	7375                	lui	t1,0xffffd
 8b6:	6365                	lui	t1,0x19
 8b8:	73646e6f          	jal	t3,46fee <_gp+0x352ce>
 8bc:	745f 5f00 645f      	0x645f5f00745f
 8c2:	7665                	lui	a2,0xffff9
 8c4:	745f 5f00 735f      	0x735f5f00745f
 8ca:	7379                	lui	t1,0xffffe
 8cc:	6c6c6163          	bltu	s8,t1,f8e <_ftext-0xf072>
 8d0:	655f 7272 726f      	0x726f7272655f
 8d6:	7300                	ld	s0,32(a4)
 8d8:	5f74                	lw	a3,124(a4)
 8da:	6975                	lui	s2,0x1d
 8dc:	0064                	addi	s1,sp,12
 8de:	735f7473          	csrrc	s0,0x735,30
 8e2:	6170                	ld	a2,192(a0)
 8e4:	6572                	ld	a0,280(sp)
 8e6:	0031                	0x31
 8e8:	735f7473          	csrrc	s0,0x735,30
 8ec:	6170                	ld	a2,192(a0)
 8ee:	6572                	ld	a0,280(sp)
 8f0:	0032                	0x32
 8f2:	735f7473          	csrrc	s0,0x735,30
 8f6:	6170                	ld	a2,192(a0)
 8f8:	6572                	ld	a0,280(sp)
 8fa:	74730033          	0x74730033
 8fe:	735f 6170 6572      	0x65726170735f
 904:	0034                	addi	a3,sp,8
 906:	6f6d6863          	bltu	s10,s6,ff6 <_ftext-0xf00a>
 90a:	0064                	addi	s1,sp,12
 90c:	7466                	ld	s0,120(sp)
 90e:	6d69                	lui	s10,0x1a
 910:	0065                	0x65
 912:	7475                	lui	s0,0xffffd
 914:	6d69                	lui	s10,0x1a
 916:	7562                	ld	a0,56(sp)
 918:	0066                	0x66
 91a:	6361                	lui	t1,0x18
 91c:	73736563          	bltu	t1,s7,1046 <_ftext-0xefba>
 920:	5f00                	lw	s0,56(a4)
 922:	6e5f 696c 6b6e      	0x6b6e696c6e5f
 928:	745f 6700 7465      	0x74656700745f
 92e:	6974                	ld	a3,208(a0)
 930:	656d                	lui	a0,0x1b
 932:	6164666f          	jal	a2,46f48 <_gp+0x35228>
 936:	0079                	0x79
 938:	615f7473          	csrrc	s0,0x615,30
 93c:	6974                	ld	a3,208(a0)
 93e:	656d                	lui	a0,0x1b
 940:	7400                	ld	s0,40(s0)
 942:	6d69                	lui	s10,0x1a
 944:	7665                	lui	a2,0xffff9
 946:	6c61                	lui	s8,0x18
 948:	2f00                	fld	fs0,24(a4)
 94a:	6f68                	ld	a0,216(a4)
 94c:	656d                	lui	a0,0x1b
 94e:	75696c2f          	0x75696c2f
 952:	6c6e6577          	0x6c6e6577
 956:	2f69                	addiw	t5,t5,26
 958:	6972                	ld	s2,280(sp)
 95a:	2d766373          	csrrs	t1,0x2d7,12
 95e:	6f74                	ld	a3,216(a4)
 960:	2f736c6f          	jal	s8,37456 <_gp+0x25736>
 964:	6972                	ld	s2,280(sp)
 966:	2d766373          	csrrs	t1,0x2d7,12
 96a:	2d756e67          	0x2d756e67
 96e:	6f74                	ld	a3,216(a4)
 970:	68636c6f          	jal	s8,36ff6 <_gp+0x252d6>
 974:	6961                	lui	s2,0x18
 976:	2f6e                	fld	ft10,216(sp)
 978:	7562                	ld	a0,56(sp)
 97a:	6c69                	lui	s8,0x1a
 97c:	2f64                	fld	fs1,216(a4)
 97e:	2f637273          	csrrc	tp,0x2f6,6
 982:	656e                	ld	a0,216(sp)
 984:	62696c77          	0x62696c77
 988:	672d                	lui	a4,0xb
 98a:	6c2f6363          	bltu	t5,sp,1050 <_ftext-0xefb0>
 98e:	6269                	lui	tp,0x1a
 990:	736f6c67          	0x736f6c67
 994:	69722f73          	csrrs	t5,0x697,tp
 998:	2f766373          	csrrs	t1,0x2f7,12
 99c:	63737973          	csrrc	s2,0x637,6
 9a0:	6c61                	lui	s8,0x18
 9a2:	736c                	ld	a1,224(a4)
 9a4:	632e                	ld	t1,200(sp)
 9a6:	7300                	ld	s0,32(a4)
 9a8:	5f74                	lw	a3,124(a4)
 9aa:	657a6973          	csrrs	s2,0x657,20
 9ae:	7000                	ld	s0,32(s0)
 9b0:	7274                	ld	a3,224(a2)
 9b2:	6964                	ld	s1,208(a0)
 9b4:	6666                	ld	a2,88(sp)
 9b6:	745f 6c00 7473      	0x74736c00745f
 9bc:	7461                	lui	s0,0xffff8
 9be:	7300                	ld	s0,32(a4)
 9c0:	5f74                	lw	a3,124(a4)
 9c2:	6f6d                	lui	t5,0x1b
 9c4:	6564                	ld	s1,200(a0)
 9c6:	6900                	ld	s0,16(a0)
 9c8:	74746173          	csrrs	sp,0x747,8
 9cc:	0079                	0x79
 9ce:	6e75                	lui	t3,0x1d
 9d0:	696c                	ld	a1,208(a0)
 9d2:	6b6e                	ld	s6,216(sp)
 9d4:	6f00                	ld	s0,24(a4)
 9d6:	6570                	ld	a2,200(a0)
 9d8:	006e                	0x6e
 9da:	7674                	ld	a3,232(a2)
 9dc:	735f 6365 6f00      	0x6f006365735f
 9e2:	646c                	ld	a1,200(s0)
 9e4:	6e5f 6d61 0065      	0x656d616e5f
 9ea:	6568                	ld	a0,200(a0)
 9ec:	7061                	0x7061
 9ee:	655f 646e 7400      	0x7400646e655f
 9f4:	6d69                	lui	s10,0x1a
 9f6:	5f65                	li	t5,-7
 9f8:	0074                	addi	a3,sp,12
 9fa:	6e65706f          	j	580e0 <_gp+0x463c0>
 9fe:	7461                	lui	s0,0xffff8
 a00:	7300                	ld	s0,32(a4)
 a02:	7262                	ld	tp,56(sp)
 a04:	7473006b          	0x7473006b
 a08:	6e5f 696c 6b6e      	0x6b6e696c6e5f
 a0e:	6500                	ld	s0,8(a0)
 a10:	6978                	ld	a4,208(a0)
 a12:	5f74                	lw	a3,124(a4)
 a14:	74617473          	csrrc	s0,0x746,2
 a18:	7375                	lui	t1,0xffffd
 a1a:	7300                	ld	s0,32(a4)
 a1c:	5f74                	lw	a3,124(a4)
 a1e:	6c62                	ld	s8,24(sp)
 a20:	7a69736b          	0x7a69736b
 a24:	0065                	0x65
 a26:	6d74                	ld	a3,216(a0)
 a28:	74755f73          	csrrw	t5,0x747,10
 a2c:	6d69                	lui	s10,0x1a
 a2e:	0065                	0x65
 a30:	20554e47          	fmsub.s	ft8,fa0,ft5,ft4,rmm
 a34:	20313143          	fmadd.s	ft2,ft2,ft3,ft4,rup
 a38:	2e35                	addiw	t3,t3,13
 a3a:	20302e33          	0x20302e33
 a3e:	672d                	lui	a4,0xb
 a40:	2d20                	fld	fs0,88(a0)
 a42:	7300324f          	fnmadd.d	ft4,ft0,fa6,fa4,rup
 a46:	5f74                	lw	a3,124(a4)
 a48:	6d697463          	bleu	s6,s2,1110 <_ftext-0xeef0>
 a4c:	0065                	0x65
 a4e:	5f5f 6e69 5f6f      	0x5f6f6e695f5f
 a54:	0074                	addi	a3,sp,12
 a56:	7674                	ld	a3,232(a2)
 a58:	755f 6573 0063      	0x636573755f
 a5e:	656e776f          	jal	a4,e80b4 <_gp+0xd6394>
 a62:	0072                	0x72
 a64:	725f7473          	csrrc	s0,0x725,30
 a68:	6564                	ld	s1,200(a0)
 a6a:	0076                	0x76
 a6c:	6964                	ld	s1,208(a0)
 a6e:	6672                	ld	a2,280(sp)
 a70:	0064                	addi	s1,sp,12
 a72:	6f6d                	lui	t5,0x1b
 a74:	7464                	ld	s1,232(s0)
 a76:	6d69                	lui	s10,0x1a
 a78:	0065                	0x65
 a7a:	70746567          	0x70746567
 a7e:	6469                	lui	s0,0x1a
 a80:	5f00                	lw	s0,56(a4)
 a82:	755f 6469 745f      	0x745f6469755f
 a88:	6e00                	ld	s0,24(a2)
 a8a:	7765                	lui	a4,0xffff9
 a8c:	6e5f 6d61 0065      	0x656d616e5f
 a92:	675f7473          	csrrc	s0,0x675,30
 a96:	6469                	lui	s0,0x1a
 a98:	7400                	ld	s0,40(s0)
 a9a:	736d                	lui	t1,0xffffb
 a9c:	635f 7473 6d69      	0x6d697473635f
 aa2:	0065                	0x65
 aa4:	736c                	ld	a1,224(a4)
 aa6:	6565                	lui	a0,0x19
 aa8:	6974006b          	0x6974006b
 aac:	656d                	lui	a0,0x1b
 aae:	0062                	0x62
 ab0:	6f6d                	lui	t5,0x1b
 ab2:	6564                	ld	s1,200(a0)
 ab4:	745f 7300 5f74      	0x5f747300745f
 aba:	6564                	ld	s1,200(a0)
 abc:	0076                	0x76
 abe:	6974                	ld	a3,208(a0)
 ac0:	656d                	lui	a0,0x1b
 ac2:	73660073          	0x73660073
 ac6:	6174                	ld	a3,192(a0)
 ac8:	0074                	addi	a3,sp,12
 aca:	6970                	ld	a2,208(a0)
 acc:	5f64                	lw	s1,124(a4)
 ace:	0074                	addi	a3,sp,12
 ad0:	7261                	lui	tp,0xffff8
 ad2:	73007667          	0x73007667
 ad6:	5f74                	lw	a3,124(a4)
 ad8:	746d                	lui	s0,0xffffb
 ada:	6d69                	lui	s10,0x1a
 adc:	0065                	0x65
 ade:	63746567          	0x63746567
 ae2:	2f006477          	0x2f006477
 ae6:	6f68                	ld	a0,216(a4)
 ae8:	656d                	lui	a0,0x1b
 aea:	75696c2f          	0x75696c2f
 aee:	6c6e6577          	0x6c6e6577
 af2:	2f69                	addiw	t5,t5,26
 af4:	6972                	ld	s2,280(sp)
 af6:	2d766373          	csrrs	t1,0x2d7,12
 afa:	6f74                	ld	a3,216(a4)
 afc:	2f736c6f          	jal	s8,375f2 <_gp+0x258d2>
 b00:	6972                	ld	s2,280(sp)
 b02:	2d766373          	csrrs	t1,0x2d7,12
 b06:	2d756e67          	0x2d756e67
 b0a:	6f74                	ld	a3,216(a4)
 b0c:	68636c6f          	jal	s8,37192 <_gp+0x25472>
 b10:	6961                	lui	s2,0x18
 b12:	2f6e                	fld	ft10,216(sp)
 b14:	7562                	ld	a0,56(sp)
 b16:	6c69                	lui	s8,0x1a
 b18:	2f64                	fld	fs1,216(a4)
 b1a:	2f637273          	csrrc	tp,0x2f6,6
 b1e:	656e                	ld	a0,216(sp)
 b20:	62696c77          	0x62696c77
 b24:	672d                	lui	a4,0xb
 b26:	6e2f6363          	bltu	t5,sp,120c <_ftext-0xedf4>
 b2a:	7765                	lui	a4,0xffff9
 b2c:	696c                	ld	a1,208(a0)
 b2e:	2f62                	fld	ft10,24(sp)
 b30:	696c                	ld	a1,208(a0)
 b32:	6362                	ld	t1,24(sp)
 b34:	7272652f          	0x7272652f
 b38:	6f6e                	ld	t5,216(sp)
 b3a:	7272652f          	0x7272652f
 b3e:	6f6e                	ld	t5,216(sp)
 b40:	632e                	ld	t1,200(sp)
	...

Disassembly of section .debug_ranges:

0000000000000000 <.debug_ranges>:
   0:	0048                	addi	a0,sp,4
   2:	0000                	unimp
   4:	0000                	unimp
   6:	0000                	unimp
   8:	004c                	addi	a1,sp,4
   a:	0000                	unimp
   c:	0000                	unimp
   e:	0000                	unimp
  10:	0070                	addi	a2,sp,12
  12:	0000                	unimp
  14:	0000                	unimp
  16:	0000                	unimp
  18:	0084                	addi	s1,sp,64
  1a:	0000                	unimp
  1c:	0000                	unimp
  1e:	0000                	unimp
  20:	008c                	addi	a1,sp,64
  22:	0000                	unimp
  24:	0000                	unimp
  26:	0000                	unimp
  28:	00f0                	addi	a2,sp,76
  2a:	0000                	unimp
  2c:	0000                	unimp
  2e:	0000                	unimp
  30:	015c                	addi	a5,sp,132
  32:	0000                	unimp
  34:	0000                	unimp
  36:	0000                	unimp
  38:	017c                	addi	a5,sp,140
	...
  4e:	0000                	unimp
  50:	0228                	addi	a0,sp,264
  52:	0000                	unimp
  54:	0000                	unimp
  56:	0000                	unimp
  58:	0240                	addi	s0,sp,260
  5a:	0000                	unimp
  5c:	0000                	unimp
  5e:	0000                	unimp
  60:	0244                	addi	s1,sp,260
  62:	0000                	unimp
  64:	0000                	unimp
  66:	0000                	unimp
  68:	0248                	addi	a0,sp,260
	...
